 Heaven

 Timestamp is 68828c28 (Thu Jul 24 15:40:24 2025)

 Preferred load address is 10000000

 Start         Length     Name                   Class
 0001:00000000 00030113H .text                   CODE
 0001:00030120 00002fa6H .text$x                 CODE
 0002:00000000 000001f4H .idata$5                DATA
 0002:000001f8 00001840H .rdata                  DATA
 0002:00001a38 0000122cH .rdata$r                DATA
 0002:00002c68 000049b8H .xdata$x                DATA
 0002:00007620 00000064H .idata$2                DATA
 0002:00007684 00000014H .idata$3                DATA
 0002:00007698 000001f4H .idata$4                DATA
 0002:0000788c 0000079eH .idata$6                DATA
 0002:00008030 0000004dH .edata                  DATA
 0003:00000000 00000004H .CRT$XCA                DATA
 0003:00000004 000000b4H .CRT$XCU                DATA
 0003:000000b8 00000004H .CRT$XCZ                DATA
 0003:000000bc 00000004H .CRT$XIA                DATA
 0003:000000c0 0000000cH .CRT$XIC                DATA
 0003:000000cc 00000004H .CRT$XIY                DATA
 0003:000000d0 00000004H .CRT$XIZ                DATA
 0003:000000d4 00000004H .CRT$XPA                DATA
 0003:000000d8 00000004H .CRT$XPX                DATA
 0003:000000dc 00000004H .CRT$XPZ                DATA
 0003:000000e0 00000004H .CRT$XTA                DATA
 0003:000000e4 00000004H .CRT$XTB                DATA
 0003:000000e8 00000004H .CRT$XTZ                DATA
 0003:000000f0 00003098H .data                   DATA
 0003:00003188 00001e99H .bss                    DATA

  Address         Publics by Value              Rva+Base     Lib:Object

 0001:00000000       _DllMain@12                10001000 f   Heaven.obj
 0001:00000010       _CreateInterface@8         10001010 f   ServerStage.obj
 0001:00000070       ??1CTaskQueue@CIOCPServer@@QAE@XZ 10001070 f   ServerStage.obj
 0001:000001a0       ??1?$stack@PAXV?$deque@PAXV?$allocator@PAX@std@@@std@@@std@@QAE@XZ 100011a0 f i ServerStage.obj
 0001:00000250       ?Push@CTaskQueue@CIOCPServer@@QAEXPAX@Z 10001250 f   ServerStage.obj
 0001:00000440       ?Pop@CTaskQueue@CIOCPServer@@QAEPAXXZ 10001440 f   ServerStage.obj
 0001:00000670       ??0CIOCPServer@@QAE@IIIIIIII@Z 10001670 f   ServerStage.obj
 0001:00000a70       ??_ECIOCPServer@@UAEPAXI@Z 10001a70 f i ServerStage.obj
 0001:00000a70       ??_GCIOCPServer@@UAEPAXI@Z 10001a70 f i ServerStage.obj
 0001:00000aa0       ??1?$map@IPAUtagClientNode@CIOCPServer@@U?$less@I@std@@V?$allocator@PAUtagClientNode@CIOCPServer@@@4@@std@@QAE@XZ 10001aa0 f i ServerStage.obj
 0001:00000b10       ??1?$queue@IV?$deque@IV?$allocator@I@std@@@std@@@std@@QAE@XZ 10001b10 f i ServerStage.obj
 0001:00000bc0       ??1CWin32Exception@Win32@OnlineGameLib@@UAE@XZ 10001bc0 f i ServerStage.obj
 0001:00000c40       ??0CWin32Exception@Win32@OnlineGameLib@@QAE@ABV012@@Z 10001c40 f i ServerStage.obj
 0001:00000d80       ??0CException@Win32@OnlineGameLib@@QAE@ABV012@@Z 10001d80 f i ServerStage.obj
 0001:00000ec0       ??_ECWin32Exception@Win32@OnlineGameLib@@UAEPAXI@Z 10001ec0 f i ServerStage.obj
 0001:00000ec0       ??_GCWin32Exception@Win32@OnlineGameLib@@UAEPAXI@Z 10001ec0 f i ServerStage.obj
 0001:00000ee0       ??1CIOCPServer@@UAE@XZ     10001ee0 f   ServerStage.obj
 0001:000011d0       ?Startup@CIOCPServer@@UAGJXZ 100021d0 f   ServerStage.obj
 0001:000013c0       ?Cleanup@CIOCPServer@@UAGJXZ 100023c0 f   ServerStage.obj
 0001:000015b0       ?OpenServiceA@CIOCPServer@@UAGJABKABG@Z 100025b0 f   ServerStage.obj
 0001:000017b0       ?CloseService@CIOCPServer@@UAGJXZ 100027b0 f   ServerStage.obj
 0001:000019a0       ?RegisterMsgFilter@CIOCPServer@@UAGJPAXP6GX0ABK1@Z@Z 100029a0 f   ServerStage.obj
 0001:000019c0       ?PreparePackSink@CIOCPServer@@UAGJXZ 100029c0 f   ServerStage.obj
 0001:000019d0       ?PackDataToClient@CIOCPServer@@UAGJABKQBXABI@Z 100029d0 f   ServerStage.obj
 0001:00001c50       ?SendPackToClient@CIOCPServer@@UAGJABK@Z 10002c50 f   ServerStage.obj
 0001:00001f80       ?SendData@CIOCPServer@@UAGJABKQBXABI@Z 10002f80 f   ServerStage.obj
 0001:00002230       ?_SendDataEx@CIOCPServer@@AAE_NPAUtagClientNode@1@QBXABI@Z 10003230 f   ServerStage.obj
 0001:000024e0       ?GetPackFromClient@CIOCPServer@@UAGPBXABKAAI@Z 100034e0 f   ServerStage.obj
 0001:00002600       ?ShutdownClient@CIOCPServer@@UAGJABK@Z 10003600 f   ServerStage.obj
 0001:000026e0       ?GetClientCount@CIOCPServer@@UAGIXZ 100036e0 f   ServerStage.obj
 0001:000026f0       ?GetClientInfo@CIOCPServer@@UAGPBDABK@Z 100036f0 f   ServerStage.obj
 0001:00002820       ?GetConnectionDetails@CPerConnectionData@@QBE?AV?$basic_string@DU?$char_traits@D@std@@V?$allocator@D@2@@std@@XZ 10003820 f i ServerStage.obj
 0001:00002950       ?QueryInterface@CIOCPServer@@UAGJABU_GUID@@PAPAX@Z 10003950 f   ServerStage.obj
 0001:000029b0       ?AddRef@CIOCPServer@@UAGKXZ 100039b0 f   ServerStage.obj
 0001:000029d0       ?Release@CIOCPServer@@UAGKXZ 100039d0 f   ServerStage.obj
 0001:00002a10       ?OnConnectionEstablished@CIOCPServer@@MAEXPAVSocket@CSocketServer@Win32@OnlineGameLib@@PAVCIOBuffer@45@@Z 10003a10 f   ServerStage.obj
 0001:00002b50       ??1CSocketAddress@Win32@OnlineGameLib@@QAE@XZ 10003b50 f i ServerStage.obj
 0001:00002b90       ?OnConnectionClosing@CIOCPServer@@MAE_NPAVSocket@CSocketServer@Win32@OnlineGameLib@@@Z 10003b90 f   ServerStage.obj
 0001:00002bb0       ?OnConnectionClosed@CIOCPServer@@MAEXPAVSocket@CSocketServer@Win32@OnlineGameLib@@@Z 10003bb0 f   ServerStage.obj
 0001:00002bf0       ?ReadCompleted@CIOCPServer@@MAEXPAVSocket@CSocketServer@Win32@OnlineGameLib@@PAVCIOBuffer@45@@Z 10003bf0 f   ServerStage.obj
 0001:00002e90       ?ProcessDataStream@CIOCPServer@@IAEPAVCIOBuffer@Win32@OnlineGameLib@@PAVSocket@CSocketServer@34@PAV234@@Z 10003e90 f   ServerStage.obj
 0001:00003110       ?GetMinimumMessageSize@CIOCPServer@@IAEIXZ 10004110 f   ServerStage.obj
 0001:00003120       ?GetMessageSize@CIOCPServer@@IAEIPBVCIOBuffer@Win32@OnlineGameLib@@@Z 10004120 f   ServerStage.obj
 0001:00003130       ?ProcessCommand@CIOCPServer@@IAEXPAVSocket@CSocketServer@Win32@OnlineGameLib@@PBVCIOBuffer@45@@Z 10004130 f   ServerStage.obj
 0001:00003210       ??0CServerFactory@@QAE@XZ  10004210 f   ServerStage.obj
 0001:00003230       ??_GCServerFactory@@UAEPAXI@Z 10004230 f i ServerStage.obj
 0001:00003230       ??_ECServerFactory@@UAEPAXI@Z 10004230 f i ServerStage.obj
 0001:00003250       ??1CServerFactory@@UAE@XZ  10004250 f   ServerStage.obj
 0001:00003260       ?SetEnvironment@CServerFactory@@UAGJABI000@Z 10004260 f   ServerStage.obj
 0001:00003290       ?CreateServerInterface@CServerFactory@@UAGJABU_GUID@@PAPAX@Z 10004290 f   ServerStage.obj
 0001:000033a0       ?QueryInterface@CServerFactory@@UAGJABU_GUID@@PAPAX@Z 100043a0 f   ServerStage.obj
 0001:00003400       ?AddRef@CServerFactory@@UAGKXZ 10004400 f   ServerStage.obj
 0001:00003420       ?Release@CServerFactory@@UAGKXZ 10004420 f   ServerStage.obj
 0001:00003450       ?HelperThreadFunction@CIOCPServer@@CGIPAX@Z 10004450 f   ServerStage.obj
 0001:000034a0       ?_HelperThreadFunction@CIOCPServer@@AAEIXZ 100044a0 f   ServerStage.obj
 0001:00003500       ?_HelperAddClient@CIOCPServer@@AAE_NXZ 10004500 f   ServerStage.obj
 0001:00003a20       ?_HelperDelClient@CIOCPServer@@AAE_NXZ 10004a20 f   ServerStage.obj
 0001:00003db0       ?RegisterMsgFilter@CIOCPServer@@UAGJKPAUIMessageProcess@@@Z 10004db0 f   ServerStage.obj
 0001:00003e60       ?ProcessMessage@CIOCPServer@@IAEXPAVSocket@CSocketServer@Win32@OnlineGameLib@@PAVCIOBuffer@45@@Z 10004e60 f   ServerStage.obj
 0001:00004010       ??1?$basic_string@DU?$char_traits@D@std@@V?$allocator@D@2@@std@@QAE@XZ 10005010 f i ServerStage.obj
 0001:00004050       ??1?$list@IV?$allocator@I@std@@@std@@QAE@XZ 10005050 f i ServerStage.obj
 0001:000040a0       ?begin@?$list@IV?$allocator@I@std@@@std@@QAE?AViterator@12@XZ 100050a0 f i ServerStage.obj
 0001:000040b0       ??Eiterator@?$list@IV?$allocator@I@std@@@std@@QAE?AV012@H@Z 100050b0 f i ServerStage.obj
 0001:000040c0       ?assign@?$basic_string@DU?$char_traits@D@std@@V?$allocator@D@2@@std@@QAEAAV12@ABV12@II@Z 100050c0 f i ServerStage.obj
 0001:000042c0       ?_Tidy@?$basic_string@DU?$char_traits@D@std@@V?$allocator@D@2@@std@@AAEX_N@Z 100052c0 f i ServerStage.obj
 0001:00004310       ?insert@?$map@IPAUtagClientNode@CIOCPServer@@U?$less@I@std@@V?$allocator@PAUtagClientNode@CIOCPServer@@@4@@std@@QAE?AU?$pair@Viterator@?$_Tree@IU?$pair@$$CBIPAUtagClientNode@CIOCPServer@@@std@@U_Kfn@?$map@IPAUtagClientNode@CIOCPServer@@U?$less@I@std@@V?$allocator@PAUtagClientNode@CIOCPServer@@@4@@2@U?$less@I@2@V?$allocator@PAUtagClientNode@CIOCPServer@@@2@@std@@_N@2@ABU?$pair@$$CBIPAUtagClientNode@CIOCPServer@@@2@@Z 10005310 f i ServerStage.obj
 0001:00004340       ?erase@?$_Tree@IU?$pair@$$CBIPAUtagClientNode@CIOCPServer@@@std@@U_Kfn@?$map@IPAUtagClientNode@CIOCPServer@@U?$less@I@std@@V?$allocator@PAUtagClientNode@CIOCPServer@@@4@@2@U?$less@I@2@V?$allocator@PAUtagClientNode@CIOCPServer@@@2@@std@@QAE?AViterator@12@V312@0@Z 10005340 f i ServerStage.obj
 0001:00004470       ?pop_front@?$deque@IV?$allocator@I@std@@@std@@QAEXXZ 10005470 f i ServerStage.obj
 0001:00004500       ?push_back@?$deque@IV?$allocator@I@std@@@std@@QAEXABI@Z 10005500 f i ServerStage.obj
 0001:00004800       ?insert@?$list@IV?$allocator@I@std@@@std@@QAE?AViterator@12@V312@ABI@Z 10005800 f i ServerStage.obj
 0001:00004860       ?erase@?$list@IV?$allocator@I@std@@@std@@QAE?AViterator@12@V312@@Z 10005860 f i ServerStage.obj
 0001:000048a0       ??0?$deque@PAXV?$allocator@PAX@std@@@std@@QAE@ABV?$allocator@PAX@1@@Z 100058a0 f i ServerStage.obj
 0001:000048d0       ?assign@?$basic_string@DU?$char_traits@D@std@@V?$allocator@D@2@@std@@QAEAAV12@PBDI@Z 100058d0 f i ServerStage.obj
 0001:00004970       ?erase@?$basic_string@DU?$char_traits@D@std@@V?$allocator@D@2@@std@@QAEAAV12@II@Z 10005970 f i ServerStage.obj
 0001:00004a90       ?_Eos@?$basic_string@DU?$char_traits@D@std@@V?$allocator@D@2@@std@@AAEXI@Z 10005a90 f i ServerStage.obj
 0001:00004ab0       ?_Grow@?$basic_string@DU?$char_traits@D@std@@V?$allocator@D@2@@std@@AAE_NI_N@Z 10005ab0 f i ServerStage.obj
 0001:00004bd0       ?insert@?$_Tree@IU?$pair@$$CBIPAUtagClientNode@CIOCPServer@@@std@@U_Kfn@?$map@IPAUtagClientNode@CIOCPServer@@U?$less@I@std@@V?$allocator@PAUtagClientNode@CIOCPServer@@@4@@2@U?$less@I@2@V?$allocator@PAUtagClientNode@CIOCPServer@@@2@@std@@QAE?AU?$pair@Viterator@?$_Tree@IU?$pair@$$CBIPAUtagClientNode@CIOCPServer@@@std@@U_Kfn@?$map@IPAUtagClientNode@CIOCPServer@@U?$less@I@std@@V?$allocator@PAUtagClientNode@CIOCPServer@@@4@@2@U?$less@I@2@V?$allocator@PAUtagClientNode@CIOCPServer@@@2@@std@@_N@2@ABU?$pair@$$CBIPAUtagClientNode@CIOCPServer@@@2@@Z 10005bd0 f i ServerStage.obj
 0001:00004d00       ?erase@?$_Tree@IU?$pair@$$CBIPAUtagClientNode@CIOCPServer@@@std@@U_Kfn@?$map@IPAUtagClientNode@CIOCPServer@@U?$less@I@std@@V?$allocator@PAUtagClientNode@CIOCPServer@@@4@@2@U?$less@I@2@V?$allocator@PAUtagClientNode@CIOCPServer@@@2@@std@@QAE?AViterator@12@V312@@Z 10005d00 f i ServerStage.obj
 0001:00005220       ?_Erase@?$_Tree@IU?$pair@$$CBIPAUtagClientNode@CIOCPServer@@@std@@U_Kfn@?$map@IPAUtagClientNode@CIOCPServer@@U?$less@I@std@@V?$allocator@PAUtagClientNode@CIOCPServer@@@4@@2@U?$less@I@2@V?$allocator@PAUtagClientNode@CIOCPServer@@@2@@std@@IAEXPAU_Node@12@@Z 10006220 f i ServerStage.obj
 0001:000052b0       ?_Init@?$_Tree@IU?$pair@$$CBIPAUtagClientNode@CIOCPServer@@@std@@U_Kfn@?$map@IPAUtagClientNode@CIOCPServer@@U?$less@I@std@@V?$allocator@PAUtagClientNode@CIOCPServer@@@4@@2@U?$less@I@2@V?$allocator@PAUtagClientNode@CIOCPServer@@@2@@std@@IAEXXZ 100062b0 f i ServerStage.obj
 0001:00005360       ?_Inc@const_iterator@?$_Tree@IU?$pair@$$CBIPAUtagClientNode@CIOCPServer@@@std@@U_Kfn@?$map@IPAUtagClientNode@CIOCPServer@@U?$less@I@std@@V?$allocator@PAUtagClientNode@CIOCPServer@@@4@@2@U?$less@I@2@V?$allocator@PAUtagClientNode@CIOCPServer@@@2@@std@@QAEXXZ 10006360 f i ServerStage.obj
 0001:00005410       ?_Freefront@?$deque@IV?$allocator@I@std@@@std@@IAEXXZ 10006410 f i ServerStage.obj
 0001:00005490       ?_Buyback@?$deque@PAXV?$allocator@PAX@std@@@std@@IAEXXZ 10006490 f i ServerStage.obj
 0001:000055f0       ?_Freeback@?$deque@PAXV?$allocator@PAX@std@@@std@@IAEXXZ 100065f0 f i ServerStage.obj
 0001:00005680       ??0?$pair@Viterator@?$_Tree@IU?$pair@$$CBIPAUtagClientNode@CIOCPServer@@@std@@U_Kfn@?$map@IPAUtagClientNode@CIOCPServer@@U?$less@I@std@@V?$allocator@PAUtagClientNode@CIOCPServer@@@4@@2@U?$less@I@2@V?$allocator@PAUtagClientNode@CIOCPServer@@@2@@std@@_N@std@@QAE@ABViterator@?$_Tree@IU?$pair@$$CBIPAUtagClientNode@CIOCPServer@@@std@@U_Kfn@?$map@IPAUtagClientNode@CIOCPServer@@U?$less@I@std@@V?$allocator@PAUtagClientNode@CIOCPServer@@@4@@2@U?$less@I@2@V?$allocator@PAUtagClientNode@CIOCPServer@@@2@@1@AB_N@Z 10006680 f i ServerStage.obj
 0001:000056a0       ?max_size@?$basic_string@DU?$char_traits@D@std@@V?$allocator@D@2@@std@@QBEIXZ 100066a0 f i ServerStage.obj
 0001:000056b0       ?_Copy@?$basic_string@DU?$char_traits@D@std@@V?$allocator@D@2@@std@@AAEXI@Z 100066b0 f i ServerStage.obj
 0001:000057c0       ?_Split@?$basic_string@DU?$char_traits@D@std@@V?$allocator@D@2@@std@@AAEXXZ 100067c0 f i ServerStage.obj
 0001:00005890       ?_Insert@?$_Tree@IU?$pair@$$CBIPAUtagClientNode@CIOCPServer@@@std@@U_Kfn@?$map@IPAUtagClientNode@CIOCPServer@@U?$less@I@std@@V?$allocator@PAUtagClientNode@CIOCPServer@@@4@@2@U?$less@I@2@V?$allocator@PAUtagClientNode@CIOCPServer@@@2@@std@@IAE?AViterator@12@PAU_Node@12@0ABU?$pair@$$CBIPAUtagClientNode@CIOCPServer@@@2@@Z 10006890 f i ServerStage.obj
 0001:00005b90       ?_Growmap@?$deque@IV?$allocator@I@std@@@std@@IAEPAPAII@Z 10006b90 f i ServerStage.obj
 0001:00005c00       ??0const_iterator@?$deque@IV?$allocator@I@std@@@std@@QAE@XZ 10006c00 f i ServerStage.obj
 0001:00005c10       ?_Getmap@?$deque@PAXV?$allocator@PAX@std@@@std@@IAEXXZ 10006c10 f i ServerStage.obj
 0001:00005c30       ?_Growmap@?$deque@PAXV?$allocator@PAX@std@@@std@@IAEPAPAPAXI@Z 10006c30 f i ServerStage.obj
 0001:00005ca0       ??0const_iterator@?$deque@PAXV?$allocator@PAX@std@@@std@@QAE@XZ 10006ca0 f i ServerStage.obj
 0001:00005cb0       ?_Dec@const_iterator@?$_Tree@IU?$pair@$$CBIPAUtagClientNode@CIOCPServer@@@std@@U_Kfn@?$map@IPAUtagClientNode@CIOCPServer@@U?$less@I@std@@V?$allocator@PAUtagClientNode@CIOCPServer@@@4@@2@U?$less@I@2@V?$allocator@PAUtagClientNode@CIOCPServer@@@2@@std@@QAEXXZ 10006cb0 f i ServerStage.obj
 0001:00005d70       ??0const_iterator@?$deque@IV?$allocator@I@std@@@std@@QAE@PAIPAPAI@Z 10006d70 f i ServerStage.obj
 0001:00005da0       ??0const_iterator@?$deque@PAXV?$allocator@PAX@std@@@std@@QAE@PAPAXPAPAPAX@Z 10006da0 f i ServerStage.obj
 0001:00005dd0       ?_Add@const_iterator@?$deque@PAXV?$allocator@PAX@std@@@std@@IAEXH@Z 10006dd0 f i ServerStage.obj
 0001:00005e40       ??1CCriticalSection@Win32@OnlineGameLib@@QAE@XZ 10006e40 f i ServerStage.obj
 0001:00005e50       ??1Owner@CCriticalSection@Win32@OnlineGameLib@@QAE@XZ 10006e50 f i ServerStage.obj
 0001:00005e60       ??Hstd@@YA?AV?$basic_string@DU?$char_traits@D@std@@V?$allocator@D@2@@0@PBDABV10@@Z 10006e60 f i ServerStage.obj
 0001:00005fb0       ??Hstd@@YA?AV?$basic_string@DU?$char_traits@D@std@@V?$allocator@D@2@@0@ABV10@PBD@Z 10006fb0 f i ServerStage.obj
 0001:000060e0       ??Hstd@@YA?AV?$basic_string@DU?$char_traits@D@std@@V?$allocator@D@2@@0@ABV10@0@Z 100070e0 f i ServerStage.obj
 0001:00006210       ?ToString@Win32@OnlineGameLib@@YA?AV?$basic_string@DU?$char_traits@D@std@@V?$allocator@D@2@@std@@K@Z 10007210 f i ServerStage.obj
 0001:00006410       ??0ios_base@std@@IAE@XZ    10007410 f i ServerStage.obj
 0001:00006420       ??_Gios_base@std@@UAEPAXI@Z 10007420 f i ServerStage.obj
 0001:00006420       ??_Eios_base@std@@UAEPAXI@Z 10007420 f i ServerStage.obj
 0001:00006440       ?put@?$basic_ostream@DU?$char_traits@D@std@@@std@@QAEAAV12@D@Z 10007440 f i ServerStage.obj
 0001:000065b0       ??1?$basic_ios@DU?$char_traits@D@std@@@std@@UAE@XZ 100075b0 f i ServerStage.obj
 0001:000065c0       ??0strstreambuf@std@@QAE@H@Z 100075c0 f i ServerStage.obj
 0001:000066b0       ??1?$basic_streambuf@DU?$char_traits@D@std@@@std@@UAE@XZ 100076b0 f i ServerStage.obj
 0001:00006700       ??_Gstrstreambuf@std@@UAEPAXI@Z 10007700 f i ServerStage.obj
 0001:00006700       ??_Estrstreambuf@std@@UAEPAXI@Z 10007700 f i ServerStage.obj
 0001:00006720       ?overflow@?$basic_streambuf@DU?$char_traits@D@std@@@std@@MAEHH@Z 10007720 f i ServerStage.obj
 0001:00006730       ?pbackfail@?$basic_streambuf@DU?$char_traits@D@std@@@std@@MAEHH@Z 10007730 f i ServerStage.obj
 0001:00006740       ?showmanyc@?$basic_streambuf@DU?$char_traits@D@std@@@std@@MAEHXZ 10007740 f i ServerStage.obj
 0001:00006750       ?underflow@?$basic_streambuf@DU?$char_traits@D@std@@@std@@MAEHXZ 10007750 f i ServerStage.obj
 0001:00006760       ?uflow@?$basic_streambuf@DU?$char_traits@D@std@@@std@@MAEHXZ 10007760 f i ServerStage.obj
 0001:00006790       ?xsgetn@?$basic_streambuf@DU?$char_traits@D@std@@@std@@MAEHPADH@Z 10007790 f i ServerStage.obj
 0001:00006830       ?xsputn@?$basic_streambuf@DU?$char_traits@D@std@@@std@@MAEHPBDH@Z 10007830 f i ServerStage.obj
 0001:000068d0       ?seekoff@?$basic_streambuf@DU?$char_traits@D@std@@@std@@MAE?AV?$fpos@H@2@JW4seekdir@ios_base@2@H@Z 100078d0 f i ServerStage.obj
 0001:00006900       ?seekpos@?$basic_streambuf@DU?$char_traits@D@std@@@std@@MAE?AV?$fpos@H@2@V32@H@Z 10007900 f i ServerStage.obj
 0001:00006930       ?setbuf@?$basic_streambuf@DU?$char_traits@D@std@@@std@@MAEPAV12@PADH@Z 10007930 f i ServerStage.obj
 0001:00006940       ?sync@?$basic_streambuf@DU?$char_traits@D@std@@@std@@MAEHXZ 10007940 f i ServerStage.obj
 0001:00006950       ?imbue@?$basic_streambuf@DU?$char_traits@D@std@@@std@@MAEXABVlocale@2@@Z 10007950 f i ServerStage.obj
 0001:00006960       ??_Gstrstream@std@@UAEPAXI@Z 10007960 f i ServerStage.obj
 0001:00006960       ??_Estrstream@std@@UAEPAXI@Z 10007960 f i ServerStage.obj
 0001:00006990       ??_Dstrstream@std@@QAEXXZ  10007990 f i ServerStage.obj
 0001:000069b0       ??0?$basic_iostream@DU?$char_traits@D@std@@@std@@QAE@PAV?$basic_streambuf@DU?$char_traits@D@std@@@1@@Z 100079b0 f i ServerStage.obj
 0001:00006a80       ??1?$basic_istream@DU?$char_traits@D@std@@@std@@UAE@XZ 10007a80 f i ServerStage.obj
 0001:00006a90       ??1?$basic_iostream@DU?$char_traits@D@std@@@std@@UAE@XZ 10007a90 f i ServerStage.obj
 0001:00006ad0       ??_E?$basic_ostream@DU?$char_traits@D@std@@@std@@UAEPAXI@Z 10007ad0 f i ServerStage.obj
 0001:00006ad0       ??_G?$basic_ostream@DU?$char_traits@D@std@@@std@@UAEPAXI@Z 10007ad0 f i ServerStage.obj
 0001:00006b00       ??_G?$basic_ios@DU?$char_traits@D@std@@@std@@UAEPAXI@Z 10007b00 f i ServerStage.obj
 0001:00006b00       ??_E?$basic_ios@DU?$char_traits@D@std@@@std@@UAEPAXI@Z 10007b00 f i ServerStage.obj
 0001:00006b20       ??_G?$basic_istream@DU?$char_traits@D@std@@@std@@UAEPAXI@Z 10007b20 f i ServerStage.obj
 0001:00006b20       ??_E?$basic_istream@DU?$char_traits@D@std@@@std@@UAEPAXI@Z 10007b20 f i ServerStage.obj
 0001:00006b50       ??_G?$basic_streambuf@DU?$char_traits@D@std@@@std@@UAEPAXI@Z 10007b50 f i ServerStage.obj
 0001:00006b50       ??_E?$basic_streambuf@DU?$char_traits@D@std@@@std@@UAEPAXI@Z 10007b50 f i ServerStage.obj
 0001:00006b70       ??_E?$basic_iostream@DU?$char_traits@D@std@@@std@@UAEPAXI@Z 10007b70 f i ServerStage.obj
 0001:00006b70       ??_G?$basic_iostream@DU?$char_traits@D@std@@@std@@UAEPAXI@Z 10007b70 f i ServerStage.obj
 0001:00006ba0       ??1sentry@?$basic_ostream@DU?$char_traits@D@std@@@std@@QAE@XZ 10007ba0 f i ServerStage.obj
 0001:00006c10       ??0?$fpos@H@std@@QAE@J@Z   10007c10 f i ServerStage.obj
 0001:00006c50       ?opfx@?$basic_ostream@DU?$char_traits@D@std@@@std@@QAE_NXZ 10007c50 f i ServerStage.obj
 0001:00006cd0       ?ToString@Win32@OnlineGameLib@@YA?AV?$basic_string@DU?$char_traits@D@std@@V?$allocator@D@2@@std@@I@Z 10007cd0 f i ServerStage.obj
 0001:00006ed0       ?OnStartAcceptingConnections@CSocketServer@Win32@OnlineGameLib@@EAEXXZ 10007ed0 f i ServerStage.obj
 0001:00006ee0       ?OnStopAcceptingConnections@CSocketServer@Win32@OnlineGameLib@@EAEXXZ 10007ee0 f i ServerStage.obj
 0001:00006ef0       ?OnShutdownInitiated@CSocketServer@Win32@OnlineGameLib@@EAEXXZ 10007ef0 f i ServerStage.obj
 0001:00006f00       ?OnShutdownComplete@CSocketServer@Win32@OnlineGameLib@@EAEXXZ 10007f00 f i ServerStage.obj
 0001:00006f10       ?OnConnectionCreated@CSocketServer@Win32@OnlineGameLib@@EAEXXZ 10007f10 f i ServerStage.obj
 0001:00006f20       ?OnConnectionClientClose@CSocketServer@Win32@OnlineGameLib@@EAEXPAVSocket@123@@Z 10007f20 f i ServerStage.obj
 0001:00006f30       ?_Construct@std@@YAXPAPAXABQAX@Z 10007f30 f i ServerStage.obj
 0001:00006f50       ?OnConnectionReset@CSocketServer@Win32@OnlineGameLib@@EAEXPAVSocket@123@@Z 10007f50 f i ServerStage.obj
 0001:00006f60       ?OnConnectionDestroyed@CSocketServer@Win32@OnlineGameLib@@EAEXXZ 10007f60 f i ServerStage.obj
 0001:00006f70       ?OnBufferCreated@CSocketServer@Win32@OnlineGameLib@@EAEXXZ 10007f70 f i ServerStage.obj
 0001:00006f80       ?OnBufferAllocated@CSocketServer@Win32@OnlineGameLib@@EAEXXZ 10007f80 f i ServerStage.obj
 0001:00006f90       ?OnBufferReleased@CSocketServer@Win32@OnlineGameLib@@EAEXXZ 10007f90 f i ServerStage.obj
 0001:00006fa0       ?OnThreadCreated@CSocketServer@Win32@OnlineGameLib@@EAEXXZ 10007fa0 f i ServerStage.obj
 0001:00006fb0       ?OnThreadDestroyed@CSocketServer@Win32@OnlineGameLib@@EAEXXZ 10007fb0 f i ServerStage.obj
 0001:00006fc0       ?_Construct@std@@YAXPAU?$pair@$$CBIPAUtagClientNode@CIOCPServer@@@1@ABU21@@Z 10007fc0 f i ServerStage.obj
 0001:00006fe0       ??6?$basic_ostream@DU?$char_traits@D@std@@@std@@QAEAAV01@I@Z 10007fe0 f i ServerStage.obj
 0001:00007220       ??1bad_cast@std@@UAE@XZ    10008220 f i ServerStage.obj
 0001:00007230       ?_Doraise@bad_cast@std@@MBEXXZ 10008230 f i ServerStage.obj
 0001:00007250       ??_Gbad_cast@std@@UAEPAXI@Z 10008250 f i ServerStage.obj
 0001:00007250       ??_Ebad_cast@std@@UAEPAXI@Z 10008250 f i ServerStage.obj
 0001:00007270       ??0bad_cast@std@@QAE@ABV01@@Z 10008270 f i ServerStage.obj
 0001:00007290       ??Bid@locale@std@@QAEIXZ   10008290 f i ServerStage.obj
 0001:000072c0       ?_Decref@facet@locale@std@@QAEPAV123@XZ 100082c0 f i ServerStage.obj
 0001:00007300       ??1locale@std@@QAE@XZ      10008300 f i ServerStage.obj
 0001:00007320       ?getloc@ios_base@std@@QBE?AVlocale@2@XZ 10008320 f i ServerStage.obj
 0001:00007360       ??6?$basic_ostream@DU?$char_traits@D@std@@@std@@QAEAAV01@K@Z 10008360 f i ServerStage.obj
 0001:000075d0       ?id@?$ctype@G@std@@$E      100085d0 f i ServerStage.obj
 0001:000075e0       ??0?$num_put@DV?$ostreambuf_iterator@DU?$char_traits@D@std@@@std@@@std@@QAE@I@Z 100085e0 f i ServerStage.obj
 0001:00007640       ??1facet@locale@std@@UAE@XZ 10008640 f i ServerStage.obj
 0001:00007650       ??_Efacet@locale@std@@UAEPAXI@Z 10008650 f i ServerStage.obj
 0001:00007650       ??_Gfacet@locale@std@@UAEPAXI@Z 10008650 f i ServerStage.obj
 0001:00007670       ?do_put@?$num_put@DV?$ostreambuf_iterator@DU?$char_traits@D@std@@@std@@@std@@MBE?AV?$ostreambuf_iterator@DU?$char_traits@D@std@@@2@V32@AAVios_base@2@D_N@Z 10008670 f i ServerStage.obj
 0001:00007940       ??0bad_cast@std@@QAE@PBD@Z 10008940 f i ServerStage.obj
 0001:00007960       ?sputc@?$basic_streambuf@DU?$char_traits@D@std@@@std@@QAEHD@Z 10008960 f i ServerStage.obj
 0001:000079b0       ?do_put@?$num_put@DV?$ostreambuf_iterator@DU?$char_traits@D@std@@@std@@@std@@MBE?AV?$ostreambuf_iterator@DU?$char_traits@D@std@@@2@V32@AAVios_base@2@DJ@Z 100089b0 f i ServerStage.obj
 0001:00007a60       ?do_put@?$num_put@DV?$ostreambuf_iterator@DU?$char_traits@D@std@@@std@@@std@@MBE?AV?$ostreambuf_iterator@DU?$char_traits@D@std@@@2@V32@AAVios_base@2@DK@Z 10008a60 f i ServerStage.obj
 0001:00007b10       ?do_put@?$num_put@DV?$ostreambuf_iterator@DU?$char_traits@D@std@@@std@@@std@@MBE?AV?$ostreambuf_iterator@DU?$char_traits@D@std@@@2@V32@AAVios_base@2@DN@Z 10008b10 f i ServerStage.obj
 0001:00007c00       ?do_put@?$num_put@DV?$ostreambuf_iterator@DU?$char_traits@D@std@@@std@@@std@@MBE?AV?$ostreambuf_iterator@DU?$char_traits@D@std@@@2@V32@AAVios_base@2@DO@Z 10008c00 f i ServerStage.obj
 0001:00007cf0       ?do_put@?$num_put@DV?$ostreambuf_iterator@DU?$char_traits@D@std@@@std@@@std@@MBE?AV?$ostreambuf_iterator@DU?$char_traits@D@std@@@2@V32@AAVios_base@2@DPBX@Z 10008cf0 f i ServerStage.obj
 0001:00007eb0       ??_G?$num_put@DV?$ostreambuf_iterator@DU?$char_traits@D@std@@@std@@@std@@UAEPAXI@Z 10008eb0 f i ServerStage.obj
 0001:00007eb0       ??_E?$num_put@DV?$ostreambuf_iterator@DU?$char_traits@D@std@@@std@@@std@@UAEPAXI@Z 10008eb0 f i ServerStage.obj
 0001:00007ed0       ??1?$num_put@DV?$ostreambuf_iterator@DU?$char_traits@D@std@@@std@@@std@@UAE@XZ 10008ed0 f i ServerStage.obj
 0001:00007ee0       ?_Fput@?$num_put@DV?$ostreambuf_iterator@DU?$char_traits@D@std@@@std@@@std@@KA?AV?$ostreambuf_iterator@DU?$char_traits@D@std@@@2@V32@AAVios_base@2@DPBDII@Z 10008ee0 f i ServerStage.obj
 0001:000082f0       ?_Iput@?$num_put@DV?$ostreambuf_iterator@DU?$char_traits@D@std@@@std@@@std@@KA?AV?$ostreambuf_iterator@DU?$char_traits@D@std@@@2@V32@AAVios_base@2@DPADI@Z 100092f0 f i ServerStage.obj
 0001:00008740       ?_Rep@?$num_put@DV?$ostreambuf_iterator@DU?$char_traits@D@std@@@std@@@std@@KA?AV?$ostreambuf_iterator@DU?$char_traits@D@std@@@2@V32@DI@Z 10009740 f i ServerStage.obj
 0001:000087c0       ?falsename@?$numpunct@D@std@@QBE?AV?$basic_string@DU?$char_traits@D@std@@V?$allocator@D@2@@2@XZ 100097c0 f i ServerStage.obj
 0001:000087e0       ?truename@?$numpunct@D@std@@QBE?AV?$basic_string@DU?$char_traits@D@std@@V?$allocator@D@2@@2@XZ 100097e0 f i ServerStage.obj
 0001:00008800       ??4?$ostreambuf_iterator@DU?$char_traits@D@std@@@std@@QAEAAV01@D@Z 10009800 f i ServerStage.obj
 0001:00008860       ?grouping@?$numpunct@D@std@@QBE?AV?$basic_string@DU?$char_traits@D@std@@V?$allocator@D@2@@2@XZ 10009860 f i ServerStage.obj
 0001:00008880       ??0?$numpunct@D@std@@QAE@I@Z 10009880 f i ServerStage.obj
 0001:000089a0       ?do_decimal_point@?$numpunct@D@std@@MBEDXZ 100099a0 f i ServerStage.obj
 0001:000089b0       ?do_thousands_sep@?$numpunct@D@std@@MBEDXZ 100099b0 f i ServerStage.obj
 0001:000089c0       ?do_grouping@?$numpunct@D@std@@MBE?AV?$basic_string@DU?$char_traits@D@std@@V?$allocator@D@2@@2@XZ 100099c0 f i ServerStage.obj
 0001:00008a90       ?do_falsename@?$numpunct@D@std@@MBE?AV?$basic_string@DU?$char_traits@D@std@@V?$allocator@D@2@@2@XZ 10009a90 f i ServerStage.obj
 0001:00008b60       ?do_truename@?$numpunct@D@std@@MBE?AV?$basic_string@DU?$char_traits@D@std@@V?$allocator@D@2@@2@XZ 10009b60 f i ServerStage.obj
 0001:00008c30       ??_E?$numpunct@D@std@@UAEPAXI@Z 10009c30 f i ServerStage.obj
 0001:00008c30       ??_G?$numpunct@D@std@@UAEPAXI@Z 10009c30 f i ServerStage.obj
 0001:00008c50       ??1?$numpunct@D@std@@UAE@XZ 10009c50 f i ServerStage.obj
 0001:00008c80       ?_Save@?$_Tidyfac@V?$num_put@DV?$ostreambuf_iterator@DU?$char_traits@D@std@@@std@@@std@@@std@@SAPAV?$num_put@DV?$ostreambuf_iterator@DU?$char_traits@D@std@@@std@@@2@PAV32@@Z 10009c80 f i ServerStage.obj
 0001:00008d00       ??_GCException@Win32@OnlineGameLib@@UAEPAXI@Z 10009d00 f i ServerStage.obj
 0001:00008d00       ??_ECException@Win32@OnlineGameLib@@UAEPAXI@Z 10009d00 f i ServerStage.obj
 0001:00008d20       ??1CException@Win32@OnlineGameLib@@UAE@XZ 10009d20 f i ServerStage.obj
 0001:00008da0       ?_Save@?$_Tidyfac@V?$numpunct@D@std@@@std@@SAPAV?$numpunct@D@2@PAV32@@Z 10009da0 f i ServerStage.obj
 0001:00008e20       ?_Tidy@?$_Tidyfac@V?$num_put@DV?$ostreambuf_iterator@DU?$char_traits@D@std@@@std@@@std@@@std@@SAXXZ 10009e20 f i ServerStage.obj
 0001:00008ec0       ?_Tidy@?$_Tidyfac@V?$numpunct@D@std@@@std@@SAXXZ 10009ec0 f i ServerStage.obj
 0001:00008fb0       ?id@?$numpunct@D@std@@$E   10009fb0 f i ServerStage.obj
 0001:00008fc0       ?id@?$num_put@DV?$ostreambuf_iterator@DU?$char_traits@D@std@@@$E 10009fc0 f i ServerStage.obj
 0001:00008fd0       ??_ECIOCPServer@@W7AEPAXI@Z 10009fd0 f i ServerStage.obj
 0001:00008fd8       _DeleteCriticalSection@4   10009fd8 f   kernel32:KERNEL32.dll
 0001:00008fde       _LeaveCriticalSection@4    10009fde f   kernel32:KERNEL32.dll
 0001:00008fe4       _EnterCriticalSection@4    10009fe4 f   kernel32:KERNEL32.dll
 0001:00008fea       _GetLastError@0            10009fea f   kernel32:KERNEL32.dll
 0001:00008ff0       _InitializeCriticalSection@4 10009ff0 f   kernel32:KERNEL32.dll
 0001:00008ff6       _TerminateThread@8         10009ff6 f   kernel32:KERNEL32.dll
 0001:00008ffc       _WaitForSingleObject@8     10009ffc f   kernel32:KERNEL32.dll
 0001:00009002       _InterlockedExchange@8     1000a002 f   kernel32:KERNEL32.dll
 0001:00009008       _InterlockedIncrement@4    1000a008 f   kernel32:KERNEL32.dll
 0001:0000900e       _InterlockedDecrement@4    1000a00e f   kernel32:KERNEL32.dll
 0001:00009014       _Sleep@4                   1000a014 f   kernel32:KERNEL32.dll
 0001:00009020       ??0CSocketServer@Win32@OnlineGameLib@@IAE@IIII_N0@Z 1000a020 f   common:SocketServer.obj
 0001:00009130       ?OnConnectionClosing@CSocketServer@Win32@OnlineGameLib@@EAE_NPAVSocket@123@@Z 1000a130 f i common:SocketServer.obj
 0001:00009140       ?OnConnectionClosed@CSocketServer@Win32@OnlineGameLib@@EAEXPAVSocket@123@@Z 1000a140 f i common:SocketServer.obj
 0001:00009180       ??_ECSocketServer@Win32@OnlineGameLib@@UAEPAXI@Z 1000a180 f i common:SocketServer.obj
 0001:00009180       ??_GCSocketServer@Win32@OnlineGameLib@@UAEPAXI@Z 1000a180 f i common:SocketServer.obj
 0001:000091a0       ??1CManualResetEvent@Win32@OnlineGameLib@@UAE@XZ 1000a1a0 f i common:SocketServer.obj
 0001:000091b0       ??1CSocketServer@Win32@OnlineGameLib@@UAE@XZ 1000a1b0 f   common:SocketServer.obj
 0001:00009270       ?Open@CSocketServer@Win32@OnlineGameLib@@IAEXKG@Z 1000a270 f   common:SocketServer.obj
 0001:00009290       ?ReleaseSockets@CSocketServer@Win32@OnlineGameLib@@AAEXXZ 1000a290 f   common:SocketServer.obj
 0001:000093d0       ?StartAcceptingConnections@CSocketServer@Win32@OnlineGameLib@@QAEXXZ 1000a3d0 f   common:SocketServer.obj
 0001:00009410       ?StopAcceptingConnections@CSocketServer@Win32@OnlineGameLib@@QAEXXZ 1000a410 f   common:SocketServer.obj
 0001:00009520       ?InitiateShutdown@CSocketServer@Win32@OnlineGameLib@@QAEXXZ 1000a520 f   common:SocketServer.obj
 0001:000095b0       ?WaitForShutdownToComplete@CSocketServer@Win32@OnlineGameLib@@QAEXXZ 1000a5b0 f   common:SocketServer.obj
 0001:000095d0       ?CreateListeningSocket@CSocketServer@Win32@OnlineGameLib@@EAEIKG@Z 1000a5d0 f   common:SocketServer.obj
 0001:00009700       ?CreateWorkerThread@CSocketServer@Win32@OnlineGameLib@@EAEPAVWorkerThread@123@AAVCIOCompletionPort@23@@Z 1000a700 f   common:SocketServer.obj
 0001:00009770       ?Run@CSocketServer@Win32@OnlineGameLib@@MAEHXZ 1000a770 f   common:SocketServer.obj
 0001:00009c40       ?AllocateSocket@CSocketServer@Win32@OnlineGameLib@@AAEPAVSocket@123@I@Z 1000ac40 f   common:SocketServer.obj
 0001:00009d20       ?ReleaseSocket@CSocketServer@Win32@OnlineGameLib@@AAEXPAVSocket@123@@Z 1000ad20 f   common:SocketServer.obj
 0001:00009e90       ?DestroySocket@CSocketServer@Win32@OnlineGameLib@@AAEXPAVSocket@123@@Z 1000ae90 f   common:SocketServer.obj
 0001:00009ec0       ?OnError@CSocketServer@Win32@OnlineGameLib@@EAEXABV?$basic_string@DU?$char_traits@D@std@@V?$allocator@D@2@@std@@@Z 1000aec0 f   common:SocketServer.obj
 0001:00009ed0       ?WriteCompleted@CSocketServer@Win32@OnlineGameLib@@EAEXPAVSocket@123@PAVCIOBuffer@23@@Z 1000aed0 f   common:SocketServer.obj
 0001:00009fc0       ?SetServerDataPtr@CSocketServer@Win32@OnlineGameLib@@KAXPAVSocket@123@PAX@Z 1000afc0 f   common:SocketServer.obj
 0001:00009fe0       ?GetServerDataPtr@CSocketServer@Win32@OnlineGameLib@@KAPAXPBVSocket@123@@Z 1000afe0 f   common:SocketServer.obj
 0001:0000a000       ?WriteCompleted@CSocketServer@Win32@OnlineGameLib@@KAXPAVSocket@123@@Z 1000b000 f   common:SocketServer.obj
 0001:0000a010       ?FilterSocketShutdown@CSocketServer@Win32@OnlineGameLib@@EAE_NPAVSocket@123@H@Z 1000b010 f   common:SocketServer.obj
 0001:0000a020       ?FilterSocketClose@CSocketServer@Win32@OnlineGameLib@@EAE_NPAVSocket@123@@Z 1000b020 f   common:SocketServer.obj
 0001:0000a030       ?PostIoOperation@CSocketServer@Win32@OnlineGameLib@@AAEXPAVSocket@123@PAVCIOBuffer@23@W4enumIO_Operation@123@@Z 1000b030 f   common:SocketServer.obj
 0001:0000a070       ?GetServer@CSocketServer@Win32@OnlineGameLib@@KAAAV123@PAVSocket@123@@Z 1000b070 f   common:SocketServer.obj
 0001:0000a080       ?OnConnectionError@CSocketServer@Win32@OnlineGameLib@@EAEXW4enumConnectionErrorSource@123@PAVSocket@123@PAVCIOBuffer@23@K@Z 1000b080 f   common:SocketServer.obj
 0001:0000a0d0       ??0Socket@CSocketServer@Win32@OnlineGameLib@@AAE@AAV123@I_N@Z 1000b0d0 f   common:SocketServer.obj
 0001:0000a230       ??1UserData@CSocketServer@Win32@OnlineGameLib@@QAE@XZ 1000b230 f i common:SocketServer.obj
 0001:0000a240       ??1ServerData@CSocketServer@Win32@OnlineGameLib@@QAE@XZ 1000b240 f i common:SocketServer.obj
 0001:0000a250       ??1Socket@CSocketServer@Win32@OnlineGameLib@@AAE@XZ 1000b250 f   common:SocketServer.obj
 0001:0000a360       ?Attach@Socket@CSocketServer@Win32@OnlineGameLib@@AAEXI@Z 1000b360 f   common:SocketServer.obj
 0001:0000a460       ?AddRef@Socket@CSocketServer@Win32@OnlineGameLib@@QAEXXZ 1000b460 f   common:SocketServer.obj
 0001:0000a470       ?Release@Socket@CSocketServer@Win32@OnlineGameLib@@QAEXXZ 1000b470 f   common:SocketServer.obj
 0001:0000a4d0       ?Shutdown@Socket@CSocketServer@Win32@OnlineGameLib@@QAEXH@Z 1000b4d0 f   common:SocketServer.obj
 0001:0000a620       ?IsConnected@Socket@CSocketServer@Win32@OnlineGameLib@@QBE_NH@Z 1000b620 f   common:SocketServer.obj
 0001:0000a670       ?Close@Socket@CSocketServer@Win32@OnlineGameLib@@QAEXXZ 1000b670 f   common:SocketServer.obj
 0001:0000a6e0       ?WritePending@Socket@CSocketServer@Win32@OnlineGameLib@@AAE_NXZ 1000b6e0 f   common:SocketServer.obj
 0001:0000a700       ?WriteCompleted@Socket@CSocketServer@Win32@OnlineGameLib@@AAEXXZ 1000b700 f   common:SocketServer.obj
 0001:0000a730       ?AbortiveClose@Socket@CSocketServer@Win32@OnlineGameLib@@QAEXXZ 1000b730 f   common:SocketServer.obj
 0001:0000a840       ?OnClientClose@Socket@CSocketServer@Win32@OnlineGameLib@@AAEXXZ 1000b840 f   common:SocketServer.obj
 0001:0000a870       ?OnConnectionReset@Socket@CSocketServer@Win32@OnlineGameLib@@AAEXXZ 1000b870 f   common:SocketServer.obj
 0001:0000a8e0       ?InternalClose@Socket@CSocketServer@Win32@OnlineGameLib@@AAEXXZ 1000b8e0 f   common:SocketServer.obj
 0001:0000aa00       ?Read@Socket@CSocketServer@Win32@OnlineGameLib@@QAE_NPAVCIOBuffer@34@_N@Z 1000ba00 f   common:SocketServer.obj
 0001:0000ab40       ?Write@Socket@CSocketServer@Win32@OnlineGameLib@@QAE_NPBDI_N@Z 1000bb40 f   common:SocketServer.obj
 0001:0000ab60       ?Write@Socket@CSocketServer@Win32@OnlineGameLib@@QAE_NPBEI_N@Z 1000bb60 f   common:SocketServer.obj
 0001:0000adf0       ?Write@Socket@CSocketServer@Win32@OnlineGameLib@@QAE_NPAVCIOBuffer@34@_N@Z 1000bdf0 f   common:SocketServer.obj
 0001:0000b060       ?GetSequenceNumber@Socket@CSocketServer@Win32@OnlineGameLib@@AAEJW4enumSequenceType@1234@@Z 1000c060 f   common:SocketServer.obj
 0001:0000b080       ?GetNextBuffer@Socket@CSocketServer@Win32@OnlineGameLib@@AAEPAVCIOBuffer@34@PAV534@@Z 1000c080 f   common:SocketServer.obj
 0001:0000b0b0       ?IsValid@Socket@CSocketServer@Win32@OnlineGameLib@@AAE_NXZ 1000c0b0 f   common:SocketServer.obj
 0001:0000b0e0       ?OnConnectionError@Socket@CSocketServer@Win32@OnlineGameLib@@AAEXW4enumConnectionErrorSource@234@PAVCIOBuffer@34@K@Z 1000c0e0 f   common:SocketServer.obj
 0001:0000b150       ??0SequenceData@Socket@CSocketServer@Win32@OnlineGameLib@@QAE@AAVCCriticalSection@34@@Z 1000c150 f   common:SocketServer.obj
 0001:0000b180       ?Reset@SequenceData@Socket@CSocketServer@Win32@OnlineGameLib@@QAEXXZ 1000c180 f   common:SocketServer.obj
 0001:0000b1a0       ??0WorkerThread@CSocketServer@Win32@OnlineGameLib@@QAE@AAV123@AAVCIOCompletionPort@23@@Z 1000c1a0 f   common:SocketServer.obj
 0001:0000b200       ??_GWorkerThread@CSocketServer@Win32@OnlineGameLib@@UAEPAXI@Z 1000c200 f i common:SocketServer.obj
 0001:0000b200       ??_EWorkerThread@CSocketServer@Win32@OnlineGameLib@@UAEPAXI@Z 1000c200 f i common:SocketServer.obj
 0001:0000b220       ??1WorkerThread@CSocketServer@Win32@OnlineGameLib@@UAE@XZ 1000c220 f   common:SocketServer.obj
 0001:0000b290       ?Run@WorkerThread@CSocketServer@Win32@OnlineGameLib@@MAEHXZ 1000c290 f   common:SocketServer.obj
 0001:0000b530       ?InitiateShutdown@WorkerThread@CSocketServer@Win32@OnlineGameLib@@QAEXXZ 1000c530 f   common:SocketServer.obj
 0001:0000b540       ?WaitForShutdownToComplete@WorkerThread@CSocketServer@Win32@OnlineGameLib@@QAEXXZ 1000c540 f   common:SocketServer.obj
 0001:0000b560       ?HandleOperation@WorkerThread@CSocketServer@Win32@OnlineGameLib@@MAEXPAVSocket@234@PAVCIOBuffer@34@K_N@Z 1000c560 f   common:SocketServer.obj
 0001:0000b7e0       ?ZeroByteRead@WorkerThread@CSocketServer@Win32@OnlineGameLib@@ABEXPAVSocket@234@PAVCIOBuffer@34@@Z 1000c7e0 f   common:SocketServer.obj
 0001:0000b870       ?Read@WorkerThread@CSocketServer@Win32@OnlineGameLib@@ABEXPAVSocket@234@PAVCIOBuffer@34@@Z 1000c870 f   common:SocketServer.obj
 0001:0000b960       ?Write@WorkerThread@CSocketServer@Win32@OnlineGameLib@@ABEXPAVSocket@234@PAVCIOBuffer@34@@Z 1000c960 f   common:SocketServer.obj
 0001:0000ba50       ??1?$vector@PAVWorkerThread@CSocketServer@Win32@OnlineGameLib@@V?$allocator@PAVWorkerThread@CSocketServer@Win32@OnlineGameLib@@@std@@@std@@QAE@XZ 1000ca50 f i common:SocketServer.obj
 0001:0000ba80       ?begin@?$_Tree@IU?$pair@$$CBIPAVCIOBuffer@Win32@OnlineGameLib@@@std@@U_Kfn@?$map@IPAVCIOBuffer@Win32@OnlineGameLib@@U?$less@I@std@@V?$allocator@PAVCIOBuffer@Win32@OnlineGameLib@@@5@@2@U?$less@I@2@V?$allocator@PAVCIOBuffer@Win32@OnlineGameLib@@@2@@std@@QAE?AViterator@12@XZ 1000ca80 f i common:SocketServer.obj
 0001:0000ba90       ?erase@?$_Tree@IU?$pair@$$CBIPAVCIOBuffer@Win32@OnlineGameLib@@@std@@U_Kfn@?$map@IPAVCIOBuffer@Win32@OnlineGameLib@@U?$less@I@std@@V?$allocator@PAVCIOBuffer@Win32@OnlineGameLib@@@5@@2@U?$less@I@2@V?$allocator@PAVCIOBuffer@Win32@OnlineGameLib@@@2@@std@@QAE?AViterator@12@V312@0@Z 1000ca90 f i common:SocketServer.obj
 0001:0000bbc0       ?size@?$vector@PAVWorkerThread@CSocketServer@Win32@OnlineGameLib@@V?$allocator@PAVWorkerThread@CSocketServer@Win32@OnlineGameLib@@@std@@@std@@QBEIXZ 1000cbc0 f i common:SocketServer.obj
 0001:0000bbe0       ?insert@?$vector@PAVWorkerThread@CSocketServer@Win32@OnlineGameLib@@V?$allocator@PAVWorkerThread@CSocketServer@Win32@OnlineGameLib@@@std@@@std@@QAEPAPAVWorkerThread@CSocketServer@Win32@OnlineGameLib@@PAPAV3456@ABQAV3456@@Z 1000cbe0 f i common:SocketServer.obj
 0001:0000bd80       ?_Destroy@?$vector@PAVWorkerThread@CSocketServer@Win32@OnlineGameLib@@V?$allocator@PAVWorkerThread@CSocketServer@Win32@OnlineGameLib@@@std@@@std@@IAEXPAPAVWorkerThread@CSocketServer@Win32@OnlineGameLib@@0@Z 1000cd80 f i common:SocketServer.obj
 0001:0000bd90       ?_Ucopy@?$vector@PAVWorkerThread@CSocketServer@Win32@OnlineGameLib@@V?$allocator@PAVWorkerThread@CSocketServer@Win32@OnlineGameLib@@@std@@@std@@IAEPAPAVWorkerThread@CSocketServer@Win32@OnlineGameLib@@PBQAV3456@0PAPAV3456@@Z 1000cd90 f i common:SocketServer.obj
 0001:0000bdc0       ?erase@?$_Tree@IU?$pair@$$CBIPAVCIOBuffer@Win32@OnlineGameLib@@@std@@U_Kfn@?$map@IPAVCIOBuffer@Win32@OnlineGameLib@@U?$less@I@std@@V?$allocator@PAVCIOBuffer@Win32@OnlineGameLib@@@5@@2@U?$less@I@2@V?$allocator@PAVCIOBuffer@Win32@OnlineGameLib@@@2@@std@@QAE?AViterator@12@V312@@Z 1000cdc0 f i common:SocketServer.obj
 0001:0000c2e0       ?_Erase@?$_Tree@IU?$pair@$$CBIPAVCIOBuffer@Win32@OnlineGameLib@@@std@@U_Kfn@?$map@IPAVCIOBuffer@Win32@OnlineGameLib@@U?$less@I@std@@V?$allocator@PAVCIOBuffer@Win32@OnlineGameLib@@@5@@2@U?$less@I@2@V?$allocator@PAVCIOBuffer@Win32@OnlineGameLib@@@2@@std@@IAEXPAU_Node@12@@Z 1000d2e0 f i common:SocketServer.obj
 0001:0000c370       ?_Ufill@?$vector@PAVWorkerThread@CSocketServer@Win32@OnlineGameLib@@V?$allocator@PAVWorkerThread@CSocketServer@Win32@OnlineGameLib@@@std@@@std@@IAEXPAPAVWorkerThread@CSocketServer@Win32@OnlineGameLib@@IABQAV3456@@Z 1000d370 f i common:SocketServer.obj
 0001:0000c3a0       ?_Inc@const_iterator@?$_Tree@IU?$pair@$$CBIPAVCIOBuffer@Win32@OnlineGameLib@@@std@@U_Kfn@?$map@IPAVCIOBuffer@Win32@OnlineGameLib@@U?$less@I@std@@V?$allocator@PAVCIOBuffer@Win32@OnlineGameLib@@@5@@2@U?$less@I@2@V?$allocator@PAVCIOBuffer@Win32@OnlineGameLib@@@2@@std@@QAEXXZ 1000d3a0 f i common:SocketServer.obj
 0001:0000c450       ?_Construct@std@@YAXPAPAVWorkerThread@CSocketServer@Win32@OnlineGameLib@@ABQAV2345@@Z 1000d450 f i common:SocketServer.obj
 0001:0000c4a0       ??_ECSocketServer@Win32@OnlineGameLib@@W7AEPAXI@Z 1000d4a0 f i common:SocketServer.obj
 0001:0000c4b0       ??0CEvent@Win32@OnlineGameLib@@QAE@PAU_SECURITY_ATTRIBUTES@@_N1@Z 1000d4b0 f   common:Event.obj
 0001:0000c5c0       ??_GCEvent@Win32@OnlineGameLib@@UAEPAXI@Z 1000d5c0 f i common:Event.obj
 0001:0000c5c0       ??_ECEvent@Win32@OnlineGameLib@@UAEPAXI@Z 1000d5c0 f i common:Event.obj
 0001:0000c5e0       ??0CEvent@Win32@OnlineGameLib@@QAE@PAU_SECURITY_ATTRIBUTES@@_N1PBD@Z 1000d5e0 f   common:Event.obj
 0001:0000c610       ??1CEvent@Win32@OnlineGameLib@@UAE@XZ 1000d610 f   common:Event.obj
 0001:0000c630       ?Wait@CEvent@Win32@OnlineGameLib@@QBEXXZ 1000d630 f   common:Event.obj
 0001:0000c730       ?Wait@CEvent@Win32@OnlineGameLib@@QBE_NK@Z 1000d730 f   common:Event.obj
 0001:0000c820       ?Reset@CEvent@Win32@OnlineGameLib@@QAEXXZ 1000d820 f   common:Event.obj
 0001:0000c8f0       ?Set@CEvent@Win32@OnlineGameLib@@QAEXXZ 1000d8f0 f   common:Event.obj
 0001:0000c9c0       ?Pulse@CEvent@Win32@OnlineGameLib@@QAEXXZ 1000d9c0 f   common:Event.obj
 0001:0000cac0       ??0CIOBuffer@Win32@OnlineGameLib@@AAE@AAVAllocator@012@I@Z 1000dac0 f   common:IOBuffer.obj
 0001:0000cb50       ??1COpaqueUserData@OnlineGameLib@@IAE@XZ 1000db50 f i common:IOBuffer.obj
 0001:0000cb60       ??1CIOBuffer@Win32@OnlineGameLib@@AAE@XZ 1000db60 f   common:IOBuffer.obj
 0001:0000cbd0       ?Empty@CIOBuffer@Win32@OnlineGameLib@@QAEXXZ 1000dbd0 f   common:IOBuffer.obj
 0001:0000cbf0       ??2CIOBuffer@Win32@OnlineGameLib@@CAPAXII@Z 1000dbf0 f   common:IOBuffer.obj
 0001:0000cc00       ??3CIOBuffer@Win32@OnlineGameLib@@CAXPAXI@Z 1000dc00 f   common:IOBuffer.obj
 0001:0000cc10       ?SplitBuffer@CIOBuffer@Win32@OnlineGameLib@@QAEPAV123@I@Z 1000dc10 f   common:IOBuffer.obj
 0001:0000cc60       ?RemoveBuffer@CIOBuffer@Win32@OnlineGameLib@@QAEXI@Z 1000dc60 f   common:IOBuffer.obj
 0001:0000cc90       ?AllocateNewBuffer@CIOBuffer@Win32@OnlineGameLib@@QBEPAV123@XZ 1000dc90 f   common:IOBuffer.obj
 0001:0000cca0       ?AddData@CIOBuffer@Win32@OnlineGameLib@@QAEXQBDI@Z 1000dca0 f   common:IOBuffer.obj
 0001:0000cdc0       ?AddData@CIOBuffer@Win32@OnlineGameLib@@QAEXQBEI@Z 1000ddc0 f   common:IOBuffer.obj
 0001:0000cde0       ?AddData@CIOBuffer@Win32@OnlineGameLib@@QAEXE@Z 1000dde0 f   common:IOBuffer.obj
 0001:0000cdf0       ?Release@CIOBuffer@Win32@OnlineGameLib@@QAEXXZ 1000ddf0 f   common:IOBuffer.obj
 0001:0000cf10       ??0Allocator@CIOBuffer@Win32@OnlineGameLib@@QAE@II@Z 1000df10 f   common:IOBuffer.obj
 0001:0000cf50       ?OnBufferCreated@Allocator@CIOBuffer@Win32@OnlineGameLib@@EAEXXZ 1000df50 f i common:IOBuffer.obj
 0001:0000cf60       ?OnBufferAllocated@Allocator@CIOBuffer@Win32@OnlineGameLib@@EAEXXZ 1000df60 f i common:IOBuffer.obj
 0001:0000cf70       ?OnBufferReleased@Allocator@CIOBuffer@Win32@OnlineGameLib@@EAEXXZ 1000df70 f i common:IOBuffer.obj
 0001:0000cf80       ??_EAllocator@CIOBuffer@Win32@OnlineGameLib@@UAEPAXI@Z 1000df80 f i common:IOBuffer.obj
 0001:0000cf80       ??_GAllocator@CIOBuffer@Win32@OnlineGameLib@@UAEPAXI@Z 1000df80 f i common:IOBuffer.obj
 0001:0000cfa0       ??1Allocator@CIOBuffer@Win32@OnlineGameLib@@UAE@XZ 1000dfa0 f   common:IOBuffer.obj
 0001:0000d010       ?Allocate@Allocator@CIOBuffer@Win32@OnlineGameLib@@QAEPAV234@XZ 1000e010 f   common:IOBuffer.obj
 0001:0000d180       ?Release@Allocator@CIOBuffer@Win32@OnlineGameLib@@AAEXPAV234@@Z 1000e180 f   common:IOBuffer.obj
 0001:0000d300       ?DestroyBuffer@Allocator@CIOBuffer@Win32@OnlineGameLib@@AAEXPAV234@@Z 1000e300 f   common:IOBuffer.obj
 0001:0000d360       ?Flush@Allocator@CIOBuffer@Win32@OnlineGameLib@@IAEXXZ 1000e360 f   common:IOBuffer.obj
 0001:0000d410       ??0InOrderBufferList@CIOBuffer@Win32@OnlineGameLib@@QAE@AAVCCriticalSection@23@@Z 1000e410 f   common:IOBuffer.obj
 0001:0000d4e0       ?AddBuffer@InOrderBufferList@CIOBuffer@Win32@OnlineGameLib@@QAEXPAV234@@Z 1000e4e0 f   common:IOBuffer.obj
 0001:0000d550       ?ProcessAndGetNext@InOrderBufferList@CIOBuffer@Win32@OnlineGameLib@@QAEPAV234@XZ 1000e550 f   common:IOBuffer.obj
 0001:0000d5d0       ?GetNext@InOrderBufferList@CIOBuffer@Win32@OnlineGameLib@@QAEPAV234@XZ 1000e5d0 f   common:IOBuffer.obj
 0001:0000d640       ?GetNext@InOrderBufferList@CIOBuffer@Win32@OnlineGameLib@@QAEPAV234@PAV234@@Z 1000e640 f   common:IOBuffer.obj
 0001:0000d6f0       ?ProcessBuffer@InOrderBufferList@CIOBuffer@Win32@OnlineGameLib@@QAEXXZ 1000e6f0 f   common:IOBuffer.obj
 0001:0000d710       ?Reset@InOrderBufferList@CIOBuffer@Win32@OnlineGameLib@@QAEXXZ 1000e710 f   common:IOBuffer.obj
 0001:0000d720       ?insert@?$_Tree@IU?$pair@$$CBIPAVCIOBuffer@Win32@OnlineGameLib@@@std@@U_Kfn@?$map@IPAVCIOBuffer@Win32@OnlineGameLib@@U?$less@I@std@@V?$allocator@PAVCIOBuffer@Win32@OnlineGameLib@@@5@@2@U?$less@I@2@V?$allocator@PAVCIOBuffer@Win32@OnlineGameLib@@@2@@std@@QAE?AU?$pair@Viterator@?$_Tree@IU?$pair@$$CBIPAVCIOBuffer@Win32@OnlineGameLib@@@std@@U_Kfn@?$map@IPAVCIOBuffer@Win32@OnlineGameLib@@U?$less@I@std@@V?$allocator@PAVCIOBuffer@Win32@OnlineGameLib@@@5@@2@U?$less@I@2@V?$allocator@PAVCIOBuffer@Win32@OnlineGameLib@@@2@@std@@_N@2@ABU?$pair@$$CBIPAVCIOBuffer@Win32@OnlineGameLib@@@2@@Z 1000e720 f i common:IOBuffer.obj
 0001:0000d850       ?_Insert@?$_Tree@IU?$pair@$$CBIPAVCIOBuffer@Win32@OnlineGameLib@@@std@@U_Kfn@?$map@IPAVCIOBuffer@Win32@OnlineGameLib@@U?$less@I@std@@V?$allocator@PAVCIOBuffer@Win32@OnlineGameLib@@@5@@2@U?$less@I@2@V?$allocator@PAVCIOBuffer@Win32@OnlineGameLib@@@2@@std@@IAE?AViterator@12@PAU_Node@12@0ABU?$pair@$$CBIPAVCIOBuffer@Win32@OnlineGameLib@@@2@@Z 1000e850 f i common:IOBuffer.obj
 0001:0000db50       ?_Dec@const_iterator@?$_Tree@IU?$pair@$$CBIPAVCIOBuffer@Win32@OnlineGameLib@@@std@@U_Kfn@?$map@IPAVCIOBuffer@Win32@OnlineGameLib@@U?$less@I@std@@V?$allocator@PAVCIOBuffer@Win32@OnlineGameLib@@@5@@2@U?$less@I@2@V?$allocator@PAVCIOBuffer@Win32@OnlineGameLib@@@2@@std@@QAEXXZ 1000eb50 f i common:IOBuffer.obj
 0001:0000dc10       ?_Construct@std@@YAXPAU?$pair@$$CBIPAVCIOBuffer@Win32@OnlineGameLib@@@1@ABU21@@Z 1000ec10 f i common:IOBuffer.obj
 0001:0000dc60       ??0CWin32Exception@Win32@OnlineGameLib@@QAE@ABV?$basic_string@DU?$char_traits@D@std@@V?$allocator@D@2@@std@@K@Z 1000ec60 f   common:Win32Exception.obj
 0001:0000dd20       ??0CException@Win32@OnlineGameLib@@QAE@ABV?$basic_string@DU?$char_traits@D@std@@V?$allocator@D@2@@std@@0@Z 1000ed20 f   common:Exception.obj
 0001:0000de50       ?GetWhere@CException@Win32@OnlineGameLib@@UBE?AV?$basic_string@DU?$char_traits@D@std@@V?$allocator@D@2@@std@@XZ 1000ee50 f   common:Exception.obj
 0001:0000df80       ?GetMessageA@CException@Win32@OnlineGameLib@@UBE?AV?$basic_string@DU?$char_traits@D@std@@V?$allocator@D@2@@std@@XZ 1000ef80 f   common:Exception.obj
 0001:0000e0b0       ?MessageBoxA@CException@Win32@OnlineGameLib@@QBEXPAUHWND__@@@Z 1000f0b0 f   common:Exception.obj
 0001:0000e420       ?SetLogFileName@Win32@OnlineGameLib@@YAXABV?$basic_string@DU?$char_traits@D@std@@V?$allocator@D@2@@std@@@Z 1000f420 f   common:Utils.obj
 0001:0000e530       ?Message@Win32@OnlineGameLib@@YAXQBD@Z 1000f530 f   common:Utils.obj
 0001:0000e560       ?Output@Win32@OnlineGameLib@@YAXABV?$basic_string@DU?$char_traits@D@std@@V?$allocator@D@2@@std@@@Z 1000f560 f   common:Utils.obj
 0001:0000e570       ?Trace@Win32@OnlineGameLib@@YAXABV?$basic_string@DU?$char_traits@D@std@@V?$allocator@D@2@@std@@0@Z 1000f570 f   common:Utils.obj
 0001:0000e580       ?GetLastErrorMessage@Win32@OnlineGameLib@@YA?AV?$basic_string@DU?$char_traits@D@std@@V?$allocator@D@2@@std@@K@Z 1000f580 f   common:Utils.obj
 0001:0000e6a0       ?HexToString@Win32@OnlineGameLib@@YA?AV?$basic_string@DU?$char_traits@D@std@@V?$allocator@D@2@@std@@PBEI@Z 1000f6a0 f   common:Utils.obj
 0001:0000e830       ?StringToHex@Win32@OnlineGameLib@@YAXABV?$basic_string@DU?$char_traits@D@std@@V?$allocator@D@2@@std@@PAEI@Z 1000f830 f   common:Utils.obj
 0001:0000e970       ?HexStringToDWORD@Win32@OnlineGameLib@@YAKPBD@Z 1000f970 f   common:Utils.obj
 0001:0000e9d0       ?HashStr2ID@Win32@OnlineGameLib@@YAKQBD@Z 1000f9d0 f   common:Utils.obj
 0001:0000ea20       ?net_aton@Win32@OnlineGameLib@@YAKPBD@Z 1000fa20 f   common:Utils.obj
 0001:0000eab0       ?net_ntoa@Win32@OnlineGameLib@@YAPBDK@Z 1000fab0 f   common:Utils.obj
 0001:0000eaf0       ?GetCurrentDirectoryA@Win32@OnlineGameLib@@YA?AV?$basic_string@DU?$char_traits@D@std@@V?$allocator@D@2@@std@@XZ 1000faf0 f   common:Utils.obj
 0001:0000ec70       ?GetAppFullPath@Win32@OnlineGameLib@@YA?AV?$basic_string@DU?$char_traits@D@std@@V?$allocator@D@2@@std@@PAUHINSTANCE__@@@Z 1000fc70 f   common:Utils.obj
 0001:0000ee50       ?GetDateStamp@Win32@OnlineGameLib@@YA?AV?$basic_string@DU?$char_traits@D@std@@V?$allocator@D@2@@std@@XZ 1000fe50 f   common:Utils.obj
 0001:0000ef70       ?GetTimeStamp@Win32@OnlineGameLib@@YA?AV?$basic_string@DU?$char_traits@D@std@@V?$allocator@D@2@@std@@XZ 1000ff70 f   common:Utils.obj
 0001:0000f080       ?ToHex@Win32@OnlineGameLib@@YA?AV?$basic_string@DU?$char_traits@D@std@@V?$allocator@D@2@@std@@E@Z 10010080 f   common:Utils.obj
 0001:0000f160       ?DumpData@Win32@OnlineGameLib@@YA?AV?$basic_string@DU?$char_traits@D@std@@V?$allocator@D@2@@std@@QBEII@Z 10010160 f   common:Utils.obj
 0001:0000f500       ?GetComputerNameA@Win32@OnlineGameLib@@YA?AV?$basic_string@DU?$char_traits@D@std@@V?$allocator@D@2@@std@@XZ 10010500 f   common:Utils.obj
 0001:0000f750       ?GetModuleFileNameA@Win32@OnlineGameLib@@YA?AV?$basic_string@DU?$char_traits@D@std@@V?$allocator@D@2@@std@@PAUHINSTANCE__@@@Z 10010750 f   common:Utils.obj
 0001:0000f9b0       ?GetUserNameA@Win32@OnlineGameLib@@YA?AV?$basic_string@DU?$char_traits@D@std@@V?$allocator@D@2@@std@@XZ 100109b0 f   common:Utils.obj
 0001:0000fc10       ?StripLeading@Win32@OnlineGameLib@@YA?AV?$basic_string@DU?$char_traits@D@std@@V?$allocator@D@2@@std@@ABV34@D@Z 10010c10 f   common:Utils.obj
 0001:0000fcf0       ?StripTrailing@Win32@OnlineGameLib@@YA?AV?$basic_string@DU?$char_traits@D@std@@V?$allocator@D@2@@std@@ABV34@D@Z 10010cf0 f   common:Utils.obj
 0001:0000fd40       ?GetFileVersion@Win32@OnlineGameLib@@YA?AV?$basic_string@DU?$char_traits@D@std@@V?$allocator@D@2@@std@@XZ 10010d40 f   common:Utils.obj
 0001:00010020       ?GetLocalName@Win32@OnlineGameLib@@YA_NPADI@Z 10011020 f   common:Utils.obj
 0001:00010120       ?GetLocalAddress@Win32@OnlineGameLib@@YA_NPADIH@Z 10011120 f   common:Utils.obj
 0001:00010250       ?substr@?$basic_string@DU?$char_traits@D@std@@V?$allocator@D@2@@std@@QBE?AV12@II@Z 10011250 f i common:Utils.obj
 0001:000103e0       ??0?$basic_fstream@DU?$char_traits@D@std@@@std@@QAE@XZ 100113e0 f i common:Utils.obj
 0001:00010540       ?_Incref@facet@locale@std@@QAEXXZ 10011540 f i common:Utils.obj
 0001:00010570       ??0?$basic_ostream@DU?$char_traits@D@std@@@std@@QAE@PAV?$basic_streambuf@DU?$char_traits@D@std@@@1@_N1@Z 10011570 f i common:Utils.obj
 0001:00010630       ??1?$basic_fstream@DU?$char_traits@D@std@@@std@@UAE@XZ 10011630 f i common:Utils.obj
 0001:00010770       ?overflow@?$basic_filebuf@DU?$char_traits@D@std@@@std@@MAEHH@Z 10011770 f i common:Utils.obj
 0001:00010950       ?pbackfail@?$basic_filebuf@DU?$char_traits@D@std@@@std@@MAEHH@Z 10011950 f i common:Utils.obj
 0001:00010af0       ?underflow@?$basic_filebuf@DU?$char_traits@D@std@@@std@@MAEHXZ 10011af0 f i common:Utils.obj
 0001:00010b20       ?uflow@?$basic_filebuf@DU?$char_traits@D@std@@@std@@MAEHXZ 10011b20 f i common:Utils.obj
 0001:00010d10       ?seekoff@?$basic_filebuf@DU?$char_traits@D@std@@@std@@MAE?AV?$fpos@H@2@JW4seekdir@ios_base@2@H@Z 10011d10 f i common:Utils.obj
 0001:00010da0       ?seekpos@?$basic_filebuf@DU?$char_traits@D@std@@@std@@MAE?AV?$fpos@H@2@V32@H@Z 10011da0 f i common:Utils.obj
 0001:00010f30       ?setbuf@?$basic_filebuf@DU?$char_traits@D@std@@@std@@MAEPAV?$basic_streambuf@DU?$char_traits@D@std@@@2@PADH@Z 10011f30 f i common:Utils.obj
 0001:00010f60       ?sync@?$basic_filebuf@DU?$char_traits@D@std@@@std@@MAEHXZ 10011f60 f i common:Utils.obj
 0001:00010f80       ??1?$auto_ptr@D@std@@QAE@XZ 10011f80 f i common:Utils.obj
 0001:00010f90       ??1?$auto_ptr@E@std@@QAE@XZ 10011f90 f i common:Utils.obj
 0001:00010fa0       ??_E?$basic_fstream@DU?$char_traits@D@std@@@std@@UAEPAXI@Z 10011fa0 f i common:Utils.obj
 0001:00010fa0       ??_G?$basic_fstream@DU?$char_traits@D@std@@@std@@UAEPAXI@Z 10011fa0 f i common:Utils.obj
 0001:00010fd0       ??_E?$basic_filebuf@DU?$char_traits@D@std@@@std@@UAEPAXI@Z 10011fd0 f i common:Utils.obj
 0001:00010fd0       ??_G?$basic_filebuf@DU?$char_traits@D@std@@@std@@UAEPAXI@Z 10011fd0 f i common:Utils.obj
 0001:00010ff0       ??1?$basic_filebuf@DU?$char_traits@D@std@@@std@@UAE@XZ 10011ff0 f i common:Utils.obj
 0001:00011140       ?append@?$basic_string@DU?$char_traits@D@std@@V?$allocator@D@2@@std@@QAEAAV12@ID@Z 10012140 f i common:Utils.obj
 0001:00011210       ?init@?$basic_ios@DU?$char_traits@D@std@@@std@@IAEXPAV?$basic_streambuf@DU?$char_traits@D@std@@@2@_N@Z 10012210 f i common:Utils.obj
 0001:00011260       ?_Init@?$basic_streambuf@DU?$char_traits@D@std@@@std@@IAEXXZ 10012260 f i common:Utils.obj
 0001:000112c0       ?append@?$basic_string@DU?$char_traits@D@std@@V?$allocator@D@2@@std@@QAEAAV12@ABV12@II@Z 100122c0 f i common:Utils.obj
 0001:000113a0       ?append@?$basic_string@DU?$char_traits@D@std@@V?$allocator@D@2@@std@@QAEAAV12@PBDI@Z 100123a0 f i common:Utils.obj
 0001:00011460       ?_Freeze@?$basic_string@DU?$char_traits@D@std@@V?$allocator@D@2@@std@@AAEXXZ 10012460 f i common:Utils.obj
 0001:000114e0       ?_Init@?$basic_filebuf@DU?$char_traits@D@std@@@std@@IAEXPAU_iobuf@@W4_Initfl@12@@Z 100124e0 f i common:Utils.obj
 0001:000115c0       ??0locale@std@@QAE@XZ      100125c0 f i common:Utils.obj
 0001:00011640       ??0CThread@Win32@OnlineGameLib@@QAE@XZ 10012640 f   common:Thread.obj
 0001:00011650       ??_ECThread@Win32@OnlineGameLib@@UAEPAXI@Z 10012650 f i common:Thread.obj
 0001:00011650       ??_GCThread@Win32@OnlineGameLib@@UAEPAXI@Z 10012650 f i common:Thread.obj
 0001:00011670       ??1CThread@Win32@OnlineGameLib@@UAE@XZ 10012670 f   common:Thread.obj
 0001:00011690       ?GetHandle@CThread@Win32@OnlineGameLib@@QBEPAXXZ 10012690 f   common:Thread.obj
 0001:000116a0       ?Start@CThread@Win32@OnlineGameLib@@QAEXXZ 100126a0 f   common:Thread.obj
 0001:00011850       ?Wait@CThread@Win32@OnlineGameLib@@QBEXXZ 10012850 f   common:Thread.obj
 0001:00011950       ?Wait@CThread@Win32@OnlineGameLib@@QBE_NK@Z 10012950 f   common:Thread.obj
 0001:00011a40       ?ThreadFunction@CThread@Win32@OnlineGameLib@@CGIPAX@Z 10012a40 f   common:Thread.obj
 0001:00011ab0       ?Terminate@CThread@Win32@OnlineGameLib@@QAEXK@Z 10012ab0 f   common:Thread.obj
 0001:00011b10       ?KSG_DecodeEncode@@YAHIPAEPAI@Z 10012b10 f   common:KSG_EncodeDecode.obj
 0001:00011b70       ?KSG_DecodeEncode_ASM@@YAHIPAEPAI@Z 10012b70 f   common:KSG_EncodeDecode.obj
 0001:00011bd0       ??0CSocketAddress@Win32@OnlineGameLib@@QAE@PBUsockaddr@@@Z 10012bd0 f   common:SocketAddress.obj
 0001:00011db0       ?GetAsString@CSocketAddress@Win32@OnlineGameLib@@QBE?AV?$basic_string@DU?$char_traits@D@std@@V?$allocator@D@2@@std@@XZ 10012db0 f   common:SocketAddress.obj
 0001:00011ee0       ?ToString@Win32@OnlineGameLib@@YA?AV?$basic_string@DU?$char_traits@D@std@@V?$allocator@D@2@@std@@G@Z 10012ee0 f i common:SocketAddress.obj
 0001:000120e0       ??6?$basic_ostream@DU?$char_traits@D@std@@@std@@QAEAAV01@G@Z 100130e0 f i common:SocketAddress.obj
 0001:000123a0       ??0CIOCompletionPort@Win32@OnlineGameLib@@QAE@I@Z 100133a0 f   common:IOCompletionPort.obj
 0001:00012480       ??1CIOCompletionPort@Win32@OnlineGameLib@@QAE@XZ 10013480 f   common:IOCompletionPort.obj
 0001:000124a0       ?AssociateDevice@CIOCompletionPort@Win32@OnlineGameLib@@QAEXPAXK@Z 100134a0 f   common:IOCompletionPort.obj
 0001:00012580       ?PostStatus@CIOCompletionPort@Win32@OnlineGameLib@@QAEXKKPAU_OVERLAPPED@@@Z 10013580 f   common:IOCompletionPort.obj
 0001:00012660       ?GetStatus@CIOCompletionPort@Win32@OnlineGameLib@@QAEKPAK0PAPAU_OVERLAPPED@@@Z 10013660 f   common:IOCompletionPort.obj
 0001:00012690       ?GetStatus@CIOCompletionPort@Win32@OnlineGameLib@@QAEKPAK0PAPAU_OVERLAPPED@@K@Z 10013690 f   common:IOCompletionPort.obj
 0001:00012700       ??0CUsesWinsock@Win32@OnlineGameLib@@QAE@XZ 10013700 f   common:UsesWinsock.obj
 0001:000127d0       ??1CUsesWinsock@Win32@OnlineGameLib@@QAE@XZ 100137d0 f   common:UsesWinsock.obj
 0001:00012810       ??0CManualResetEvent@Win32@OnlineGameLib@@QAE@_N@Z 10013810 f   common:ManualResetEvent.obj
 0001:00012830       ??_GCManualResetEvent@Win32@OnlineGameLib@@UAEPAXI@Z 10013830 f i common:ManualResetEvent.obj
 0001:00012830       ??_ECManualResetEvent@Win32@OnlineGameLib@@UAEPAXI@Z 10013830 f i common:ManualResetEvent.obj
 0001:00012850       ??0CManualResetEvent@Win32@OnlineGameLib@@QAE@PBD_N@Z 10013850 f   common:ManualResetEvent.obj
 0001:00012880       ??0CNodeList@OnlineGameLib@@QAE@XZ 10013880 f   common:NodeList.obj
 0001:00012890       ?PushNode@CNodeList@OnlineGameLib@@QAEXPAVNode@12@@Z 10013890 f   common:NodeList.obj
 0001:000128c0       ?PopNode@CNodeList@OnlineGameLib@@QAEPAVNode@12@XZ 100138c0 f   common:NodeList.obj
 0001:000128e0       ?RemoveNode@CNodeList@OnlineGameLib@@AAEXPAVNode@12@@Z 100138e0 f   common:NodeList.obj
 0001:00012900       ??0Node@CNodeList@OnlineGameLib@@IAE@XZ 10013900 f   common:NodeList.obj
 0001:00012910       ??1Node@CNodeList@OnlineGameLib@@IAE@XZ 10013910 f   common:NodeList.obj
 0001:00012970       ?AddToList@Node@CNodeList@OnlineGameLib@@QAEXPAV23@@Z 10013970 f   common:NodeList.obj
 0001:00012980       ?RemoveFromList@Node@CNodeList@OnlineGameLib@@QAEXXZ 10013980 f   common:NodeList.obj
 0001:00012990       ?Unlink@Node@CNodeList@OnlineGameLib@@AAEXXZ 10013990 f   common:NodeList.obj
 0001:000129c0       ??0CSocket@Win32@OnlineGameLib@@QAE@XZ 100139c0 f   common:Socket.obj
 0001:000129d0       ??0CSocket@Win32@OnlineGameLib@@QAE@I@Z 100139d0 f   common:Socket.obj
 0001:00012aa0       ??1Exception@CSocket@Win32@OnlineGameLib@@UAE@XZ 10013aa0 f i common:Socket.obj
 0001:00012b20       ??0Exception@CSocket@Win32@OnlineGameLib@@QAE@ABV0123@@Z 10013b20 f i common:Socket.obj
 0001:00012c60       ??_GException@CSocket@Win32@OnlineGameLib@@UAEPAXI@Z 10013c60 f i common:Socket.obj
 0001:00012c60       ??_EException@CSocket@Win32@OnlineGameLib@@UAEPAXI@Z 10013c60 f i common:Socket.obj
 0001:00012c80       ??1CSocket@Win32@OnlineGameLib@@QAE@XZ 10013c80 f   common:Socket.obj
 0001:00012cd0       ?Attach@CSocket@Win32@OnlineGameLib@@QAEXI@Z 10013cd0 f   common:Socket.obj
 0001:00012cf0       ?Detatch@CSocket@Win32@OnlineGameLib@@QAEIXZ 10013cf0 f   common:Socket.obj
 0001:00012d00       ?Close@CSocket@Win32@OnlineGameLib@@QAEXXZ 10013d00 f   common:Socket.obj
 0001:00012dd0       ?AbortiveClose@CSocket@Win32@OnlineGameLib@@QAEXXZ 10013dd0 f   common:Socket.obj
 0001:00012ec0       ?Shutdown@CSocket@Win32@OnlineGameLib@@QAEXH@Z 10013ec0 f   common:Socket.obj
 0001:00012f90       ?Listen@CSocket@Win32@OnlineGameLib@@QAEXH@Z 10013f90 f   common:Socket.obj
 0001:00013060       ?Bind@CSocket@Win32@OnlineGameLib@@QAEXABUsockaddr_in@@@Z 10014060 f   common:Socket.obj
 0001:00013130       ?Bind@CSocket@Win32@OnlineGameLib@@QAEXABUsockaddr@@I@Z 10014130 f   common:Socket.obj
 0001:00013200       ?Connect@CSocket@Win32@OnlineGameLib@@QAEXABUsockaddr_in@@@Z 10014200 f   common:Socket.obj
 0001:000132d0       ?Connect@CSocket@Win32@OnlineGameLib@@QAEXABUsockaddr@@I@Z 100142d0 f   common:Socket.obj
 0001:000133a0       ??0InternetAddress@CSocket@Win32@OnlineGameLib@@QAE@KG@Z 100143a0 f   common:Socket.obj
 0001:000133d0       ??0InternetAddress@CSocket@Win32@OnlineGameLib@@QAE@ABV?$basic_string@DU?$char_traits@D@std@@V?$allocator@D@2@@std@@G@Z 100143d0 f   common:Socket.obj
 0001:00013410       ??0Exception@CSocket@Win32@OnlineGameLib@@AAE@ABV?$basic_string@DU?$char_traits@D@std@@V?$allocator@D@2@@std@@K@Z 10014410 f   common:Socket.obj
 0001:00013460       ??2@YAPAXI@Z               10014460 f   LIBCMT:new.obj
 0001:0001346e       ??3@YAXPAX@Z               1001446e f   LIBCMT:delete.obj
 0001:00013479       ?_JumpToContinuation@@YGXPAXPAUEHRegistrationNode@@@Z 10014479 f   LIBCMT:trnsctrl.obj
 0001:000134ad       ?_CallMemberFunction0@@YGXPAX0@Z 100144ad f   LIBCMT:trnsctrl.obj
 0001:000134b4       ?_CallMemberFunction1@@YGXPAX00@Z 100144b4 f   LIBCMT:trnsctrl.obj
 0001:000134bb       ?_CallMemberFunction2@@YGXPAX00H@Z 100144bb f   LIBCMT:trnsctrl.obj
 0001:000134c2       ?_UnwindNestedFrames@@YGXPAUEHRegistrationNode@@PAUEHExceptionRecord@@@Z 100144c2 f   LIBCMT:trnsctrl.obj
 0001:00013511       ___CxxFrameHandler         10014511 f   LIBCMT:trnsctrl.obj
 0001:00013547       ___CxxLongjmpUnwind@4      10014547 f   LIBCMT:trnsctrl.obj
 0001:00013561       ?_CallCatchBlock2@@YAPAXPAUEHRegistrationNode@@PBU_s_FuncInfo@@PAXHK@Z 10014561 f   LIBCMT:trnsctrl.obj
 0001:000135da       ?_CallSETranslator@@YAHPAUEHExceptionRecord@@PAUEHRegistrationNode@@PAX2PBU_s_FuncInfo@@H1@Z 100145da f   LIBCMT:trnsctrl.obj
 0001:00013705       ?_GetRangeOfTrysToCheck@@YAPBU_s_TryBlockMapEntry@@PBU_s_FuncInfo@@HHPAI1@Z 10014705 f   LIBCMT:trnsctrl.obj
 0001:00013780       __global_unwind2           10014780 f   LIBCMT:exsup.obj
 0001:000137c2       __local_unwind2            100147c2 f   LIBCMT:exsup.obj
 0001:0001381a       __NLG_Return2              1001481a f   LIBCMT:exsup.obj
 0001:0001382a       __abnormal_termination     1001482a f   LIBCMT:exsup.obj
 0001:0001384d       __NLG_Notify1              1001484d f   LIBCMT:exsup.obj
 0001:00013856       __NLG_Notify               10014856 f   LIBCMT:exsup.obj
 0001:00013869       __NLG_Dispatch             10014869 f   LIBCMT:exsup.obj
 0001:0001386e       _time                      1001486e f   LIBCMT:time.obj
 0001:0001394a       __purecall                 1001494a f   LIBCMT:purevirt.obj
 0001:00013953       ??1type_info@@UAE@XZ       10014953 f   LIBCMT:typinfo.obj
 0001:0001397c       ??_Etype_info@@UAEPAXI@Z   1001497c f i LIBCMT:typinfo.obj
 0001:0001397c       ??_Gtype_info@@UAEPAXI@Z   1001497c f i LIBCMT:typinfo.obj
 0001:00013998       ??8type_info@@QBEHABV0@@Z  10014998 f   LIBCMT:typinfo.obj
 0001:000139b3       ??9type_info@@QBEHABV0@@Z  100149b3 f   LIBCMT:typinfo.obj
 0001:000139cf       ?before@type_info@@QBEHABV1@@Z 100149cf f   LIBCMT:typinfo.obj
 0001:000139ee       ?raw_name@type_info@@QBEPBDXZ 100149ee f   LIBCMT:typinfo.obj
 0001:000139f2       ??0type_info@@AAE@ABV0@@Z  100149f2 f   LIBCMT:typinfo.obj
 0001:000139fd       ??4type_info@@AAEAAV0@ABV0@@Z 100149fd f   LIBCMT:typinfo.obj
 0001:00013a02       __beginthreadex            10014a02 f   LIBCMT:threadex.obj
 0001:00013b09       __endthreadex              10014b09 f   LIBCMT:threadex.obj
 0001:00013b3b       __CxxThrowException@8      10014b3b f   LIBCMT:throw.obj
 0001:00013b80       _memmove                   10014b80 f   LIBCMT:memmove.obj
 0001:00013eb5       ??0exception@@QAE@XZ       10014eb5 f   LIBCMT:stdexcpt.obj
 0001:00013ec6       ??_Eexception@@UAEPAXI@Z   10014ec6 f i LIBCMT:stdexcpt.obj
 0001:00013ec6       ??_Gexception@@UAEPAXI@Z   10014ec6 f i LIBCMT:stdexcpt.obj
 0001:00013ee2       ??0exception@@QAE@ABQBD@Z  10014ee2 f   LIBCMT:stdexcpt.obj
 0001:00013f1f       ??0exception@@QAE@ABV0@@Z  10014f1f f   LIBCMT:stdexcpt.obj
 0001:00013f69       ??4exception@@QAEAAV0@ABV0@@Z 10014f69 f   LIBCMT:stdexcpt.obj
 0001:00013f88       ??1exception@@UAE@XZ       10014f88 f   LIBCMT:stdexcpt.obj
 0001:00013f9e       ?what@exception@@UBEPBDXZ  10014f9e f   LIBCMT:stdexcpt.obj
 0001:00013fab       __onexit                   10014fab f   LIBCMT:onexit.obj
 0001:00014029       _atexit                    10015029 f   LIBCMT:onexit.obj
 0001:0001403b       ___onexitinit              1001503b f   LIBCMT:onexit.obj
 0001:0001406a       _sprintf                   1001506a f   LIBCMT:sprintf.obj
 0001:000140bc       __fpmath                   100150bc f   LIBCMT:fpinit.obj
 0001:000140d3       __fpclear                  100150d3 f   LIBCMT:fpinit.obj
 0001:000140d4       __cfltcvt_init             100150d4 f   LIBCMT:fpinit.obj
 0001:0001410c       ___setfflag                1001510c f   LIBCMT:fpinit.obj
 0001:00014120       _memchr                    10015120 f   LIBCMT:memchr.obj
 0001:000141c5       _localeconv                100151c5 f   LIBCMT:lconv.obj
 0001:000141d0       _strcspn                   100151d0 f   LIBCMT:strcspn.obj
 0001:0001420e       __CRT_INIT@12              1001520e f   LIBCMT:dllcrt0.obj
 0001:000142e7       __DllMainCRTStartup@12     100152e7 f   LIBCMT:dllcrt0.obj
 0001:00014384       __amsg_exit                10015384 f   LIBCMT:dllcrt0.obj
 0001:000143b7       _fclose                    100153b7 f   LIBCMT:fclose.obj
 0001:000143e8       __fclose_lk                100153e8 f   LIBCMT:fclose.obj
 0001:00014434       __toupper                  10015434 f   LIBCMT:toupper.obj
 0001:0001443c       _toupper                   1001543c f   LIBCMT:toupper.obj
 0001:000144ab       __toupper_lk               100154ab f   LIBCMT:toupper.obj
 0001:00014577       _isalpha                   10015577 f   LIBCMT:_ctype.obj
 0001:000145a5       _isupper                   100155a5 f   LIBCMT:_ctype.obj
 0001:000145cd       _islower                   100155cd f   LIBCMT:_ctype.obj
 0001:000145f5       _isdigit                   100155f5 f   LIBCMT:_ctype.obj
 0001:0001461d       _isxdigit                  1001561d f   LIBCMT:_ctype.obj
 0001:0001464a       _isspace                   1001564a f   LIBCMT:_ctype.obj
 0001:00014672       _ispunct                   10015672 f   LIBCMT:_ctype.obj
 0001:0001469a       _isalnum                   1001569a f   LIBCMT:_ctype.obj
 0001:000146c8       _isprint                   100156c8 f   LIBCMT:_ctype.obj
 0001:000146f6       _isgraph                   100156f6 f   LIBCMT:_ctype.obj
 0001:00014724       _iscntrl                   10015724 f   LIBCMT:_ctype.obj
 0001:0001474c       ___isascii                 1001574c f   LIBCMT:_ctype.obj
 0001:00014759       ___toascii                 10015759 f   LIBCMT:_ctype.obj
 0001:00014761       ___iscsymf                 10015761 f   LIBCMT:_ctype.obj
 0001:0001479e       ___iscsym                  1001579e f   LIBCMT:_ctype.obj
 0001:000147db       _atol                      100157db f   LIBCMT:atox.obj
 0001:00014866       _atoi                      10015866 f   LIBCMT:atox.obj
 0001:00014871       __atoi64                   10015871 f   LIBCMT:atox.obj
 0001:0001492b       _strtok                    1001592b f   LIBCMT:strtok.obj
 0001:000149cf       _fwrite                    100159cf f   LIBCMT:fwrite.obj
 0001:000149fe       __fwrite_lk                100159fe f   LIBCMT:fwrite.obj
 0001:00014b08       _fputc                     10015b08 f   LIBCMT:fputc.obj
 0001:00014b43       _putc                      10015b43 f   LIBCMT:fputc.obj
 0001:00014b53       _fgetc                     10015b53 f   LIBCMT:fgetc.obj
 0001:00014b84       _getc                      10015b84 f   LIBCMT:fgetc.obj
 0001:00014b8f       _ungetc                    10015b8f f   LIBCMT:ungetc.obj
 0001:00014bb8       __ungetc_lk                10015bb8 f   LIBCMT:ungetc.obj
 0001:00014c26       _fgetpos                   10015c26 f   LIBCMT:fgetpos.obj
 0001:00014c48       _fseek                     10015c48 f   LIBCMT:fseek.obj
 0001:00014c74       __fseek_lk                 10015c74 f   LIBCMT:fseek.obj
 0001:00014d01       _fsetpos                   10015d01 f   LIBCMT:fsetpos.obj
 0001:00014d19       _setvbuf                   10015d19 f   LIBCMT:setvbuf.obj
 0001:00014dc8       _fflush                    10015dc8 f   LIBCMT:fflush.obj
 0001:00014df7       __fflush_lk                10015df7 f   LIBCMT:fflush.obj
 0001:00014e25       __flush                    10015e25 f   LIBCMT:fflush.obj
 0001:00014e81       __flushall                 10015e81 f   LIBCMT:fflush.obj
 0001:00014f2e       _malloc                    10015f2e f   LIBCMT:malloc.obj
 0001:00014f40       __nh_malloc                10015f40 f   LIBCMT:malloc.obj
 0001:00014f6c       __heap_alloc               10015f6c f   LIBCMT:malloc.obj
 0001:00014fba       _free                      10015fba f   LIBCMT:free.obj
 0001:00015002       ___InternalCxxFrameHandler 10016002 f   LIBCMT:frame.obj
 0001:00015357       ___FrameUnwindToState      10016357 f   LIBCMT:frame.obj
 0001:0001578f       ?_DestructExceptionObject@@YAXPAUEHExceptionRecord@@E@Z 1001678f f   LIBCMT:frame.obj
 0001:00015820       __CallSettingFrame@12      10016820 f   LIBCMT:lowhelpr.obj
 0001:00015847       __NLG_Return               10016847 f   LIBCMT:lowhelpr.obj
 0001:0001586c       __mtinit                   1001686c f   LIBCMT:tidtable.obj
 0001:000158c0       __mtterm                   100168c0 f   LIBCMT:tidtable.obj
 0001:000158de       __initptd                  100168de f   LIBCMT:tidtable.obj
 0001:000158f1       __getptd                   100168f1 f   LIBCMT:tidtable.obj
 0001:00015958       __freeptd                  10016958 f   LIBCMT:tidtable.obj
 0001:000159f8       ___threadid                100169f8 f   LIBCMT:tidtable.obj
 0001:000159fe       ___threadhandle            100169fe f   LIBCMT:tidtable.obj
 0001:00015a04       ?terminate@@YAXXZ          10016a04 f   LIBCMT:hooks.obj
 0001:00015a65       ?unexpected@@YAXXZ         10016a65 f   LIBCMT:hooks.obj
 0001:00015a7d       ?_inconsistency@@YAXXZ     10016a7d f   LIBCMT:hooks.obj
 0001:00015ad3       ___loctotime_t             10016ad3 f   LIBCMT:dtoxtime.obj
 0001:00015b95       __mtinitlocks              10016b95 f   LIBCMT:mlock.obj
 0001:00015bbe       __mtdeletelocks            10016bbe f   LIBCMT:mlock.obj
 0001:00015c2a       __lock                     10016c2a f   LIBCMT:mlock.obj
 0001:00015c8b       __unlock                   10016c8b f   LIBCMT:mlock.obj
 0001:00015ca0       __lockerr_exit             10016ca0 f   LIBCMT:mlock.obj
 0001:00015cc0       _strcmp                    10016cc0 f   LIBCMT:strcmp.obj
 0001:00015d44       __dosmaperr                10016d44 f   LIBCMT:dosmap.obj
 0001:00015db7       __errno                    10016db7 f   LIBCMT:dosmap.obj
 0001:00015dc0       ___doserrno                10016dc0 f   LIBCMT:dosmap.obj
 0001:00015dc9       _calloc                    10016dc9 f   LIBCMT:calloc.obj
 0001:00015e56       __cinit                    10016e56 f   LIBCMT:crt0dat.obj
 0001:00015e83       _exit                      10016e83 f   LIBCMT:crt0dat.obj
 0001:00015e94       __exit                     10016e94 f   LIBCMT:crt0dat.obj
 0001:00015ea5       __cexit                    10016ea5 f   LIBCMT:crt0dat.obj
 0001:00015eb4       __c_exit                   10016eb4 f   LIBCMT:crt0dat.obj
 0001:00015f68       __lockexit                 10016f68 f   LIBCMT:crt0dat.obj
 0001:00015f71       __unlockexit               10016f71 f   LIBCMT:crt0dat.obj
 0001:00015f94       __XcptFilter               10016f94 f   LIBCMT:winxfltr.obj
 0001:00016114       __except_handler3          10017114 f   LIBCMT:exsup3.obj
 0001:000161d1       __seh_longjmp_unwind@4     100171d1 f   LIBCMT:exsup3.obj
 0001:000161ec       ?__CxxUnhandledExceptionFilter@@YGJPAU_EXCEPTION_POINTERS@@@Z 100171ec f   LIBCMT:unhandld.obj
 0001:00016232       ?__CxxSetUnhandledExceptionFilter@@YAXXZ 10017232 f   LIBCMT:unhandld.obj
 0001:00016243       ?__CxxRestoreUnhandledExceptionFilter@@YAXXZ 10017243 f   LIBCMT:unhandld.obj
 0001:00016250       _strcpy                    10017250 f   LIBCMT:strcat.obj
 0001:00016260       _strcat                    10017260 f   LIBCMT:strcat.obj
 0001:00016340       _strlen                    10017340 f   LIBCMT:strlen.obj
 0001:000163bb       _realloc                   100173bb f   LIBCMT:realloc.obj
 0001:000164f3       __msize                    100174f3 f   LIBCMT:msize.obj
 0001:00016538       __flsbuf                   10017538 f   LIBCMT:_flsbuf.obj
 0001:00016650       __output                   10017650 f   LIBCMT:output.obj
 0001:00016e5a       __setdefaultprecision      10017e5a f   LIBCMT:fp8.obj
 0001:00016e6c       __ms_p5_test_fdiv          10017e6c f   LIBCMT:testfdiv.obj
 0001:00016eaa       __ms_p5_mp_test_fdiv       10017eaa f   LIBCMT:testfdiv.obj
 0001:00016ed3       __forcdecpt                10017ed3 f   LIBCMT:cvt.obj
 0001:00016f2d       __cropzeros                10017f2d f   LIBCMT:cvt.obj
 0001:00016f7b       __positive                 10017f7b f   LIBCMT:cvt.obj
 0001:00016f93       __fassign                  10017f93 f   LIBCMT:cvt.obj
 0001:00016fd1       __cftoe                    10017fd1 f   LIBCMT:cvt.obj
 0001:000170f4       __cftof                    100180f4 f   LIBCMT:cvt.obj
 0001:000171f0       __cftog                    100181f0 f   LIBCMT:cvt.obj
 0001:00017283       __cfltcvt                  10018283 f   LIBCMT:cvt.obj
 0001:000172f9       __ioinit                   100182f9 f   LIBCMT:ioinit.obj
 0001:000174b5       __ioterm                   100184b5 f   LIBCMT:ioinit.obj
 0001:00017509       __setenvp                  10018509 f   LIBCMT:stdenvp.obj
 0001:000175c2       __setargv                  100185c2 f   LIBCMT:stdargv.obj
 0001:0001780f       ___crtGetEnvironmentStringsA 1001880f f   LIBCMT:a_env.obj
 0001:00017941       __heap_init                10018941 f   LIBCMT:heapinit.obj
 0001:0001797d       __heap_term                1001897d f   LIBCMT:heapinit.obj
 0001:000179f2       __FF_MSGBANNER             100189f2 f   LIBCMT:crt0msg.obj
 0001:00017a2b       __NMSG_WRITE               10018a2b f   LIBCMT:crt0msg.obj
 0001:00017b7e       __GET_RTERRMSG             10018b7e f   LIBCMT:crt0msg.obj
 0001:00017baf       ___initstdio               10018baf f   LIBCMT:_file.obj
 0001:00017c57       ___endstdio                10018c57 f   LIBCMT:_file.obj
 0001:00017c6b       __lock_file                10018c6b f   LIBCMT:_file.obj
 0001:00017c9a       __lock_file2               10018c9a f   LIBCMT:_file.obj
 0001:00017cbd       __unlock_file              10018cbd f   LIBCMT:_file.obj
 0001:00017cec       __unlock_file2             10018cec f   LIBCMT:_file.obj
 0001:00017d0f       __close                    10018d0f f   LIBCMT:close.obj
 0001:00017d6c       __close_lk                 10018d6c f   LIBCMT:close.obj
 0001:00017def       __freebuf                  10018def f   LIBCMT:_freebuf.obj
 0001:00017e1a       _setlocale                 10018e1a f   LIBCMT:setlocal.obj
 0001:00018234       __expandlocale             10019234 f   LIBCMT:setlocal.obj
 0001:0001834c       ___init_dummy              1001934c f   LIBCMT:setlocal.obj
 0001:0001834f       __strcats                  1001934f f   LIBCMT:setlocal.obj
 0001:00018374       ___lc_strtolc              10019374 f   LIBCMT:setlocal.obj
 0001:00018440       ___lc_lctostr              10019440 f   LIBCMT:setlocal.obj
 0001:00018493       ___crtLCMapStringA         10019493 f   LIBCMT:a_map.obj
 0001:000186e2       __isctype                  100196e2 f   LIBCMT:isctype.obj
 0001:00018760       __allmul                   10019760 f   LIBCMT:llmul.obj
 0001:00018794       __write                    10019794 f   LIBCMT:write.obj
 0001:000187f9       __write_lk                 100197f9 f   LIBCMT:write.obj
 0001:00018990       _memcpy                    10019990 f   LIBCMT:memcpy.obj
 0001:00018cc5       __filbuf                   10019cc5 f   LIBCMT:_filbuf.obj
 0001:00018da1       __getbuf                   10019da1 f   LIBCMT:_getbuf.obj
 0001:00018de5       __ftelli64                 10019de5 f   LIBCMT:ftelli64.obj
 0001:00018e0d       __ftelli64_lk              10019e0d f   LIBCMT:ftelli64.obj
 0001:00018f9d       __lseek                    10019f9d f   LIBCMT:lseek.obj
 0001:00019002       __lseek_lk                 1001a002 f   LIBCMT:lseek.obj
 0001:00019075       _ftell                     1001a075 f   LIBCMT:ftell.obj
 0001:00019097       __ftell_lk                 1001a097 f   LIBCMT:ftell.obj
 0001:000191f8       __fseeki64                 1001a1f8 f   LIBCMT:fseeki64.obj
 0001:00019227       __fseeki64_lk              1001a227 f   LIBCMT:fseeki64.obj
 0001:000192b8       __commit                   1001a2b8 f   LIBCMT:commit.obj
 0001:0001934b       ?_set_new_handler@@YAP6AHI@ZP6AHI@Z@Z 1001a34b f   LIBCMT:handler.obj
 0001:0001936f       ?_query_new_handler@@YAP6AHI@ZXZ 1001a36f f   LIBCMT:handler.obj
 0001:00019375       __callnewh                 1001a375 f   LIBCMT:handler.obj
 0001:00019390       __get_sbh_threshold        1001a390 f   LIBCMT:sbheap.obj
 0001:00019396       __set_sbh_threshold        1001a396 f   LIBCMT:sbheap.obj
 0001:000193ad       ___sbh_heap_init           1001a3ad f   LIBCMT:sbheap.obj
 0001:000193eb       ___sbh_find_block          1001a3eb f   LIBCMT:sbheap.obj
 0001:00019416       ___sbh_free_block          1001a416 f   LIBCMT:sbheap.obj
 0001:00019741       ___sbh_alloc_block         1001a741 f   LIBCMT:sbheap.obj
 0001:00019a4a       ___sbh_alloc_new_region    1001aa4a f   LIBCMT:sbheap.obj
 0001:00019afb       ___sbh_alloc_new_group     1001aafb f   LIBCMT:sbheap.obj
 0001:00019bf6       ___sbh_resize_block        1001abf6 f   LIBCMT:sbheap.obj
 0001:00019eec       ___sbh_heapmin             1001aeec f   LIBCMT:sbheap.obj
 0001:00019fbd       ___sbh_heap_check          1001afbd f   LIBCMT:sbheap.obj
 0001:0001a2ec       ?_ValidateRead@@YAHPBXI@Z  1001b2ec f   LIBCMT:validate.obj
 0001:0001a308       ?_ValidateWrite@@YAHPAXI@Z 1001b308 f   LIBCMT:validate.obj
 0001:0001a324       ?_ValidateExecute@@YAHP6GHXZ@Z 1001b324 f   LIBCMT:validate.obj
 0001:0001a33c       _abort                     1001b33c f   LIBCMT:abort.obj
 0001:0001a353       ___tzset                   1001b353 f   LIBCMT:tzset.obj
 0001:0001a381       __tzset                    1001b381 f   LIBCMT:tzset.obj
 0001:0001a61e       __isindst                  1001b61e f   LIBCMT:tzset.obj
 0001:0001a930       _memset                    1001b930 f   LIBCMT:memset.obj
 0001:0001a988       __isatty                   1001b988 f   LIBCMT:isatty.obj
 0001:0001a9b1       _wctomb                    1001b9b1 f   LIBCMT:wctomb.obj
 0001:0001aa0a       __wctomb_lk                1001ba0a f   LIBCMT:wctomb.obj
 0001:0001aa80       __aulldiv                  1001ba80 f   LIBCMT:ulldiv.obj
 0001:0001aaf0       __aullrem                  1001baf0 f   LIBCMT:ullrem.obj
 0001:0001ab65       __statusfp                 1001bb65 f   LIBCMT:ieee87.obj
 0001:0001ab78       __clearfp                  1001bb78 f   LIBCMT:ieee87.obj
 0001:0001ab8c       __control87                1001bb8c f   LIBCMT:ieee87.obj
 0001:0001abc1       __controlfp                1001bbc1 f   LIBCMT:ieee87.obj
 0001:0001abd7       __fpreset                  1001bbd7 f   LIBCMT:ieee87.obj
 0001:0001ad52       __tolower                  1001bd52 f   LIBCMT:tolower.obj
 0001:0001ad5a       _tolower                   1001bd5a f   LIBCMT:tolower.obj
 0001:0001adc9       __tolower_lk               1001bdc9 f   LIBCMT:tolower.obj
 0001:0001ae94       __ZeroTail                 1001be94 f   LIBCMT:intrncvt.obj
 0001:0001aedd       __IncMan                   1001bedd f   LIBCMT:intrncvt.obj
 0001:0001af33       __RoundMan                 1001bf33 f   LIBCMT:intrncvt.obj
 0001:0001afbf       __CopyMan                  1001bfbf f   LIBCMT:intrncvt.obj
 0001:0001afda       __FillZeroMan              1001bfda f   LIBCMT:intrncvt.obj
 0001:0001afe6       __IsZeroMan                1001bfe6 f   LIBCMT:intrncvt.obj
 0001:0001b001       __ShrMan                   1001c001 f   LIBCMT:intrncvt.obj
 0001:0001b08e       __ld12cvt                  1001c08e f   LIBCMT:intrncvt.obj
 0001:0001b1fa       __ld12tod                  1001c1fa f   LIBCMT:intrncvt.obj
 0001:0001b210       __ld12tof                  1001c210 f   LIBCMT:intrncvt.obj
 0001:0001b226       __ld12told                 1001c226 f   LIBCMT:intrncvt.obj
 0001:0001b2a0       __atodbl                   1001c2a0 f   LIBCMT:intrncvt.obj
 0001:0001b2cd       __atoldbl                  1001c2cd f   LIBCMT:intrncvt.obj
 0001:0001b2fb       __atoflt                   1001c2fb f   LIBCMT:intrncvt.obj
 0001:0001b328       __fptostr                  1001c328 f   LIBCMT:_fptostr.obj
 0001:0001b39f       __fltout2                  1001c39f f   LIBCMT:cfout.obj
 0001:0001b3fb       ___dtold                   1001c3fb f   LIBCMT:cfout.obj
 0001:0001b4b1       __fptrap                   1001c4b1 f   LIBCMT:crt0fp.obj
 0001:0001b4ba       __setmbcp                  1001c4ba f   LIBCMT:mbctype.obj
 0001:0001b892       __getmbcp                  1001c892 f   LIBCMT:mbctype.obj
 0001:0001b8a2       ___initmbctable            1001c8a2 f   LIBCMT:mbctype.obj
 0001:0001b8be       ___crtMessageBoxA          1001c8be f   LIBCMT:crtmbox.obj
 0001:0001b950       _strncpy                   1001c950 f   LIBCMT:strncpy.obj
 0001:0001ba4e       __fcloseall                1001ca4e f   LIBCMT:closeall.obj
 0001:0001bacf       __alloc_osfhnd             1001cacf f   LIBCMT:osfinfo.obj
 0001:0001bbf2       __set_osfhnd               1001cbf2 f   LIBCMT:osfinfo.obj
 0001:0001bc6e       __free_osfhnd              1001cc6e f   LIBCMT:osfinfo.obj
 0001:0001bced       __get_osfhandle            1001cced f   LIBCMT:osfinfo.obj
 0001:0001bd2f       __open_osfhandle           1001cd2f f   LIBCMT:osfinfo.obj
 0001:0001bdd6       __lock_fhandle             1001cdd6 f   LIBCMT:osfinfo.obj
 0001:0001be35       __unlock_fhandle           1001ce35 f   LIBCMT:osfinfo.obj
 0001:0001be57       ___init_time               1001ce57 f   LIBCMT:inittime.obj
 0001:0001c3c6       ___init_numeric            1001d3c6 f   LIBCMT:initnum.obj
 0001:0001c5d2       ___init_monetary           1001d5d2 f   LIBCMT:initmon.obj
 0001:0001c844       ___init_ctype              1001d844 f   LIBCMT:initctyp.obj
 0001:0001ca89       ___init_collate            1001da89 f   LIBCMT:initcoll.obj
 0001:0001ca90       _strncmp                   1001da90 f   LIBCMT:strncmp.obj
 0001:0001cad0       _strpbrk                   1001dad0 f   LIBCMT:strpbrk.obj
 0001:0001cb0a       ___get_qualified_locale    1001db0a f   LIBCMT:getqloc.obj
 0001:0001d3c0       __chkstk                   1001e3c0 f   LIBCMT:chkstk.obj
 0001:0001d3c0       __alloca_probe             1001e3c0 f   LIBCMT:chkstk.obj
 0001:0001d3ef       ___crtGetStringTypeA       1001e3ef f   LIBCMT:a_str.obj
 0001:0001d538       __read                     1001e538 f   LIBCMT:read.obj
 0001:0001d59d       __read_lk                  1001e59d f   LIBCMT:read.obj
 0001:0001d776       __lseeki64                 1001e776 f   LIBCMT:lseeki64.obj
 0001:0001d7e7       __lseeki64_lk              1001e7e7 f   LIBCMT:lseeki64.obj
 0001:0001d86c       _signal                    1001e86c f   LIBCMT:winsig.obj
 0001:0001da50       _raise                     1001ea50 f   LIBCMT:winsig.obj
 0001:0001dc0f       ___fpecode                 1001ec0f f   LIBCMT:winsig.obj
 0001:0001dc18       ___pxcptinfoptrs           1001ec18 f   LIBCMT:winsig.obj
 0001:0001dc21       _getenv                    1001ec21 f   LIBCMT:getenv.obj
 0001:0001dc42       __getenv_lk                1001ec42 f   LIBCMT:getenv.obj
 0001:0001dcbf       ___addl                    1001ecbf f   LIBCMT:mantold.obj
 0001:0001dce0       ___add_12                  1001ece0 f   LIBCMT:mantold.obj
 0001:0001dd3e       ___shl_12                  1001ed3e f   LIBCMT:mantold.obj
 0001:0001dd6c       ___shr_12                  1001ed6c f   LIBCMT:mantold.obj
 0001:0001dd99       ___mtold12                 1001ed99 f   LIBCMT:mantold.obj
 0001:0001de60       ___strgtold12              1001ee60 f   LIBCMT:strgtold.obj
 0001:0001e331       ___STRINGTOLD              1001f331 f   LIBCMT:strgtold.obj
 0001:0001e36d       _$I10_OUTPUT               1001f36d f   LIBCMT:x10fout.obj
 0001:0001e600       __Getdays                  1001f600 f   LIBCMT:strftime.obj
 0001:0001e68f       __Getmonths                1001f68f f   LIBCMT:strftime.obj
 0001:0001e724       __Gettnames                1001f724 f   LIBCMT:strftime.obj
 0001:0001e956       _strftime                  1001f956 f   LIBCMT:strftime.obj
 0001:0001e971       __Strftime                 1001f971 f   LIBCMT:strftime.obj
 0001:0001f208       ___getlocaleinfo           10020208 f   LIBCMT:inithelp.obj
 0001:0001f340       ___crtGetStringTypeW       10020340 f   LIBCMT:w_str.obj
 0001:0001f505       __itoa                     10020505 f   LIBCMT:xtoa.obj
 0001:0001f58e       __ltoa                     1002058e f   LIBCMT:xtoa.obj
 0001:0001f5b8       __ultoa                    100205b8 f   LIBCMT:xtoa.obj
 0001:0001f5d3       __i64toa                   100205d3 f   LIBCMT:xtoa.obj
 0001:0001f68a       __ui64toa                  1002068a f   LIBCMT:xtoa.obj
 0001:0001f6b0       __strcmpi                  100206b0 f   LIBCMT:stricmp.obj
 0001:0001f6b0       __stricmp                  100206b0 f   LIBCMT:stricmp.obj
 0001:0001f780       __strnicmp                 10020780 f   LIBCMT:strnicmp.obj
 0001:0001f881       __mbsnbicoll               10020881 f   LIBCMT:mbsnbico.obj
 0001:0001f8c0       ___wtomb_environ           100208c0 f   LIBCMT:wtombenv.obj
 0001:0001f92e       ___ld12mul                 1002092e f   LIBCMT:tenpow.obj
 0001:0001fb4e       ___multtenpow12            10020b4e f   LIBCMT:tenpow.obj
 0001:0001fbca       ___crtGetLocaleInfoW       10020bca f   LIBCMT:w_loc.obj
 0001:0001fcdd       ___crtGetLocaleInfoA       10020cdd f   LIBCMT:a_loc.obj
 0001:0001fdfb       ___crtCompareStringA       10020dfb f   LIBCMT:a_cmp.obj
 0001:000200a3       ___crtsetenv               100210a3 f   LIBCMT:setenv.obj
 0001:000202e9       __mbschr                   100212e9 f   LIBCMT:mbschr.obj
 0001:00020380       __strdup                   10021380 f   LIBCMT:strdup.obj
 0001:000203c0       _strchr                    100213c0 f   LIBCMT:strchr.obj
 0001:000203c6       ___from_strstr_to_strchr   100213c6 f   LIBCMT:strchr.obj
 0001:0002047c       _WSAGetLastError@0         1002147c f   ws2_32:WS2_32.dll
 0001:00020482       _closesocket@4             10021482 f   ws2_32:WS2_32.dll
 0001:00020488       _WSASocketA@24             10021488 f   ws2_32:WS2_32.dll
 0001:0002048e       _WSAAccept@20              1002148e f   ws2_32:WS2_32.dll
 0001:00020494       _shutdown@8                10021494 f   ws2_32:WS2_32.dll
 0001:0002049a       _setsockopt@20             1002149a f   ws2_32:WS2_32.dll
 0001:000204a0       _WSARecv@28                100214a0 f   ws2_32:WS2_32.dll
 0001:000204a6       _WSASend@28                100214a6 f   ws2_32:WS2_32.dll
 0001:000204ac       _gethostbyname@4           100214ac f   ws2_32:WS2_32.dll
 0001:000204b2       _gethostname@8             100214b2 f   ws2_32:WS2_32.dll
 0001:000204b8       _htons@4                   100214b8 f   ws2_32:WS2_32.dll
 0001:000204be       _inet_ntoa@4               100214be f   ws2_32:WS2_32.dll
 0001:000204c4       _WSAStartup@8              100214c4 f   ws2_32:WS2_32.dll
 0001:000204ca       _WSACleanup@0              100214ca f   ws2_32:WS2_32.dll
 0001:000204d0       _listen@8                  100214d0 f   ws2_32:WS2_32.dll
 0001:000204d6       _bind@12                   100214d6 f   ws2_32:WS2_32.dll
 0001:000204dc       _connect@12                100214dc f   ws2_32:WS2_32.dll
 0001:000204e2       _htonl@4                   100214e2 f   ws2_32:WS2_32.dll
 0001:000204e8       _inet_addr@4               100214e8 f   ws2_32:WS2_32.dll
 0001:000204ee       ??0_Lockit@std@@QAE@XZ     100214ee f   libcpmt:xlock.obj
 0001:0002058a       ??1_Lockit@std@@QAE@XZ     1002158a f   libcpmt:xlock.obj
 0001:0002059f       ?_Xlen@std@@YAXXZ          1002159f f   libcpmt:string.obj
 0001:000205f9       ??0logic_error@std@@QAE@ABV?$basic_string@DU?$char_traits@D@std@@V?$allocator@D@2@@1@@Z 100215f9 f i libcpmt:string.obj
 0001:0002065d       ?what@logic_error@std@@UBEPBDXZ 1002165d f i libcpmt:string.obj
 0001:0002066a       ?_Doraise@logic_error@std@@MBEXXZ 1002166a f i libcpmt:string.obj
 0001:00020687       ??1logic_error@std@@UAE@XZ 10021687 f i libcpmt:string.obj
 0001:000206c4       ??_Elogic_error@std@@UAEPAXI@Z 100216c4 f i libcpmt:string.obj
 0001:000206c4       ??_Glogic_error@std@@UAEPAXI@Z 100216c4 f i libcpmt:string.obj
 0001:000206e0       ??0logic_error@std@@QAE@ABV01@@Z 100216e0 f i libcpmt:string.obj
 0001:0002073d       ??1length_error@std@@UAE@XZ 1002173d f i libcpmt:string.obj
 0001:0002077a       ?_Doraise@length_error@std@@MBEXXZ 1002177a f i libcpmt:string.obj
 0001:00020797       ??_Elength_error@std@@UAEPAXI@Z 10021797 f i libcpmt:string.obj
 0001:00020797       ??_Glength_error@std@@UAEPAXI@Z 10021797 f i libcpmt:string.obj
 0001:000207b3       ??0length_error@std@@QAE@ABV01@@Z 100217b3 f i libcpmt:string.obj
 0001:000207cb       ?_Xran@std@@YAXXZ          100217cb f   libcpmt:string.obj
 0001:00020825       ??1out_of_range@std@@UAE@XZ 10021825 f i libcpmt:string.obj
 0001:00020862       ?_Doraise@out_of_range@std@@MBEXXZ 10021862 f i libcpmt:string.obj
 0001:0002087f       ??_Gout_of_range@std@@UAEPAXI@Z 1002187f f i libcpmt:string.obj
 0001:0002087f       ??_Eout_of_range@std@@UAEPAXI@Z 1002187f f i libcpmt:string.obj
 0001:0002089b       ??0out_of_range@std@@QAE@ABV01@@Z 1002189b f i libcpmt:string.obj
 0001:000208f5       ?id@?$collate@D@std@@$E    100218f5 f i libcpmt:string.obj
 0001:000208f6       ?clear@ios_base@std@@QAEXH_N@Z 100218f6 f   libcpmt:ios.obj
 0001:00020992       ??0runtime_error@std@@QAE@ABV?$basic_string@DU?$char_traits@D@std@@V?$allocator@D@2@@1@@Z 10021992 f i libcpmt:ios.obj
 0001:000209f6       ?what@runtime_error@std@@UBEPBDXZ 100219f6 f i libcpmt:ios.obj
 0001:00020a03       ?_Doraise@runtime_error@std@@MBEXXZ 10021a03 f i libcpmt:ios.obj
 0001:00020a20       ??1runtime_error@std@@UAE@XZ 10021a20 f i libcpmt:ios.obj
 0001:00020a5d       ??_Eruntime_error@std@@UAEPAXI@Z 10021a5d f i libcpmt:ios.obj
 0001:00020a5d       ??_Gruntime_error@std@@UAEPAXI@Z 10021a5d f i libcpmt:ios.obj
 0001:00020a79       ??0runtime_error@std@@QAE@ABV01@@Z 10021a79 f i libcpmt:ios.obj
 0001:00020ad6       ??1failure@ios_base@std@@UAE@XZ 10021ad6 f i libcpmt:ios.obj
 0001:00020b13       ?_Doraise@failure@ios_base@std@@MBEXXZ 10021b13 f i libcpmt:ios.obj
 0001:00020b30       ??_Gfailure@ios_base@std@@UAEPAXI@Z 10021b30 f i libcpmt:ios.obj
 0001:00020b30       ??_Efailure@ios_base@std@@UAEPAXI@Z 10021b30 f i libcpmt:ios.obj
 0001:00020b4c       ??0failure@ios_base@std@@QAE@ABV012@@Z 10021b4c f i libcpmt:ios.obj
 0001:00020b64       ?copyfmt@ios_base@std@@QAEAAV12@ABV12@@Z 10021b64 f   libcpmt:ios.obj
 0001:00020bf5       ??4locale@std@@QAEAAV01@ABV01@@Z 10021bf5 f i libcpmt:ios.obj
 0001:00020c24       ?imbue@ios_base@std@@QAE?AVlocale@2@ABV32@@Z 10021c24 f   libcpmt:ios.obj
 0001:00020c83       ?register_callback@ios_base@std@@QAEXP6AXW4event@12@AAV12@H@ZH@Z 10021c83 f   libcpmt:ios.obj
 0001:00020cb9       ??1ios_base@std@@UAE@XZ    10021cb9 f   libcpmt:ios.obj
 0001:00020d09       ?_Callfns@ios_base@std@@AAEXW4event@12@@Z 10021d09 f   libcpmt:ios.obj
 0001:00020d2b       ?_Findarr@ios_base@std@@AAEAAU_Iosarray@12@H@Z 10021d2b f   libcpmt:ios.obj
 0001:00020dfc       ?_Addstd@ios_base@std@@IAEXXZ 10021dfc f   libcpmt:ios.obj
 0001:00020e4a       ?_Init@ios_base@std@@IAEXXZ 10021e4a f   libcpmt:ios.obj
 0001:00020e82       ?_Tidy@ios_base@std@@AAEXXZ 10021e82 f   libcpmt:ios.obj
 0001:00020ec4       ??1istrstream@std@@UAE@XZ  10021ec4 f   libcpmt:strstrea.obj
 0001:00020f0a       ??_Gistrstream@std@@UAEPAXI@Z 10021f0a f i libcpmt:strstrea.obj
 0001:00020f0a       ??_Eistrstream@std@@UAEPAXI@Z 10021f0a f i libcpmt:strstrea.obj
 0001:00020f35       ??0ostrstream@std@@QAE@PADHH@Z 10021f35 f   libcpmt:strstrea.obj
 0001:00020ff4       ??_Eostrstream@std@@UAEPAXI@Z 10021ff4 f i libcpmt:strstrea.obj
 0001:00020ff4       ??_Gostrstream@std@@UAEPAXI@Z 10021ff4 f i libcpmt:strstrea.obj
 0001:0002101f       ??1ostrstream@std@@UAE@XZ  1002201f f   libcpmt:strstrea.obj
 0001:00021065       ??0strstream@std@@QAE@PADHH@Z 10022065 f   libcpmt:strstrea.obj
 0001:00021128       ??1strstream@std@@UAE@XZ   10022128 f   libcpmt:strstrea.obj
 0001:0002116b       ??1strstreambuf@std@@UAE@XZ 1002216b f   libcpmt:strstrea.obj
 0001:000211a6       ?freeze@strstreambuf@std@@QAEX_N@Z 100221a6 f   libcpmt:strstrea.obj
 0001:000211ee       ?overflow@strstreambuf@std@@MAEHH@Z 100221ee f   libcpmt:strstrea.obj
 0001:00021357       ?pbackfail@strstreambuf@std@@MAEHH@Z 10022357 f   libcpmt:strstrea.obj
 0001:000213a0       ?underflow@strstreambuf@std@@MAEHXZ 100223a0 f   libcpmt:strstrea.obj
 0001:000213eb       ?seekoff@strstreambuf@std@@MAE?AV?$fpos@H@2@JW4seekdir@ios_base@2@H@Z 100223eb f   libcpmt:strstrea.obj
 0001:00021529       ?seekpos@strstreambuf@std@@MAE?AV?$fpos@H@2@V32@H@Z 10022529 f   libcpmt:strstrea.obj
 0001:000215f5       ?_Init@strstreambuf@std@@IAEXHPAD0H@Z 100225f5 f   libcpmt:strstrea.obj
 0001:000216a5       ?_Tidy@strstreambuf@std@@IAEXXZ 100226a5 f   libcpmt:strstrea.obj
 0001:000216d7       ??1?$basic_ostream@DU?$char_traits@D@std@@@std@@UAE@XZ 100226d7 f i libcpmt:strstrea.obj
 0001:000216e6       ?_Pninc@?$basic_streambuf@DU?$char_traits@D@std@@@std@@IAEPADXZ 100226e6 f i libcpmt:strstrea.obj
 0001:000216f6       ??0?$basic_istream@DU?$char_traits@D@std@@@std@@QAE@PAV?$basic_streambuf@DU?$char_traits@D@std@@@1@_N@Z 100226f6 f i libcpmt:strstrea.obj
 0001:0002175e       ??_D?$basic_ostream@DU?$char_traits@D@std@@@std@@QAEXXZ 1002275e f i libcpmt:strstrea.obj
 0001:00021773       ??_D?$basic_istream@DU?$char_traits@D@std@@@std@@QAEXXZ 10022773 f i libcpmt:strstrea.obj
 0001:00021788       ?_Gninc@?$basic_streambuf@DU?$char_traits@D@std@@@std@@IAEPADXZ 10022788 f i libcpmt:strstrea.obj
 0001:000217da       ?uncaught_exception@std@@YA_NXZ 100227da f   libcpmt:uncaught.obj
 0001:000217fe       ?classic@locale@std@@SAABV12@XZ 100227fe f   libcpmt:locale0.obj
 0001:0002181e       ?empty@locale@std@@SA?AV12@XZ 1002281e f   libcpmt:locale0.obj
 0001:00021865       ?_Getfacet@locale@std@@QBEPBVfacet@12@I_N@Z 10022865 f   libcpmt:locale0.obj
 0001:000218bb       ?_Iscloc@locale@std@@QBE_NXZ 100228bb f   libcpmt:locale0.obj
 0001:000218f6       ??8locale@std@@QBE_NABV01@@Z 100228f6 f   libcpmt:locale0.obj
 0001:000219c5       ?name@locale@std@@QBE?AV?$basic_string@DU?$char_traits@D@std@@V?$allocator@D@2@@2@XZ 100229c5 f i libcpmt:locale0.obj
 0001:000219fc       ?_Init@locale@std@@CAPAV_Locimp@12@XZ 100229fc f   libcpmt:locale0.obj
 0001:00021ac6       ?_Tidy@locale@std@@CAXXZ   10022ac6 f   libcpmt:locale0.obj
 0001:00021b10       ??0_Locimp@locale@std@@AAE@_N@Z 10022b10 f   libcpmt:locale0.obj
 0001:00021b82       ??_E_Locimp@locale@std@@UAEPAXI@Z 10022b82 f i libcpmt:locale0.obj
 0001:00021b82       ??_G_Locimp@locale@std@@UAEPAXI@Z 10022b82 f i libcpmt:locale0.obj
 0001:00021b9e       ??1_Locimp@locale@std@@UAE@XZ 10022b9e f   libcpmt:locale0.obj
 0001:00021c26       ?compare@?$basic_string@DU?$char_traits@D@std@@V?$allocator@D@2@@std@@QBEHABV12@@Z 10022c26 f i libcpmt:locale0.obj
 0001:00021c48       ?compare@?$basic_string@DU?$char_traits@D@std@@V?$allocator@D@2@@std@@QBEHIIPBDI@Z 10022c48 f i libcpmt:locale0.obj
 0001:00021ced       ??0locale@std@@QAE@ABV01@0H@Z 10022ced f   libcpmt:locale.obj
 0001:00021d95       ??0locale@std@@QAE@PBDH@Z  10022d95 f   libcpmt:locale.obj
 0001:00021ea2       ?_Getname@_Locinfo@std@@QBE?AV?$basic_string@DU?$char_traits@D@std@@V?$allocator@D@2@@2@XZ 10022ea2 f i libcpmt:locale.obj
 0001:00021ed8       ??0locale@std@@QAE@ABV01@PBDH@Z 10022ed8 f   libcpmt:locale.obj
 0001:00021ff9       ?_Addfac@locale@std@@QAEAAV12@PAVfacet@12@II@Z 10022ff9 f   libcpmt:locale.obj
 0001:0002207c       ?global@locale@std@@SA?AV12@ABV12@@Z 1002307c f   libcpmt:locale.obj
 0001:00022177       ?_Makeloc@_Locimp@locale@std@@CAPAV123@ABV_Locinfo@3@HPAV123@PBV23@@Z 10023177 f   libcpmt:locale.obj
 0001:000223eb       ?do_always_noconv@codecvt_base@std@@MBE_NXZ 100233eb f i libcpmt:locale.obj
 0001:000223ee       ?do_max_length@codecvt_base@std@@MBEHXZ 100233ee f i libcpmt:locale.obj
 0001:000223f2       ?do_encoding@codecvt_base@std@@MBEHXZ 100233f2 f i libcpmt:locale.obj
 0001:000223f6       ??1ctype_base@std@@UAE@XZ  100233f6 f i libcpmt:locale.obj
 0001:000223fd       ?_Init@?$ctype@D@std@@IAEXABV_Locinfo@2@@Z 100233fd f i libcpmt:locale.obj
 0001:00022452       ?_Term@?$ctype@D@std@@KAXXZ 10023452 f i libcpmt:locale.obj
 0001:0002245f       ?do_tolower@?$ctype@D@std@@MBEDD@Z 1002345f f i libcpmt:locale.obj
 0001:00022473       ?do_tolower@?$ctype@D@std@@MBEPBDPADPBD@Z 10023473 f i libcpmt:locale.obj
 0001:0002249e       ?do_toupper@?$ctype@D@std@@MBEDD@Z 1002349e f i libcpmt:locale.obj
 0001:000224b2       ?do_toupper@?$ctype@D@std@@MBEPBDPADPBD@Z 100234b2 f i libcpmt:locale.obj
 0001:000224dd       ??_E?$ctype@D@std@@UAEPAXI@Z 100234dd f i libcpmt:locale.obj
 0001:000224dd       ??_G?$ctype@D@std@@UAEPAXI@Z 100234dd f i libcpmt:locale.obj
 0001:000224f9       ??1?$ctype@D@std@@UAE@XZ   100234f9 f i libcpmt:locale.obj
 0001:00022519       ??0_Locimp@locale@std@@AAE@ABV012@@Z 10023519 f   libcpmt:locale.obj
 0001:00022639       ?_Addfac@_Locimp@locale@std@@AAEXPAVfacet@23@I@Z 10023639 f   libcpmt:locale.obj
 0001:000226ec       ??0_Locinfo@std@@QAE@PBD@Z 100236ec f   libcpmt:locale.obj
 0001:000227a5       ??0_Locinfo@std@@QAE@HPBD@Z 100237a5 f   libcpmt:locale.obj
 0001:0002281c       ??1_Locinfo@std@@QAE@XZ    1002381c f   libcpmt:locale.obj
 0001:00022891       ?_Addcats@_Locinfo@std@@QAEAAV12@HPBD@Z 10023891 f   libcpmt:locale.obj
 0001:00022900       ?do_in@?$codecvt@DDH@std@@MBEHAAHPBD1AAPBDPAD3AAPAD@Z 10023900 f i libcpmt:locale.obj
 0001:0002291a       ?do_out@?$codecvt@DDH@std@@MBEHAAHPBD1AAPBDPAD3AAPAD@Z 1002391a f i libcpmt:locale.obj
 0001:00022934       ?do_length@?$codecvt@DDH@std@@MBEHAAHPBD1I@Z 10023934 f i libcpmt:locale.obj
 0001:00022949       ?do_get@?$num_get@DV?$istreambuf_iterator@DU?$char_traits@D@std@@@std@@@std@@MBE?AV?$istreambuf_iterator@DU?$char_traits@D@std@@@2@V32@0AAVios_base@2@AAHAA_N@Z 10023949 f i libcpmt:locale.obj
 0001:00022af3       ?do_get@?$num_get@DV?$istreambuf_iterator@DU?$char_traits@D@std@@@std@@@std@@MBE?AV?$istreambuf_iterator@DU?$char_traits@D@std@@@2@V32@0AAVios_base@2@AAHAAG@Z 10023af3 f i libcpmt:locale.obj
 0001:00022bbf       ?do_get@?$num_get@DV?$istreambuf_iterator@DU?$char_traits@D@std@@@std@@@std@@MBE?AV?$istreambuf_iterator@DU?$char_traits@D@std@@@2@V32@0AAVios_base@2@AAHAAI@Z 10023bbf f i libcpmt:locale.obj
 0001:00022c87       ?do_get@?$num_get@DV?$istreambuf_iterator@DU?$char_traits@D@std@@@std@@@std@@MBE?AV?$istreambuf_iterator@DU?$char_traits@D@std@@@2@V32@0AAVios_base@2@AAHAAJ@Z 10023c87 f i libcpmt:locale.obj
 0001:00022d35       ?do_get@?$num_get@DV?$istreambuf_iterator@DU?$char_traits@D@std@@@std@@@std@@MBE?AV?$istreambuf_iterator@DU?$char_traits@D@std@@@2@V32@0AAVios_base@2@AAHAAK@Z 10023d35 f i libcpmt:locale.obj
 0001:00022de3       ?do_get@?$num_get@DV?$istreambuf_iterator@DU?$char_traits@D@std@@@std@@@std@@MBE?AV?$istreambuf_iterator@DU?$char_traits@D@std@@@2@V32@0AAVios_base@2@AAHAAM@Z 10023de3 f i libcpmt:locale.obj
 0001:00022e8d       ?do_get@?$num_get@DV?$istreambuf_iterator@DU?$char_traits@D@std@@@std@@@std@@MBE?AV?$istreambuf_iterator@DU?$char_traits@D@std@@@2@V32@0AAVios_base@2@AAHAAN@Z 10023e8d f i libcpmt:locale.obj
 0001:00022f37       ?do_get@?$num_get@DV?$istreambuf_iterator@DU?$char_traits@D@std@@@std@@@std@@MBE?AV?$istreambuf_iterator@DU?$char_traits@D@std@@@2@V32@0AAVios_base@2@AAHAAO@Z 10023f37 f i libcpmt:locale.obj
 0001:00022fe1       ?do_get@?$num_get@DV?$istreambuf_iterator@DU?$char_traits@D@std@@@std@@@std@@MBE?AV?$istreambuf_iterator@DU?$char_traits@D@std@@@2@V32@0AAVios_base@2@AAHAAPAX@Z 10023fe1 f i libcpmt:locale.obj
 0001:000230d7       ??_E?$codecvt@DDH@std@@UAEPAXI@Z 100240d7 f i libcpmt:locale.obj
 0001:000230d7       ??_G?$codecvt@DDH@std@@UAEPAXI@Z 100240d7 f i libcpmt:locale.obj
 0001:000230f3       ??1?$codecvt@DDH@std@@UAE@XZ 100240f3 f i libcpmt:locale.obj
 0001:000230fa       ??_G?$num_get@DV?$istreambuf_iterator@DU?$char_traits@D@std@@@std@@@std@@UAEPAXI@Z 100240fa f i libcpmt:locale.obj
 0001:000230fa       ??_E?$num_get@DV?$istreambuf_iterator@DU?$char_traits@D@std@@@std@@@std@@UAEPAXI@Z 100240fa f i libcpmt:locale.obj
 0001:00023116       ??1?$num_get@DV?$istreambuf_iterator@DU?$char_traits@D@std@@@std@@@std@@UAE@XZ 10024116 f i libcpmt:locale.obj
 0001:0002311d       ?_Getifld@?$num_get@DV?$istreambuf_iterator@DU?$char_traits@D@std@@@std@@@std@@CAHPADAAV?$istreambuf_iterator@DU?$char_traits@D@std@@@2@1HABVlocale@2@@Z 1002411d f i libcpmt:locale.obj
 0001:000234b2       ?_Getffld@?$num_get@DV?$istreambuf_iterator@DU?$char_traits@D@std@@@std@@@std@@CAHPADAAV?$istreambuf_iterator@DU?$char_traits@D@std@@@2@1ABVlocale@2@@Z 100244b2 f i libcpmt:locale.obj
 0001:0002379e       ?_Ffmt@?$num_put@DV?$ostreambuf_iterator@DU?$char_traits@D@std@@@std@@@std@@KAPADPADDH@Z 1002479e f i libcpmt:locale.obj
 0001:000237fc       ?_Ifmt@?$num_put@DV?$ostreambuf_iterator@DU?$char_traits@D@std@@@std@@@std@@KAPADPADDH@Z 100247fc f i libcpmt:locale.obj
 0001:00023856       ?_Init@?$numpunct@D@std@@IAEXABV_Locinfo@2@@Z 10024856 f i libcpmt:locale.obj
 0001:0002389f       ?assign@?$basic_string@DU?$char_traits@D@std@@V?$allocator@D@2@@std@@QAEAAV12@ID@Z 1002489f f i libcpmt:locale.obj
 0001:000238e5       ?_Inc@?$istreambuf_iterator@DU?$char_traits@D@std@@@std@@AAEXXZ 100248e5 f i libcpmt:locale.obj
 0001:00023907       ?sbumpc@?$basic_streambuf@DU?$char_traits@D@std@@@std@@QAEHXZ 10024907 f i libcpmt:locale.obj
 0001:0002392a       ?_Peek@?$istreambuf_iterator@DU?$char_traits@D@std@@@std@@AAEDXZ 1002492a f i libcpmt:locale.obj
 0001:0002394e       ?sgetc@?$basic_streambuf@DU?$char_traits@D@std@@@std@@QAEHXZ 1002494e f i libcpmt:locale.obj
 0001:0002396c       ?use_facet@std@@YAABV?$ctype@D@1@ABVlocale@1@PBV21@_N@Z 1002496c f i libcpmt:locale.obj
 0001:00023a34       ??0?$ctype@D@std@@QAE@PBF_NI@Z 10024a34 f i libcpmt:locale.obj
 0001:00023ad3       ?use_facet@std@@YAABV?$num_get@DV?$istreambuf_iterator@DU?$char_traits@D@std@@@std@@@1@ABVlocale@1@PBV21@_N@Z 10024ad3 f i libcpmt:locale.obj
 0001:00023baf       ?use_facet@std@@YAABV?$num_put@DV?$ostreambuf_iterator@DU?$char_traits@D@std@@@std@@@1@ABVlocale@1@PBV21@_N@Z 10024baf f i libcpmt:locale.obj
 0001:00023c8b       ?use_facet@std@@YAABV?$numpunct@D@1@ABVlocale@1@PBV21@_N@Z 10024c8b f i libcpmt:locale.obj
 0001:00023d4f       ?use_facet@std@@YAABV?$codecvt@DDH@1@ABVlocale@1@PBV21@_N@Z 10024d4f f i libcpmt:locale.obj
 0001:00023e13       ?_Getloctxt@std@@YAHAAV?$istreambuf_iterator@DU?$char_traits@D@std@@@1@0IPBD@Z 10024e13 f i libcpmt:locale.obj
 0001:00023fcc       ?isdigit@std@@YA_NDABVlocale@1@@Z 10024fcc f i libcpmt:locale.obj
 0001:00023fed       ?_Maklocstr@std@@YAPADPBDPAD@Z 10024fed f i libcpmt:locale.obj
 0001:00024016       ??0?$codecvt@DDH@std@@QAE@I@Z 10025016 f i libcpmt:locale.obj
 0001:0002406a       ??1codecvt_base@std@@UAE@XZ 1002506a f i libcpmt:locale.obj
 0001:00024071       ?equal@?$istreambuf_iterator@DU?$char_traits@D@std@@@std@@QBE_NABV12@@Z 10025071 f i libcpmt:locale.obj
 0001:000240b0       ?_Save@?$_Tidyfac@V?$ctype@D@std@@@std@@SAPAV?$ctype@D@2@PAV32@@Z 100250b0 f i libcpmt:locale.obj
 0001:000240fe       ?_Save@?$_Tidyfac@V?$num_get@DV?$istreambuf_iterator@DU?$char_traits@D@std@@@std@@@std@@@std@@SAPAV?$num_get@DV?$istreambuf_iterator@DU?$char_traits@D@std@@@std@@@2@PAV32@@Z 100250fe f i libcpmt:locale.obj
 0001:0002414c       ?_Save@?$_Tidyfac@V?$codecvt@DDH@std@@@std@@SAPAV?$codecvt@DDH@2@PAV32@@Z 1002514c f i libcpmt:locale.obj
 0001:0002419a       ?_Tidy@?$_Tidyfac@V?$ctype@D@std@@@std@@SAXXZ 1002519a f i libcpmt:locale.obj
 0001:000241e7       ?_Tidy@?$_Tidyfac@V?$num_get@DV?$istreambuf_iterator@DU?$char_traits@D@std@@@std@@@std@@@std@@SAXXZ 100251e7 f i libcpmt:locale.obj
 0001:00024234       ?_Tidy@?$_Tidyfac@V?$codecvt@DDH@std@@@std@@SAXXZ 10025234 f i libcpmt:locale.obj
 0001:00024406       ??0Init@ios_base@std@@QAE@XZ 10025406 f   libcpmt:iostream.obj
 0001:00024585       ??3@YAXPAX0@Z              10025585 f i libcpmt:iostream.obj
 0001:00024586       ??1Init@ios_base@std@@QAE@XZ 10025586 f   libcpmt:iostream.obj
 0001:000245c9       ??0?$basic_ostream@DU?$char_traits@D@std@@@std@@QAE@W4_Uninitialized@1@@Z 100255c9 f i libcpmt:iostream.obj
 0001:00024628       ?flush@?$basic_ostream@DU?$char_traits@D@std@@@std@@QAEAAV12@XZ 10025628 f i libcpmt:iostream.obj
 0001:00024672       ??0?$basic_istream@DU?$char_traits@D@std@@@std@@QAE@W4_Uninitialized@1@@Z 10025672 f i libcpmt:iostream.obj
 0001:000246d1       ??0?$basic_filebuf@DU?$char_traits@D@std@@@std@@QAE@PAU_iobuf@@@Z 100256d1 f i libcpmt:iostream.obj
 0001:00024731       ??0?$basic_filebuf@DU?$char_traits@D@std@@@std@@QAE@W4_Uninitialized@1@@Z 10025731 f i libcpmt:iostream.obj
 0001:0002473c       ?_Gndec@?$basic_streambuf@DU?$char_traits@D@std@@@std@@IAEPADXZ 1002573c f i libcpmt:iostream.obj
 0001:0002474c       ?close@?$basic_filebuf@DU?$char_traits@D@std@@@std@@QAEPAV12@XZ 1002574c f i libcpmt:iostream.obj
 0001:00024773       ?_Ungetc@std@@YA_NABDPAU_iobuf@@I@Z 10025773 f i libcpmt:iostream.obj
 0001:0002490c       ??_D?$basic_istream@GU?$char_traits@G@std@@@std@@QAEXXZ 1002590c f i libcpmt:wiostrea.obj
 0001:00024950       ??_D?$basic_ostream@GU?$char_traits@G@std@@@std@@QAEXXZ 10025950 f i libcpmt:wiostrea.obj
 0001:000249c3       ??0_Winit@std@@QAE@XZ      100259c3 f   libcpmt:wiostrea.obj
 0001:00024b44       ??1_Winit@std@@QAE@XZ      10025b44 f   libcpmt:wiostrea.obj
 0001:00024b87       ??0?$basic_ostream@GU?$char_traits@G@std@@@std@@QAE@PAV?$basic_streambuf@GU?$char_traits@G@std@@@1@_N1@Z 10025b87 f i libcpmt:wiostrea.obj
 0001:00024bf1       ??0?$basic_ostream@GU?$char_traits@G@std@@@std@@QAE@W4_Uninitialized@1@@Z 10025bf1 f i libcpmt:wiostrea.obj
 0001:00024c50       ?flush@?$basic_ostream@GU?$char_traits@G@std@@@std@@QAEAAV12@XZ 10025c50 f i libcpmt:wiostrea.obj
 0001:00024c9a       ??1?$basic_ios@GU?$char_traits@G@std@@@std@@UAE@XZ 10025c9a f i libcpmt:wiostrea.obj
 0001:00024ca5       ??0?$basic_istream@GU?$char_traits@G@std@@@std@@QAE@PAV?$basic_streambuf@GU?$char_traits@G@std@@@1@_N@Z 10025ca5 f i libcpmt:wiostrea.obj
 0001:00024d0d       ??0?$basic_istream@GU?$char_traits@G@std@@@std@@QAE@W4_Uninitialized@1@@Z 10025d0d f i libcpmt:wiostrea.obj
 0001:00024d6c       ??0?$basic_filebuf@GU?$char_traits@G@std@@@std@@QAE@PAU_iobuf@@@Z 10025d6c f i libcpmt:wiostrea.obj
 0001:00024dcc       ??1?$basic_streambuf@GU?$char_traits@G@std@@@std@@UAE@XZ 10025dcc f i libcpmt:wiostrea.obj
 0001:00024dda       ?overflow@?$basic_streambuf@GU?$char_traits@G@std@@@std@@MAEGG@Z 10025dda f i libcpmt:wiostrea.obj
 0001:00024de1       ?pbackfail@?$basic_streambuf@GU?$char_traits@G@std@@@std@@MAEGG@Z 10025de1 f i libcpmt:wiostrea.obj
 0001:00024de8       ?showmanyc@?$basic_streambuf@GU?$char_traits@G@std@@@std@@MAEHXZ 10025de8 f i libcpmt:wiostrea.obj
 0001:00024deb       ?underflow@?$basic_streambuf@GU?$char_traits@G@std@@@std@@MAEGXZ 10025deb f i libcpmt:wiostrea.obj
 0001:00024df0       ?uflow@?$basic_streambuf@GU?$char_traits@G@std@@@std@@MAEGXZ 10025df0 f i libcpmt:wiostrea.obj
 0001:00024e11       ?xsgetn@?$basic_streambuf@GU?$char_traits@G@std@@@std@@MAEHPAGH@Z 10025e11 f i libcpmt:wiostrea.obj
 0001:00024e98       ?xsputn@?$basic_streambuf@GU?$char_traits@G@std@@@std@@MAEHPBGH@Z 10025e98 f i libcpmt:wiostrea.obj
 0001:00024f20       ?seekoff@?$basic_streambuf@GU?$char_traits@G@std@@@std@@MAE?AV?$fpos@H@2@JW4seekdir@ios_base@2@H@Z 10025f20 f i libcpmt:wiostrea.obj
 0001:00024f44       ?seekpos@?$basic_streambuf@GU?$char_traits@G@std@@@std@@MAE?AV?$fpos@H@2@V32@H@Z 10025f44 f i libcpmt:wiostrea.obj
 0001:00024f68       ?setbuf@?$basic_streambuf@GU?$char_traits@G@std@@@std@@MAEPAV12@PAGH@Z 10025f68 f i libcpmt:wiostrea.obj
 0001:00024f6d       ?sync@?$basic_streambuf@GU?$char_traits@G@std@@@std@@MAEHXZ 10025f6d f i libcpmt:wiostrea.obj
 0001:00024f70       ?imbue@?$basic_streambuf@GU?$char_traits@G@std@@@std@@MAEXABVlocale@2@@Z 10025f70 f i libcpmt:wiostrea.obj
 0001:00024f73       ??0?$basic_filebuf@GU?$char_traits@G@std@@@std@@QAE@W4_Uninitialized@1@@Z 10025f73 f i libcpmt:wiostrea.obj
 0001:00024f7e       ??1?$basic_filebuf@GU?$char_traits@G@std@@@std@@UAE@XZ 10025f7e f i libcpmt:wiostrea.obj
 0001:00024fe3       ?overflow@?$basic_filebuf@GU?$char_traits@G@std@@@std@@MAEGG@Z 10025fe3 f i libcpmt:wiostrea.obj
 0001:0002512b       ?pbackfail@?$basic_filebuf@GU?$char_traits@G@std@@@std@@MAEGG@Z 1002612b f i libcpmt:wiostrea.obj
 0001:000251e2       ?underflow@?$basic_filebuf@GU?$char_traits@G@std@@@std@@MAEGXZ 100261e2 f i libcpmt:wiostrea.obj
 0001:00025210       ?uflow@?$basic_filebuf@GU?$char_traits@G@std@@@std@@MAEGXZ 10026210 f i libcpmt:wiostrea.obj
 0001:0002532e       ?seekoff@?$basic_filebuf@GU?$char_traits@G@std@@@std@@MAE?AV?$fpos@H@2@JW4seekdir@ios_base@2@H@Z 1002632e f i libcpmt:wiostrea.obj
 0001:0002539d       ?seekpos@?$basic_filebuf@GU?$char_traits@G@std@@@std@@MAE?AV?$fpos@H@2@V32@H@Z 1002639d f i libcpmt:wiostrea.obj
 0001:0002544c       ?setbuf@?$basic_filebuf@GU?$char_traits@G@std@@@std@@MAEPAV?$basic_streambuf@GU?$char_traits@G@std@@@2@PAGH@Z 1002644c f i libcpmt:wiostrea.obj
 0001:0002547a       ?sync@?$basic_filebuf@GU?$char_traits@G@std@@@std@@MAEHXZ 1002647a f i libcpmt:wiostrea.obj
 0001:00025493       ??_E?$basic_ostream@GU?$char_traits@G@std@@@std@@UAEPAXI@Z 10026493 f i libcpmt:wiostrea.obj
 0001:00025493       ??_G?$basic_ostream@GU?$char_traits@G@std@@@std@@UAEPAXI@Z 10026493 f i libcpmt:wiostrea.obj
 0001:000254b2       ??_G?$basic_ios@GU?$char_traits@G@std@@@std@@UAEPAXI@Z 100264b2 f i libcpmt:wiostrea.obj
 0001:000254b2       ??_E?$basic_ios@GU?$char_traits@G@std@@@std@@UAEPAXI@Z 100264b2 f i libcpmt:wiostrea.obj
 0001:000254ce       ??_E?$basic_istream@GU?$char_traits@G@std@@@std@@UAEPAXI@Z 100264ce f i libcpmt:wiostrea.obj
 0001:000254ce       ??_G?$basic_istream@GU?$char_traits@G@std@@@std@@UAEPAXI@Z 100264ce f i libcpmt:wiostrea.obj
 0001:000254ed       ??_G?$basic_streambuf@GU?$char_traits@G@std@@@std@@UAEPAXI@Z 100264ed f i libcpmt:wiostrea.obj
 0001:000254ed       ??_E?$basic_streambuf@GU?$char_traits@G@std@@@std@@UAEPAXI@Z 100264ed f i libcpmt:wiostrea.obj
 0001:00025509       ??_E?$basic_filebuf@GU?$char_traits@G@std@@@std@@UAEPAXI@Z 10026509 f i libcpmt:wiostrea.obj
 0001:00025509       ??_G?$basic_filebuf@GU?$char_traits@G@std@@@std@@UAEPAXI@Z 10026509 f i libcpmt:wiostrea.obj
 0001:00025525       ?init@?$basic_ios@GU?$char_traits@G@std@@@std@@IAEXPAV?$basic_streambuf@GU?$char_traits@G@std@@@2@_N@Z 10026525 f i libcpmt:wiostrea.obj
 0001:0002556f       ?gbump@?$basic_streambuf@GU?$char_traits@G@std@@@std@@IAEXH@Z 1002656f f i libcpmt:wiostrea.obj
 0001:00025583       ?_Gndec@?$basic_streambuf@GU?$char_traits@G@std@@@std@@IAEPAGXZ 10026583 f i libcpmt:wiostrea.obj
 0001:00025594       ?_Gninc@?$basic_streambuf@GU?$char_traits@G@std@@@std@@IAEPAGXZ 10026594 f i libcpmt:wiostrea.obj
 0001:000255a4       ?pbump@?$basic_streambuf@GU?$char_traits@G@std@@@std@@IAEXH@Z 100265a4 f i libcpmt:wiostrea.obj
 0001:000255b8       ?_Pninc@?$basic_streambuf@GU?$char_traits@G@std@@@std@@IAEPAGXZ 100265b8 f i libcpmt:wiostrea.obj
 0001:000255c8       ?close@?$basic_filebuf@GU?$char_traits@G@std@@@std@@QAEPAV12@XZ 100265c8 f i libcpmt:wiostrea.obj
 0001:000255ef       ?_Init@?$basic_filebuf@GU?$char_traits@G@std@@@std@@IAEXPAU_iobuf@@W4_Initfl@12@@Z 100265ef f i libcpmt:wiostrea.obj
 0001:00025645       ?_Init@?$basic_streambuf@GU?$char_traits@G@std@@@std@@IAEXXZ 10026645 f i libcpmt:wiostrea.obj
 0001:000256c9       ?_Nomemory@std@@YAXXZ      100266c9 f   libcpmt:nomemory.obj
 0001:00025714       ??0bad_alloc@std@@QAE@PBD@Z 10026714 f i libcpmt:nomemory.obj
 0001:0002572d       ??1bad_alloc@std@@UAE@XZ   1002672d f i libcpmt:nomemory.obj
 0001:00025738       ?_Doraise@bad_alloc@std@@MBEXXZ 10026738 f i libcpmt:nomemory.obj
 0001:00025755       ??_Ebad_alloc@std@@UAEPAXI@Z 10026755 f i libcpmt:nomemory.obj
 0001:00025755       ??_Gbad_alloc@std@@UAEPAXI@Z 10026755 f i libcpmt:nomemory.obj
 0001:00025771       ??0bad_alloc@std@@QAE@ABV01@@Z 10026771 f i libcpmt:nomemory.obj
 0001:00025793       ?_Makewloc@_Locimp@locale@std@@CAXABV_Locinfo@3@HPAV123@PBV23@@Z 10026793 f   libcpmt:wlocale.obj
 0001:00025ce5       ??1_Timevec@std@@QAE@XZ    10026ce5 f i libcpmt:wlocale.obj
 0001:00025cee       ?do_in@?$codecvt@GDH@std@@MBEHAAHPBD1AAPBDPAG3AAPAG@Z 10026cee f i libcpmt:wlocale.obj
 0001:00025d70       ?do_out@?$codecvt@GDH@std@@MBEHAAHPBG1AAPBGPAD3AAPAD@Z 10026d70 f i libcpmt:wlocale.obj
 0001:00025e43       ?do_length@?$codecvt@GDH@std@@MBEHAAHPBG1I@Z 10026e43 f i libcpmt:wlocale.obj
 0001:00025e92       ?do_always_noconv@?$codecvt@GDH@std@@MBE_NXZ 10026e92 f i libcpmt:wlocale.obj
 0001:00025e95       ?do_max_length@?$codecvt@GDH@std@@MBEHXZ 10026e95 f i libcpmt:wlocale.obj
 0001:00025e99       ?do_encoding@?$codecvt@GDH@std@@MBEHXZ 10026e99 f i libcpmt:wlocale.obj
 0001:00025e9c       ??_G?$codecvt@GDH@std@@UAEPAXI@Z 10026e9c f i libcpmt:wlocale.obj
 0001:00025e9c       ??_E?$codecvt@GDH@std@@UAEPAXI@Z 10026e9c f i libcpmt:wlocale.obj
 0001:00025eb8       ??1?$codecvt@GDH@std@@UAE@XZ 10026eb8 f i libcpmt:wlocale.obj
 0001:00025ebf       ??1time_base@std@@UAE@XZ   10026ebf f i libcpmt:wlocale.obj
 0001:00025ec6       ??1messages_base@std@@UAE@XZ 10026ec6 f i libcpmt:wlocale.obj
 0001:00025ecd       ?do_is@?$ctype@G@std@@MBE_NFG@Z 10026ecd f i libcpmt:wlocale.obj
 0001:00025ef4       ?do_is@?$ctype@G@std@@MBEPBGPBG0PAF@Z 10026ef4 f i libcpmt:wlocale.obj
 0001:00025f33       ?do_scan_is@?$ctype@G@std@@MBEPBGFPBG0@Z 10026f33 f i libcpmt:wlocale.obj
 0001:00025f5f       ?do_scan_not@?$ctype@G@std@@MBEPBGFPBG0@Z 10026f5f f i libcpmt:wlocale.obj
 0001:00025f8b       ?do_tolower@?$ctype@G@std@@MBEGG@Z 10026f8b f i libcpmt:wlocale.obj
 0001:00025fbc       ?do_tolower@?$ctype@G@std@@MBEPBGPAGPBG@Z 10026fbc f i libcpmt:wlocale.obj
 0001:00025fe9       ?do_toupper@?$ctype@G@std@@MBEGG@Z 10026fe9 f i libcpmt:wlocale.obj
 0001:0002601a       ?do_toupper@?$ctype@G@std@@MBEPBGPAGPBG@Z 1002701a f i libcpmt:wlocale.obj
 0001:00026047       ?do_widen@?$ctype@G@std@@MBEGD@Z 10027047 f i libcpmt:wlocale.obj
 0001:00026056       ?do_widen@?$ctype@G@std@@MBEPBDPBD0PAG@Z 10027056 f i libcpmt:wlocale.obj
 0001:00026083       ?do_narrow@?$ctype@G@std@@MBEDGD@Z 10027083 f i libcpmt:wlocale.obj
 0001:00026090       ?do_narrow@?$ctype@G@std@@MBEPBGPBG0DPAD@Z 10027090 f i libcpmt:wlocale.obj
 0001:000260bc       ?do_put@?$time_put@GV?$ostreambuf_iterator@GU?$char_traits@G@std@@@std@@@std@@MBE?AV?$ostreambuf_iterator@GU?$char_traits@G@std@@@2@V32@AAVios_base@2@PBUtm@@DD@Z 100270bc f i libcpmt:wlocale.obj
 0001:00026198       ?do_get@?$num_get@GV?$istreambuf_iterator@GU?$char_traits@G@std@@@std@@@std@@MBE?AV?$istreambuf_iterator@GU?$char_traits@G@std@@@2@V32@0AAVios_base@2@AAHAA_N@Z 10027198 f i libcpmt:wlocale.obj
 0001:00026342       ?do_get@?$num_get@GV?$istreambuf_iterator@GU?$char_traits@G@std@@@std@@@std@@MBE?AV?$istreambuf_iterator@GU?$char_traits@G@std@@@2@V32@0AAVios_base@2@AAHAAG@Z 10027342 f i libcpmt:wlocale.obj
 0001:0002640e       ?do_get@?$num_get@GV?$istreambuf_iterator@GU?$char_traits@G@std@@@std@@@std@@MBE?AV?$istreambuf_iterator@GU?$char_traits@G@std@@@2@V32@0AAVios_base@2@AAHAAI@Z 1002740e f i libcpmt:wlocale.obj
 0001:000264d6       ?do_get@?$num_get@GV?$istreambuf_iterator@GU?$char_traits@G@std@@@std@@@std@@MBE?AV?$istreambuf_iterator@GU?$char_traits@G@std@@@2@V32@0AAVios_base@2@AAHAAJ@Z 100274d6 f i libcpmt:wlocale.obj
 0001:00026584       ?do_get@?$num_get@GV?$istreambuf_iterator@GU?$char_traits@G@std@@@std@@@std@@MBE?AV?$istreambuf_iterator@GU?$char_traits@G@std@@@2@V32@0AAVios_base@2@AAHAAK@Z 10027584 f i libcpmt:wlocale.obj
 0001:00026632       ?do_get@?$num_get@GV?$istreambuf_iterator@GU?$char_traits@G@std@@@std@@@std@@MBE?AV?$istreambuf_iterator@GU?$char_traits@G@std@@@2@V32@0AAVios_base@2@AAHAAM@Z 10027632 f i libcpmt:wlocale.obj
 0001:000266dc       ?do_get@?$num_get@GV?$istreambuf_iterator@GU?$char_traits@G@std@@@std@@@std@@MBE?AV?$istreambuf_iterator@GU?$char_traits@G@std@@@2@V32@0AAVios_base@2@AAHAAN@Z 100276dc f i libcpmt:wlocale.obj
 0001:00026786       ?do_get@?$num_get@GV?$istreambuf_iterator@GU?$char_traits@G@std@@@std@@@std@@MBE?AV?$istreambuf_iterator@GU?$char_traits@G@std@@@2@V32@0AAVios_base@2@AAHAAO@Z 10027786 f i libcpmt:wlocale.obj
 0001:00026830       ?do_get@?$num_get@GV?$istreambuf_iterator@GU?$char_traits@G@std@@@std@@@std@@MBE?AV?$istreambuf_iterator@GU?$char_traits@G@std@@@2@V32@0AAVios_base@2@AAHAAPAX@Z 10027830 f i libcpmt:wlocale.obj
 0001:0002692e       ?do_put@?$num_put@GV?$ostreambuf_iterator@GU?$char_traits@G@std@@@std@@@std@@MBE?AV?$ostreambuf_iterator@GU?$char_traits@G@std@@@2@V32@AAVios_base@2@G_N@Z 1002792e f i libcpmt:wlocale.obj
 0001:00026ae1       ?do_put@?$num_put@GV?$ostreambuf_iterator@GU?$char_traits@G@std@@@std@@@std@@MBE?AV?$ostreambuf_iterator@GU?$char_traits@G@std@@@2@V32@AAVios_base@2@GJ@Z 10027ae1 f i libcpmt:wlocale.obj
 0001:00026b39       ?do_put@?$num_put@GV?$ostreambuf_iterator@GU?$char_traits@G@std@@@std@@@std@@MBE?AV?$ostreambuf_iterator@GU?$char_traits@G@std@@@2@V32@AAVios_base@2@GK@Z 10027b39 f i libcpmt:wlocale.obj
 0001:00026b91       ?do_put@?$num_put@GV?$ostreambuf_iterator@GU?$char_traits@G@std@@@std@@@std@@MBE?AV?$ostreambuf_iterator@GU?$char_traits@G@std@@@2@V32@AAVios_base@2@GN@Z 10027b91 f i libcpmt:wlocale.obj
 0001:00026c0f       ?do_put@?$num_put@GV?$ostreambuf_iterator@GU?$char_traits@G@std@@@std@@@std@@MBE?AV?$ostreambuf_iterator@GU?$char_traits@G@std@@@2@V32@AAVios_base@2@GO@Z 10027c0f f i libcpmt:wlocale.obj
 0001:00026c8d       ?do_put@?$num_put@GV?$ostreambuf_iterator@GU?$char_traits@G@std@@@std@@@std@@MBE?AV?$ostreambuf_iterator@GU?$char_traits@G@std@@@2@V32@AAVios_base@2@GPBX@Z 10027c8d f i libcpmt:wlocale.obj
 0001:00026d5f       ?do_decimal_point@?$numpunct@G@std@@MBEGXZ 10027d5f f i libcpmt:wlocale.obj
 0001:00026d64       ?do_thousands_sep@?$numpunct@G@std@@MBEGXZ 10027d64 f i libcpmt:wlocale.obj
 0001:00026d69       ?do_grouping@?$numpunct@G@std@@MBE?AV?$basic_string@DU?$char_traits@D@std@@V?$allocator@D@2@@2@XZ 10027d69 f i libcpmt:wlocale.obj
 0001:00026d9f       ?do_falsename@?$numpunct@G@std@@MBE?AV?$basic_string@GU?$char_traits@G@std@@V?$allocator@G@2@@2@XZ 10027d9f f i libcpmt:wlocale.obj
 0001:00026dd5       ?do_truename@?$numpunct@G@std@@MBE?AV?$basic_string@GU?$char_traits@G@std@@V?$allocator@G@2@@2@XZ 10027dd5 f i libcpmt:wlocale.obj
 0001:00026e0b       ?do_compare@?$collate@G@std@@MBEHPBG000@Z 10027e0b f i libcpmt:wlocale.obj
 0001:00026e4e       ?do_transform@?$collate@G@std@@MBE?AV?$basic_string@GU?$char_traits@G@std@@V?$allocator@G@2@@2@PBG0@Z 10027e4e f i libcpmt:wlocale.obj
 0001:00026f25       ?do_hash@?$collate@G@std@@MBEJPBG0@Z 10027f25 f i libcpmt:wlocale.obj
 0001:00026f47       ?do_open@?$messages@G@std@@MBEHABV?$basic_string@DU?$char_traits@D@std@@V?$allocator@D@2@@2@ABVlocale@2@@Z 10027f47 f i libcpmt:wlocale.obj
 0001:00026f4c       ?do_get@?$messages@G@std@@MBE?AV?$basic_string@GU?$char_traits@G@std@@V?$allocator@G@2@@2@HHHABV32@@Z 10027f4c f i libcpmt:wlocale.obj
 0001:00026fbd       ?do_close@?$messages@G@std@@MBEXH@Z 10027fbd f i libcpmt:wlocale.obj
 0001:00026fc0       ?do_get@?$money_get@GV?$istreambuf_iterator@GU?$char_traits@G@std@@@std@@@std@@MBE?AV?$istreambuf_iterator@GU?$char_traits@G@std@@@2@V32@0_NAAVios_base@2@AAHAAO@Z 10027fc0 f i libcpmt:wlocale.obj
 0001:000270f5       ?do_get@?$money_get@GV?$istreambuf_iterator@GU?$char_traits@G@std@@@std@@@std@@MBE?AV?$istreambuf_iterator@GU?$char_traits@G@std@@@2@V32@0_NAAVios_base@2@AAHAAV?$basic_string@GU?$char_traits@G@std@@V?$allocator@G@2@@2@@Z 100280f5 f i libcpmt:wlocale.obj
 0001:0002717f       ?do_put@?$money_put@GV?$ostreambuf_iterator@GU?$char_traits@G@std@@@std@@@std@@MBE?AV?$ostreambuf_iterator@GU?$char_traits@G@std@@@2@V32@_NAAVios_base@2@GO@Z 1002817f f i libcpmt:wlocale.obj
 0001:000272b3       ?do_put@?$money_put@GV?$ostreambuf_iterator@GU?$char_traits@G@std@@@std@@@std@@MBE?AV?$ostreambuf_iterator@GU?$char_traits@G@std@@@2@V32@_NAAVios_base@2@GABV?$basic_string@GU?$char_traits@G@std@@V?$allocator@G@2@@2@@Z 100282b3 f i libcpmt:wlocale.obj
 0001:000273ef       ?do_decimal_point@?$_Mpunct@G@std@@MBEGXZ 100283ef f i libcpmt:wlocale.obj
 0001:000273f4       ?do_thousands_sep@?$_Mpunct@G@std@@MBEGXZ 100283f4 f i libcpmt:wlocale.obj
 0001:000273f9       ?do_grouping@?$_Mpunct@G@std@@MBE?AV?$basic_string@DU?$char_traits@D@std@@V?$allocator@D@2@@2@XZ 100283f9 f i libcpmt:wlocale.obj
 0001:0002742f       ?do_curr_symbol@?$_Mpunct@G@std@@MBE?AV?$basic_string@GU?$char_traits@G@std@@V?$allocator@G@2@@2@XZ 1002842f f i libcpmt:wlocale.obj
 0001:00027465       ?do_positive_sign@?$_Mpunct@G@std@@MBE?AV?$basic_string@GU?$char_traits@G@std@@V?$allocator@G@2@@2@XZ 10028465 f i libcpmt:wlocale.obj
 0001:0002749b       ?do_negative_sign@?$_Mpunct@G@std@@MBE?AV?$basic_string@GU?$char_traits@G@std@@V?$allocator@G@2@@2@XZ 1002849b f i libcpmt:wlocale.obj
 0001:000274d1       ?do_frac_digits@?$_Mpunct@G@std@@MBEHXZ 100284d1 f i libcpmt:wlocale.obj
 0001:000274d5       ?do_pos_format@?$_Mpunct@G@std@@MBE?AUpattern@money_base@2@XZ 100284d5 f i libcpmt:wlocale.obj
 0001:000274e1       ?do_neg_format@?$_Mpunct@G@std@@MBE?AUpattern@money_base@2@XZ 100284e1 f i libcpmt:wlocale.obj
 0001:000274ed       ?do_date_order@?$time_get@GV?$istreambuf_iterator@GU?$char_traits@G@std@@@std@@@std@@MBEHXZ 100284ed f i libcpmt:wlocale.obj
 0001:000274f1       ?do_get_time@?$time_get@GV?$istreambuf_iterator@GU?$char_traits@G@std@@@std@@@std@@MBE?AV?$istreambuf_iterator@GU?$char_traits@G@std@@@2@V32@0AAVios_base@2@AAHPAUtm@@@Z 100284f1 f i libcpmt:wlocale.obj
 0001:000275b5       ?do_get_date@?$time_get@GV?$istreambuf_iterator@GU?$char_traits@G@std@@@std@@@std@@MBE?AV?$istreambuf_iterator@GU?$char_traits@G@std@@@2@V32@0AAVios_base@2@AAHPAUtm@@@Z 100285b5 f i libcpmt:wlocale.obj
 0001:000276e6       ?do_get_weekday@?$time_get@GV?$istreambuf_iterator@GU?$char_traits@G@std@@@std@@@std@@MBE?AV?$istreambuf_iterator@GU?$char_traits@G@std@@@2@V32@0AAVios_base@2@AAHPAUtm@@@Z 100286e6 f i libcpmt:wlocale.obj
 0001:00027724       ?do_get_monthname@?$time_get@GV?$istreambuf_iterator@GU?$char_traits@G@std@@@std@@@std@@MBE?AV?$istreambuf_iterator@GU?$char_traits@G@std@@@2@V32@0AAVios_base@2@AAHPAUtm@@@Z 10028724 f i libcpmt:wlocale.obj
 0001:00027762       ?do_get_year@?$time_get@GV?$istreambuf_iterator@GU?$char_traits@G@std@@@std@@@std@@MBE?AV?$istreambuf_iterator@GU?$char_traits@G@std@@@2@V32@0AAVios_base@2@AAHPAUtm@@@Z 10028762 f i libcpmt:wlocale.obj
 0001:000277c8       ??_G?$ctype@G@std@@UAEPAXI@Z 100287c8 f i libcpmt:wlocale.obj
 0001:000277c8       ??_E?$ctype@G@std@@UAEPAXI@Z 100287c8 f i libcpmt:wlocale.obj
 0001:000277e4       ??1?$ctype@G@std@@UAE@XZ   100287e4 f i libcpmt:wlocale.obj
 0001:00027804       ??_G?$time_put@GV?$ostreambuf_iterator@GU?$char_traits@G@std@@@std@@@std@@UAEPAXI@Z 10028804 f i libcpmt:wlocale.obj
 0001:00027804       ??_E?$time_put@GV?$ostreambuf_iterator@GU?$char_traits@G@std@@@std@@@std@@UAEPAXI@Z 10028804 f i libcpmt:wlocale.obj
 0001:00027820       ??1?$time_put@GV?$ostreambuf_iterator@GU?$char_traits@G@std@@@std@@@std@@UAE@XZ 10028820 f i libcpmt:wlocale.obj
 0001:0002783a       ??_E?$num_get@GV?$istreambuf_iterator@GU?$char_traits@G@std@@@std@@@std@@UAEPAXI@Z 1002883a f i libcpmt:wlocale.obj
 0001:0002783a       ??_G?$num_get@GV?$istreambuf_iterator@GU?$char_traits@G@std@@@std@@@std@@UAEPAXI@Z 1002883a f i libcpmt:wlocale.obj
 0001:00027856       ??1?$num_get@GV?$istreambuf_iterator@GU?$char_traits@G@std@@@std@@@std@@UAE@XZ 10028856 f i libcpmt:wlocale.obj
 0001:0002785d       ??_E?$num_put@GV?$ostreambuf_iterator@GU?$char_traits@G@std@@@std@@@std@@UAEPAXI@Z 1002885d f i libcpmt:wlocale.obj
 0001:0002785d       ??_G?$num_put@GV?$ostreambuf_iterator@GU?$char_traits@G@std@@@std@@@std@@UAEPAXI@Z 1002885d f i libcpmt:wlocale.obj
 0001:00027879       ??1?$num_put@GV?$ostreambuf_iterator@GU?$char_traits@G@std@@@std@@@std@@UAE@XZ 10028879 f i libcpmt:wlocale.obj
 0001:00027880       ??_E?$numpunct@G@std@@UAEPAXI@Z 10028880 f i libcpmt:wlocale.obj
 0001:00027880       ??_G?$numpunct@G@std@@UAEPAXI@Z 10028880 f i libcpmt:wlocale.obj
 0001:0002789c       ??1?$numpunct@G@std@@UAE@XZ 1002889c f i libcpmt:wlocale.obj
 0001:000278c8       ??_E?$collate@G@std@@UAEPAXI@Z 100288c8 f i libcpmt:wlocale.obj
 0001:000278c8       ??_G?$collate@G@std@@UAEPAXI@Z 100288c8 f i libcpmt:wlocale.obj
 0001:000278e4       ??1?$collate@G@std@@UAE@XZ 100288e4 f i libcpmt:wlocale.obj
 0001:000278eb       ??_G?$messages@G@std@@UAEPAXI@Z 100288eb f i libcpmt:wlocale.obj
 0001:000278eb       ??_E?$messages@G@std@@UAEPAXI@Z 100288eb f i libcpmt:wlocale.obj
 0001:00027907       ??1?$messages@G@std@@UAE@XZ 10028907 f i libcpmt:wlocale.obj
 0001:0002792a       ??_G?$money_get@GV?$istreambuf_iterator@GU?$char_traits@G@std@@@std@@@std@@UAEPAXI@Z 1002892a f i libcpmt:wlocale.obj
 0001:0002792a       ??_E?$money_get@GV?$istreambuf_iterator@GU?$char_traits@G@std@@@std@@@std@@UAEPAXI@Z 1002892a f i libcpmt:wlocale.obj
 0001:00027946       ??1?$money_get@GV?$istreambuf_iterator@GU?$char_traits@G@std@@@std@@@std@@UAE@XZ 10028946 f i libcpmt:wlocale.obj
 0001:0002794d       ??_G?$money_put@GV?$ostreambuf_iterator@GU?$char_traits@G@std@@@std@@@std@@UAEPAXI@Z 1002894d f i libcpmt:wlocale.obj
 0001:0002794d       ??_E?$money_put@GV?$ostreambuf_iterator@GU?$char_traits@G@std@@@std@@@std@@UAEPAXI@Z 1002894d f i libcpmt:wlocale.obj
 0001:00027969       ??1?$money_put@GV?$ostreambuf_iterator@GU?$char_traits@G@std@@@std@@@std@@UAE@XZ 10028969 f i libcpmt:wlocale.obj
 0001:00027970       ??_G?$moneypunct@G$0A@@std@@UAEPAXI@Z 10028970 f i libcpmt:wlocale.obj
 0001:00027970       ??_E?$moneypunct@G$0A@@std@@UAEPAXI@Z 10028970 f i libcpmt:wlocale.obj
 0001:0002798c       ??_E?$moneypunct@G$00@std@@UAEPAXI@Z 1002898c f i libcpmt:wlocale.obj
 0001:0002798c       ??_G?$moneypunct@G$00@std@@UAEPAXI@Z 1002898c f i libcpmt:wlocale.obj
 0001:000279a8       ??_G?$time_get@GV?$istreambuf_iterator@GU?$char_traits@G@std@@@std@@@std@@UAEPAXI@Z 100289a8 f i libcpmt:wlocale.obj
 0001:000279a8       ??_E?$time_get@GV?$istreambuf_iterator@GU?$char_traits@G@std@@@std@@@std@@UAEPAXI@Z 100289a8 f i libcpmt:wlocale.obj
 0001:000279c4       ??1?$time_get@GV?$istreambuf_iterator@GU?$char_traits@G@std@@@std@@@std@@UAE@XZ 100289c4 f i libcpmt:wlocale.obj
 0001:000279e7       ??1?$moneypunct@G$0A@@std@@UAE@XZ 100289e7 f i libcpmt:wlocale.obj
 0001:000279ec       ??1?$_Mpunct@G@std@@UAE@XZ 100289ec f i libcpmt:wlocale.obj
 0001:00027a20       ??_E?$_Mpunct@G@std@@UAEPAXI@Z 10028a20 f i libcpmt:wlocale.obj
 0001:00027a20       ??_G?$_Mpunct@G@std@@UAEPAXI@Z 10028a20 f i libcpmt:wlocale.obj
 0001:00027a3c       ??1?$moneypunct@G$00@std@@UAE@XZ 10028a3c f i libcpmt:wlocale.obj
 0001:00027a41       ?_Init@?$time_put@GV?$ostreambuf_iterator@GU?$char_traits@G@std@@@std@@@std@@IAEXABV_Locinfo@2@@Z 10028a41 f i libcpmt:wlocale.obj
 0001:00027a69       ?_Gettnames@_Locinfo@std@@QBE?AV_Timevec@2@XZ 10028a69 f i libcpmt:wlocale.obj
 0001:00027a81       ??4?$ostreambuf_iterator@GU?$char_traits@G@std@@@std@@QAEAAV01@G@Z 10028a81 f i libcpmt:wlocale.obj
 0001:00027aa3       ?sputc@?$basic_streambuf@GU?$char_traits@G@std@@@std@@QAEGG@Z 10028aa3 f i libcpmt:wlocale.obj
 0001:00027ad4       ?_Getifld@?$num_get@GV?$istreambuf_iterator@GU?$char_traits@G@std@@@std@@@std@@CAHPADAAV?$istreambuf_iterator@GU?$char_traits@G@std@@@2@1HABVlocale@2@@Z 10028ad4 f i libcpmt:wlocale.obj
 0001:00027ea3       ?_Getffld@?$num_get@GV?$istreambuf_iterator@GU?$char_traits@G@std@@@std@@@std@@CAHPADAAV?$istreambuf_iterator@GU?$char_traits@G@std@@@2@1ABVlocale@2@@Z 10028ea3 f i libcpmt:wlocale.obj
 0001:000281ee       ?_Ffmt@?$num_put@GV?$ostreambuf_iterator@GU?$char_traits@G@std@@@std@@@std@@KAPADPADDH@Z 100291ee f i libcpmt:wlocale.obj
 0001:0002824c       ?_Fput@?$num_put@GV?$ostreambuf_iterator@GU?$char_traits@G@std@@@std@@@std@@KA?AV?$ostreambuf_iterator@GU?$char_traits@G@std@@@2@V32@AAVios_base@2@GPBDII@Z 1002924c f i libcpmt:wlocale.obj
 0001:00028531       ?_Ifmt@?$num_put@GV?$ostreambuf_iterator@GU?$char_traits@G@std@@@std@@@std@@KAPADPADDH@Z 10029531 f i libcpmt:wlocale.obj
 0001:0002858b       ?_Iput@?$num_put@GV?$ostreambuf_iterator@GU?$char_traits@G@std@@@std@@@std@@KA?AV?$ostreambuf_iterator@GU?$char_traits@G@std@@@2@V32@AAVios_base@2@GPADI@Z 1002958b f i libcpmt:wlocale.obj
 0001:00028839       ?falsename@?$numpunct@G@std@@QBE?AV?$basic_string@GU?$char_traits@G@std@@V?$allocator@G@2@@2@XZ 10029839 f i libcpmt:wlocale.obj
 0001:00028850       ?truename@?$numpunct@G@std@@QBE?AV?$basic_string@GU?$char_traits@G@std@@V?$allocator@G@2@@2@XZ 10029850 f i libcpmt:wlocale.obj
 0001:00028867       ?_Init@?$numpunct@G@std@@IAEXABV_Locinfo@2@@Z 10029867 f i libcpmt:wlocale.obj
 0001:000288c4       ?_Init@?$messages@G@std@@IAEXABV_Locinfo@2@@Z 100298c4 f i libcpmt:wlocale.obj
 0001:000288ec       ?_Getmfld@?$money_get@GV?$istreambuf_iterator@GU?$char_traits@G@std@@@std@@@std@@ABE?AV?$basic_string@GU?$char_traits@G@std@@V?$allocator@G@2@@2@AAV?$istreambuf_iterator@GU?$char_traits@G@std@@@2@0_NAAVios_base@2@@Z 100298ec f i libcpmt:wlocale.obj
 0001:0002919a       ?_Putmfld@?$money_put@GV?$ostreambuf_iterator@GU?$char_traits@G@std@@@std@@@std@@ABE?AV?$ostreambuf_iterator@GU?$char_traits@G@std@@@2@V32@_NAAVios_base@2@G1V?$basic_string@GU?$char_traits@G@std@@V?$allocator@G@2@@2@@Z 1002a19a f i libcpmt:wlocale.obj
 0001:00029768       ??1?$basic_string@GU?$char_traits@G@std@@V?$allocator@G@2@@std@@QAE@XZ 1002a768 f i libcpmt:wlocale.obj
 0001:00029770       ?append@?$basic_string@GU?$char_traits@G@std@@V?$allocator@G@2@@std@@QAEAAV12@IG@Z 1002a770 f i libcpmt:wlocale.obj
 0001:000297d9       ?resize@?$basic_string@GU?$char_traits@G@std@@V?$allocator@G@2@@std@@QAEXI@Z 1002a7d9 f i libcpmt:wlocale.obj
 0001:000297ff       ??0?$_Mpunct@G@std@@QAE@ABV_Locinfo@1@I_N@Z 1002a7ff f i libcpmt:wlocale.obj
 0001:0002983f       ??1money_base@std@@UAE@XZ  1002a83f f i libcpmt:wlocale.obj
 0001:00029846       ?_Init@?$time_get@GV?$istreambuf_iterator@GU?$char_traits@G@std@@@std@@@std@@IAEXABV_Locinfo@2@@Z 1002a846 f i libcpmt:wlocale.obj
 0001:00029879       ?_Getdays@_Locinfo@std@@QBEPBDXZ 1002a879 f i libcpmt:wlocale.obj
 0001:000298bf       ?_Getmonths@_Locinfo@std@@QBEPBDXZ 1002a8bf f i libcpmt:wlocale.obj
 0001:00029906       ?_Getint@?$time_get@GV?$istreambuf_iterator@GU?$char_traits@G@std@@@std@@@std@@CAHAAV?$istreambuf_iterator@GU?$char_traits@G@std@@@2@0HHAAH@Z 1002a906 f i libcpmt:wlocale.obj
 0001:00029a5d       ?_Inc@?$istreambuf_iterator@GU?$char_traits@G@std@@@std@@AAEXXZ 1002aa5d f i libcpmt:wlocale.obj
 0001:00029a80       ?sbumpc@?$basic_streambuf@GU?$char_traits@G@std@@@std@@QAEGXZ 1002aa80 f i libcpmt:wlocale.obj
 0001:00029aa4       ?_Peek@?$istreambuf_iterator@GU?$char_traits@G@std@@@std@@AAEGXZ 1002aaa4 f i libcpmt:wlocale.obj
 0001:00029acb       ?sgetc@?$basic_streambuf@GU?$char_traits@G@std@@@std@@QAEGXZ 1002aacb f i libcpmt:wlocale.obj
 0001:00029aea       ?grouping@?$numpunct@G@std@@QBE?AV?$basic_string@DU?$char_traits@D@std@@V?$allocator@D@2@@2@XZ 1002aaea f i libcpmt:wlocale.obj
 0001:00029b01       ?assign@?$basic_string@GU?$char_traits@G@std@@V?$allocator@G@2@@std@@QAEAAV12@ABV12@II@Z 1002ab01 f i libcpmt:wlocale.obj
 0001:00029bdf       ?assign@?$basic_string@GU?$char_traits@G@std@@V?$allocator@G@2@@std@@QAEAAV12@PBGI@Z 1002abdf f i libcpmt:wlocale.obj
 0001:00029c21       ?assign@?$basic_string@GU?$char_traits@G@std@@V?$allocator@G@2@@std@@QAEAAV12@IG@Z 1002ac21 f i libcpmt:wlocale.obj
 0001:00029c79       ?insert@?$basic_string@GU?$char_traits@G@std@@V?$allocator@G@2@@std@@QAEAAV12@IIG@Z 1002ac79 f i libcpmt:wlocale.obj
 0001:00029d0e       _wmemmove                  1002ad0e f i libcpmt:wlocale.obj
 0001:00029d53       ?erase@?$basic_string@GU?$char_traits@G@std@@V?$allocator@G@2@@std@@QAEAAV12@II@Z 1002ad53 f i libcpmt:wlocale.obj
 0001:00029dbf       ?_Freeze@?$basic_string@GU?$char_traits@G@std@@V?$allocator@G@2@@std@@AAEXXZ 1002adbf f i libcpmt:wlocale.obj
 0001:00029deb       ?_Grow@?$basic_string@GU?$char_traits@G@std@@V?$allocator@G@2@@std@@AAE_NI_N@Z 1002adeb f i libcpmt:wlocale.obj
 0001:00029e74       ?_Tidy@?$basic_string@GU?$char_traits@G@std@@V?$allocator@G@2@@std@@AAEX_N@Z 1002ae74 f i libcpmt:wlocale.obj
 0001:00029eb1       ?grouping@?$_Mpunct@G@std@@QBE?AV?$basic_string@DU?$char_traits@D@std@@V?$allocator@D@2@@2@XZ 1002aeb1 f i libcpmt:wlocale.obj
 0001:00029ec8       ?curr_symbol@?$_Mpunct@G@std@@QBE?AV?$basic_string@GU?$char_traits@G@std@@V?$allocator@G@2@@2@XZ 1002aec8 f i libcpmt:wlocale.obj
 0001:00029edf       ?positive_sign@?$_Mpunct@G@std@@QBE?AV?$basic_string@GU?$char_traits@G@std@@V?$allocator@G@2@@2@XZ 1002aedf f i libcpmt:wlocale.obj
 0001:00029ef6       ?negative_sign@?$_Mpunct@G@std@@QBE?AV?$basic_string@GU?$char_traits@G@std@@V?$allocator@G@2@@2@XZ 1002aef6 f i libcpmt:wlocale.obj
 0001:00029f0d       ?_Init@?$_Mpunct@G@std@@IAEXABV_Locinfo@2@@Z 1002af0d f i libcpmt:wlocale.obj
 0001:00029ff8       ?append@?$basic_string@GU?$char_traits@G@std@@V?$allocator@G@2@@std@@QAEAAV12@ABV12@II@Z 1002aff8 f i libcpmt:wlocale.obj
 0001:0002a08a       ?_Copy@?$basic_string@GU?$char_traits@G@std@@V?$allocator@G@2@@std@@AAEXI@Z 1002b08a f i libcpmt:wlocale.obj
 0001:0002a15c       ?_Split@?$basic_string@GU?$char_traits@G@std@@V?$allocator@G@2@@std@@AAEXXZ 1002b15c f i libcpmt:wlocale.obj
 0001:0002a18c       ?_Makpat@?$_Mpunct@G@std@@AAEXAAUpattern@money_base@2@DDD@Z 1002b18c f i libcpmt:wlocale.obj
 0001:0002a1ed       ?use_facet@std@@YAABV?$ctype@G@1@ABVlocale@1@PBV21@_N@Z 1002b1ed f i libcpmt:wlocale.obj
 0001:0002a2b1       ?use_facet@std@@YAABV?$num_get@GV?$istreambuf_iterator@GU?$char_traits@G@std@@@std@@@1@ABVlocale@1@PBV21@_N@Z 1002b2b1 f i libcpmt:wlocale.obj
 0001:0002a38d       ?use_facet@std@@YAABV?$num_put@GV?$ostreambuf_iterator@GU?$char_traits@G@std@@@std@@@1@ABVlocale@1@PBV21@_N@Z 1002b38d f i libcpmt:wlocale.obj
 0001:0002a469       ?use_facet@std@@YAABV?$numpunct@G@1@ABVlocale@1@PBV21@_N@Z 1002b469 f i libcpmt:wlocale.obj
 0001:0002a52d       ?use_facet@std@@YAABV?$collate@G@1@ABVlocale@1@PBV21@_N@Z 1002b52d f i libcpmt:wlocale.obj
 0001:0002a5f1       ?use_facet@std@@YAABV?$messages@G@1@ABVlocale@1@PBV21@_N@Z 1002b5f1 f i libcpmt:wlocale.obj
 0001:0002a6b5       ?use_facet@std@@YAABV?$money_get@GV?$istreambuf_iterator@GU?$char_traits@G@std@@@std@@@1@ABVlocale@1@PBV21@_N@Z 1002b6b5 f i libcpmt:wlocale.obj
 0001:0002a791       ?use_facet@std@@YAABV?$money_put@GV?$ostreambuf_iterator@GU?$char_traits@G@std@@@std@@@1@ABVlocale@1@PBV21@_N@Z 1002b791 f i libcpmt:wlocale.obj
 0001:0002a86d       ?use_facet@std@@YAABV?$moneypunct@G$0A@@1@ABVlocale@1@PBV21@_N@Z 1002b86d f i libcpmt:wlocale.obj
 0001:0002a93c       ?use_facet@std@@YAABV?$moneypunct@G$00@1@ABVlocale@1@PBV21@_N@Z 1002b93c f i libcpmt:wlocale.obj
 0001:0002aa0b       ?use_facet@std@@YAABV?$time_get@GV?$istreambuf_iterator@GU?$char_traits@G@std@@@std@@@1@ABVlocale@1@PBV21@_N@Z 1002ba0b f i libcpmt:wlocale.obj
 0001:0002aacf       ?use_facet@std@@YAABV?$time_put@GV?$ostreambuf_iterator@GU?$char_traits@G@std@@@std@@@1@ABVlocale@1@PBV21@_N@Z 1002bacf f i libcpmt:wlocale.obj
 0001:0002ab93       ?use_facet@std@@YAABV?$codecvt@GDH@1@ABVlocale@1@PBV21@_N@Z 1002bb93 f i libcpmt:wlocale.obj
 0001:0002ac57       ??0?$codecvt@GDH@std@@QAE@I@Z 1002bc57 f i libcpmt:wlocale.obj
 0001:0002acab       ?_Getloctxt@std@@YAHAAV?$istreambuf_iterator@GU?$char_traits@G@std@@@1@0IPBG@Z 1002bcab f i libcpmt:wlocale.obj
 0001:0002ae77       ?_Maklocstr@std@@YAPAGPBDPAG@Z 1002be77 f i libcpmt:wlocale.obj
 0001:0002aeb5       ??0?$ctype@G@std@@QAE@I@Z  1002beb5 f i libcpmt:wlocale.obj
 0001:0002af15       ??0?$time_put@GV?$ostreambuf_iterator@GU?$char_traits@G@std@@@std@@@std@@QAE@I@Z 1002bf15 f i libcpmt:wlocale.obj
 0001:0002af82       ?equal@?$istreambuf_iterator@GU?$char_traits@G@std@@@std@@QBE_NABV12@@Z 1002bf82 f i libcpmt:wlocale.obj
 0001:0002afc1       ??0?$numpunct@G@std@@QAE@I@Z 1002bfc1 f i libcpmt:wlocale.obj
 0001:0002b01a       ??0?$collate@G@std@@QAE@I@Z 1002c01a f i libcpmt:wlocale.obj
 0001:0002b06e       ??0?$messages@G@std@@QAE@I@Z 1002c06e f i libcpmt:wlocale.obj
 0001:0002b0e0       ??0?$time_get@GV?$istreambuf_iterator@GU?$char_traits@G@std@@@std@@@std@@QAE@I@Z 1002c0e0 f i libcpmt:wlocale.obj
 0001:0002b139       ?_Save@?$_Tidyfac@V?$ctype@G@std@@@std@@SAPAV?$ctype@G@2@PAV32@@Z 1002c139 f i libcpmt:wlocale.obj
 0001:0002b187       ?_Save@?$_Tidyfac@V?$num_get@GV?$istreambuf_iterator@GU?$char_traits@G@std@@@std@@@std@@@std@@SAPAV?$num_get@GV?$istreambuf_iterator@GU?$char_traits@G@std@@@std@@@2@PAV32@@Z 1002c187 f i libcpmt:wlocale.obj
 0001:0002b1d5       ?_Save@?$_Tidyfac@V?$num_put@GV?$ostreambuf_iterator@GU?$char_traits@G@std@@@std@@@std@@@std@@SAPAV?$num_put@GV?$ostreambuf_iterator@GU?$char_traits@G@std@@@std@@@2@PAV32@@Z 1002c1d5 f i libcpmt:wlocale.obj
 0001:0002b223       ?_Save@?$_Tidyfac@V?$numpunct@G@std@@@std@@SAPAV?$numpunct@G@2@PAV32@@Z 1002c223 f i libcpmt:wlocale.obj
 0001:0002b271       ?_Save@?$_Tidyfac@V?$collate@G@std@@@std@@SAPAV?$collate@G@2@PAV32@@Z 1002c271 f i libcpmt:wlocale.obj
 0001:0002b2bf       ?_Save@?$_Tidyfac@V?$messages@G@std@@@std@@SAPAV?$messages@G@2@PAV32@@Z 1002c2bf f i libcpmt:wlocale.obj
 0001:0002b30d       ?_Save@?$_Tidyfac@V?$money_get@GV?$istreambuf_iterator@GU?$char_traits@G@std@@@std@@@std@@@std@@SAPAV?$money_get@GV?$istreambuf_iterator@GU?$char_traits@G@std@@@std@@@2@PAV32@@Z 1002c30d f i libcpmt:wlocale.obj
 0001:0002b35b       ?_Save@?$_Tidyfac@V?$money_put@GV?$ostreambuf_iterator@GU?$char_traits@G@std@@@std@@@std@@@std@@SAPAV?$money_put@GV?$ostreambuf_iterator@GU?$char_traits@G@std@@@std@@@2@PAV32@@Z 1002c35b f i libcpmt:wlocale.obj
 0001:0002b3a9       ?_Save@?$_Tidyfac@V?$moneypunct@G$0A@@std@@@std@@SAPAV?$moneypunct@G$0A@@2@PAV32@@Z 1002c3a9 f i libcpmt:wlocale.obj
 0001:0002b3f7       ?_Save@?$_Tidyfac@V?$moneypunct@G$00@std@@@std@@SAPAV?$moneypunct@G$00@2@PAV32@@Z 1002c3f7 f i libcpmt:wlocale.obj
 0001:0002b445       ?_Save@?$_Tidyfac@V?$time_get@GV?$istreambuf_iterator@GU?$char_traits@G@std@@@std@@@std@@@std@@SAPAV?$time_get@GV?$istreambuf_iterator@GU?$char_traits@G@std@@@std@@@2@PAV32@@Z 1002c445 f i libcpmt:wlocale.obj
 0001:0002b493       ?_Save@?$_Tidyfac@V?$time_put@GV?$ostreambuf_iterator@GU?$char_traits@G@std@@@std@@@std@@@std@@SAPAV?$time_put@GV?$ostreambuf_iterator@GU?$char_traits@G@std@@@std@@@2@PAV32@@Z 1002c493 f i libcpmt:wlocale.obj
 0001:0002b4e1       ?_Save@?$_Tidyfac@V?$codecvt@GDH@std@@@std@@SAPAV?$codecvt@GDH@2@PAV32@@Z 1002c4e1 f i libcpmt:wlocale.obj
 0001:0002b52f       ??0?$_Mpunct@G@std@@QAE@I_N@Z 1002c52f f i libcpmt:wlocale.obj
 0001:0002b58e       ?_Tidy@?$_Tidyfac@V?$ctype@G@std@@@std@@SAXXZ 1002c58e f i libcpmt:wlocale.obj
 0001:0002b5db       ?_Tidy@?$_Tidyfac@V?$num_get@GV?$istreambuf_iterator@GU?$char_traits@G@std@@@std@@@std@@@std@@SAXXZ 1002c5db f i libcpmt:wlocale.obj
 0001:0002b628       ?_Tidy@?$_Tidyfac@V?$num_put@GV?$ostreambuf_iterator@GU?$char_traits@G@std@@@std@@@std@@@std@@SAXXZ 1002c628 f i libcpmt:wlocale.obj
 0001:0002b675       ?_Tidy@?$_Tidyfac@V?$numpunct@G@std@@@std@@SAXXZ 1002c675 f i libcpmt:wlocale.obj
 0001:0002b6c2       ?_Tidy@?$_Tidyfac@V?$collate@G@std@@@std@@SAXXZ 1002c6c2 f i libcpmt:wlocale.obj
 0001:0002b70f       ?_Tidy@?$_Tidyfac@V?$messages@G@std@@@std@@SAXXZ 1002c70f f i libcpmt:wlocale.obj
 0001:0002b75c       ?_Tidy@?$_Tidyfac@V?$money_get@GV?$istreambuf_iterator@GU?$char_traits@G@std@@@std@@@std@@@std@@SAXXZ 1002c75c f i libcpmt:wlocale.obj
 0001:0002b7a9       ?_Tidy@?$_Tidyfac@V?$money_put@GV?$ostreambuf_iterator@GU?$char_traits@G@std@@@std@@@std@@@std@@SAXXZ 1002c7a9 f i libcpmt:wlocale.obj
 0001:0002b7f6       ?_Tidy@?$_Tidyfac@V?$moneypunct@G$0A@@std@@@std@@SAXXZ 1002c7f6 f i libcpmt:wlocale.obj
 0001:0002b843       ?_Tidy@?$_Tidyfac@V?$moneypunct@G$00@std@@@std@@SAXXZ 1002c843 f i libcpmt:wlocale.obj
 0001:0002b890       ?_Tidy@?$_Tidyfac@V?$time_get@GV?$istreambuf_iterator@GU?$char_traits@G@std@@@std@@@std@@@std@@SAXXZ 1002c890 f i libcpmt:wlocale.obj
 0001:0002b8dd       ?_Tidy@?$_Tidyfac@V?$time_put@GV?$ostreambuf_iterator@GU?$char_traits@G@std@@@std@@@std@@@std@@SAXXZ 1002c8dd f i libcpmt:wlocale.obj
 0001:0002b92a       ?_Tidy@?$_Tidyfac@V?$codecvt@GDH@std@@@std@@SAXXZ 1002c92a f i libcpmt:wlocale.obj
 0001:0002b998       ?_Makexloc@_Locimp@locale@std@@CAXABV_Locinfo@3@HPAV123@PBV23@@Z 1002c998 f   libcpmt:xlocale.obj
 0001:0002bcf0       ?do_compare@?$collate@D@std@@MBEHPBD000@Z 1002ccf0 f i libcpmt:xlocale.obj
 0001:0002bd2e       ?do_transform@?$collate@D@std@@MBE?AV?$basic_string@DU?$char_traits@D@std@@V?$allocator@D@2@@2@PBD0@Z 1002cd2e f i libcpmt:xlocale.obj
 0001:0002bdfd       ?do_hash@?$collate@D@std@@MBEJPBD0@Z 1002cdfd f i libcpmt:xlocale.obj
 0001:0002be1e       ?do_open@?$messages@D@std@@MBEHABV?$basic_string@DU?$char_traits@D@std@@V?$allocator@D@2@@2@ABVlocale@2@@Z 1002ce1e f i libcpmt:xlocale.obj
 0001:0002be23       ?do_get@?$messages@D@std@@MBE?AV?$basic_string@DU?$char_traits@D@std@@V?$allocator@D@2@@2@HHHABV32@@Z 1002ce23 f i libcpmt:xlocale.obj
 0001:0002be94       ?do_close@?$messages@D@std@@MBEXH@Z 1002ce94 f i libcpmt:xlocale.obj
 0001:0002be97       ?do_get@?$money_get@DV?$istreambuf_iterator@DU?$char_traits@D@std@@@std@@@std@@MBE?AV?$istreambuf_iterator@DU?$char_traits@D@std@@@2@V32@0_NAAVios_base@2@AAHAAO@Z 1002ce97 f i libcpmt:xlocale.obj
 0001:0002bfc5       ?do_get@?$money_get@DV?$istreambuf_iterator@DU?$char_traits@D@std@@@std@@@std@@MBE?AV?$istreambuf_iterator@DU?$char_traits@D@std@@@2@V32@0_NAAVios_base@2@AAHAAV?$basic_string@DU?$char_traits@D@std@@V?$allocator@D@2@@2@@Z 1002cfc5 f i libcpmt:xlocale.obj
 0001:0002c04f       ?do_put@?$money_put@DV?$ostreambuf_iterator@DU?$char_traits@D@std@@@std@@@std@@MBE?AV?$ostreambuf_iterator@DU?$char_traits@D@std@@@2@V32@_NAAVios_base@2@DO@Z 1002d04f f i libcpmt:xlocale.obj
 0001:0002c179       ?do_put@?$money_put@DV?$ostreambuf_iterator@DU?$char_traits@D@std@@@std@@@std@@MBE?AV?$ostreambuf_iterator@DU?$char_traits@D@std@@@2@V32@_NAAVios_base@2@DABV?$basic_string@DU?$char_traits@D@std@@V?$allocator@D@2@@2@@Z 1002d179 f i libcpmt:xlocale.obj
 0001:0002c291       ?do_decimal_point@?$_Mpunct@D@std@@MBEDXZ 1002d291 f i libcpmt:xlocale.obj
 0001:0002c295       ?do_thousands_sep@?$_Mpunct@D@std@@MBEDXZ 1002d295 f i libcpmt:xlocale.obj
 0001:0002c299       ?do_grouping@?$_Mpunct@D@std@@MBE?AV?$basic_string@DU?$char_traits@D@std@@V?$allocator@D@2@@2@XZ 1002d299 f i libcpmt:xlocale.obj
 0001:0002c2cf       ?do_curr_symbol@?$_Mpunct@D@std@@MBE?AV?$basic_string@DU?$char_traits@D@std@@V?$allocator@D@2@@2@XZ 1002d2cf f i libcpmt:xlocale.obj
 0001:0002c305       ?do_positive_sign@?$_Mpunct@D@std@@MBE?AV?$basic_string@DU?$char_traits@D@std@@V?$allocator@D@2@@2@XZ 1002d305 f i libcpmt:xlocale.obj
 0001:0002c33b       ?do_negative_sign@?$_Mpunct@D@std@@MBE?AV?$basic_string@DU?$char_traits@D@std@@V?$allocator@D@2@@2@XZ 1002d33b f i libcpmt:xlocale.obj
 0001:0002c371       ?do_frac_digits@?$_Mpunct@D@std@@MBEHXZ 1002d371 f i libcpmt:xlocale.obj
 0001:0002c375       ?do_pos_format@?$_Mpunct@D@std@@MBE?AUpattern@money_base@2@XZ 1002d375 f i libcpmt:xlocale.obj
 0001:0002c381       ?do_neg_format@?$_Mpunct@D@std@@MBE?AUpattern@money_base@2@XZ 1002d381 f i libcpmt:xlocale.obj
 0001:0002c38d       ?do_date_order@?$time_get@DV?$istreambuf_iterator@DU?$char_traits@D@std@@@std@@@std@@MBEHXZ 1002d38d f i libcpmt:xlocale.obj
 0001:0002c391       ?do_get_time@?$time_get@DV?$istreambuf_iterator@DU?$char_traits@D@std@@@std@@@std@@MBE?AV?$istreambuf_iterator@DU?$char_traits@D@std@@@2@V32@0AAVios_base@2@AAHPAUtm@@@Z 1002d391 f i libcpmt:xlocale.obj
 0001:0002c442       ?do_get_date@?$time_get@DV?$istreambuf_iterator@DU?$char_traits@D@std@@@std@@@std@@MBE?AV?$istreambuf_iterator@DU?$char_traits@D@std@@@2@V32@0AAVios_base@2@AAHPAUtm@@@Z 1002d442 f i libcpmt:xlocale.obj
 0001:0002c557       ?do_get_weekday@?$time_get@DV?$istreambuf_iterator@DU?$char_traits@D@std@@@std@@@std@@MBE?AV?$istreambuf_iterator@DU?$char_traits@D@std@@@2@V32@0AAVios_base@2@AAHPAUtm@@@Z 1002d557 f i libcpmt:xlocale.obj
 0001:0002c595       ?do_get_monthname@?$time_get@DV?$istreambuf_iterator@DU?$char_traits@D@std@@@std@@@std@@MBE?AV?$istreambuf_iterator@DU?$char_traits@D@std@@@2@V32@0AAVios_base@2@AAHPAUtm@@@Z 1002d595 f i libcpmt:xlocale.obj
 0001:0002c5d3       ?do_get_year@?$time_get@DV?$istreambuf_iterator@DU?$char_traits@D@std@@@std@@@std@@MBE?AV?$istreambuf_iterator@DU?$char_traits@D@std@@@2@V32@0AAVios_base@2@AAHPAUtm@@@Z 1002d5d3 f i libcpmt:xlocale.obj
 0001:0002c639       ?do_put@?$time_put@DV?$ostreambuf_iterator@DU?$char_traits@D@std@@@std@@@std@@MBE?AV?$ostreambuf_iterator@DU?$char_traits@D@std@@@2@V32@AAVios_base@2@PBUtm@@DD@Z 1002d639 f i libcpmt:xlocale.obj
 0001:0002c712       ??_E?$collate@D@std@@UAEPAXI@Z 1002d712 f i libcpmt:xlocale.obj
 0001:0002c712       ??_G?$collate@D@std@@UAEPAXI@Z 1002d712 f i libcpmt:xlocale.obj
 0001:0002c72e       ??1?$collate@D@std@@UAE@XZ 1002d72e f i libcpmt:xlocale.obj
 0001:0002c735       ??_G?$messages@D@std@@UAEPAXI@Z 1002d735 f i libcpmt:xlocale.obj
 0001:0002c735       ??_E?$messages@D@std@@UAEPAXI@Z 1002d735 f i libcpmt:xlocale.obj
 0001:0002c751       ??1?$messages@D@std@@UAE@XZ 1002d751 f i libcpmt:xlocale.obj
 0001:0002c774       ??_E?$money_get@DV?$istreambuf_iterator@DU?$char_traits@D@std@@@std@@@std@@UAEPAXI@Z 1002d774 f i libcpmt:xlocale.obj
 0001:0002c774       ??_G?$money_get@DV?$istreambuf_iterator@DU?$char_traits@D@std@@@std@@@std@@UAEPAXI@Z 1002d774 f i libcpmt:xlocale.obj
 0001:0002c790       ??1?$money_get@DV?$istreambuf_iterator@DU?$char_traits@D@std@@@std@@@std@@UAE@XZ 1002d790 f i libcpmt:xlocale.obj
 0001:0002c797       ??_E?$money_put@DV?$ostreambuf_iterator@DU?$char_traits@D@std@@@std@@@std@@UAEPAXI@Z 1002d797 f i libcpmt:xlocale.obj
 0001:0002c797       ??_G?$money_put@DV?$ostreambuf_iterator@DU?$char_traits@D@std@@@std@@@std@@UAEPAXI@Z 1002d797 f i libcpmt:xlocale.obj
 0001:0002c7b3       ??1?$money_put@DV?$ostreambuf_iterator@DU?$char_traits@D@std@@@std@@@std@@UAE@XZ 1002d7b3 f i libcpmt:xlocale.obj
 0001:0002c7ba       ??_G?$moneypunct@D$0A@@std@@UAEPAXI@Z 1002d7ba f i libcpmt:xlocale.obj
 0001:0002c7ba       ??_E?$moneypunct@D$0A@@std@@UAEPAXI@Z 1002d7ba f i libcpmt:xlocale.obj
 0001:0002c7d6       ??_G?$moneypunct@D$00@std@@UAEPAXI@Z 1002d7d6 f i libcpmt:xlocale.obj
 0001:0002c7d6       ??_E?$moneypunct@D$00@std@@UAEPAXI@Z 1002d7d6 f i libcpmt:xlocale.obj
 0001:0002c7f2       ??_E?$time_get@DV?$istreambuf_iterator@DU?$char_traits@D@std@@@std@@@std@@UAEPAXI@Z 1002d7f2 f i libcpmt:xlocale.obj
 0001:0002c7f2       ??_G?$time_get@DV?$istreambuf_iterator@DU?$char_traits@D@std@@@std@@@std@@UAEPAXI@Z 1002d7f2 f i libcpmt:xlocale.obj
 0001:0002c80e       ??1?$time_get@DV?$istreambuf_iterator@DU?$char_traits@D@std@@@std@@@std@@UAE@XZ 1002d80e f i libcpmt:xlocale.obj
 0001:0002c831       ??_G?$time_put@DV?$ostreambuf_iterator@DU?$char_traits@D@std@@@std@@@std@@UAEPAXI@Z 1002d831 f i libcpmt:xlocale.obj
 0001:0002c831       ??_E?$time_put@DV?$ostreambuf_iterator@DU?$char_traits@D@std@@@std@@@std@@UAEPAXI@Z 1002d831 f i libcpmt:xlocale.obj
 0001:0002c84d       ??1?$time_put@DV?$ostreambuf_iterator@DU?$char_traits@D@std@@@std@@@std@@UAE@XZ 1002d84d f i libcpmt:xlocale.obj
 0001:0002c867       ??1?$moneypunct@D$0A@@std@@UAE@XZ 1002d867 f i libcpmt:xlocale.obj
 0001:0002c86c       ??1?$_Mpunct@D@std@@UAE@XZ 1002d86c f i libcpmt:xlocale.obj
 0001:0002c8a0       ??_G?$_Mpunct@D@std@@UAEPAXI@Z 1002d8a0 f i libcpmt:xlocale.obj
 0001:0002c8a0       ??_E?$_Mpunct@D@std@@UAEPAXI@Z 1002d8a0 f i libcpmt:xlocale.obj
 0001:0002c8bc       ??1?$moneypunct@D$00@std@@UAE@XZ 1002d8bc f i libcpmt:xlocale.obj
 0001:0002c8c1       ?resize@?$basic_string@DU?$char_traits@D@std@@V?$allocator@D@2@@std@@QAEXI@Z 1002d8c1 f i libcpmt:xlocale.obj
 0001:0002c8e7       ?_Init@?$messages@D@std@@IAEXABV_Locinfo@2@@Z 1002d8e7 f i libcpmt:xlocale.obj
 0001:0002c90f       ?_Getmfld@?$money_get@DV?$istreambuf_iterator@DU?$char_traits@D@std@@@std@@@std@@ABE?AV?$basic_string@DU?$char_traits@D@std@@V?$allocator@D@2@@2@AAV?$istreambuf_iterator@DU?$char_traits@D@std@@@2@0_NAAVios_base@2@@Z 1002d90f f i libcpmt:xlocale.obj
 0001:0002d184       ?_Putmfld@?$money_put@DV?$ostreambuf_iterator@DU?$char_traits@D@std@@@std@@@std@@ABE?AV?$ostreambuf_iterator@DU?$char_traits@D@std@@@2@V32@_NAAVios_base@2@D1V?$basic_string@DU?$char_traits@D@std@@V?$allocator@D@2@@2@@Z 1002e184 f i libcpmt:xlocale.obj
 0001:0002d72f       ??0?$_Mpunct@D@std@@QAE@ABV_Locinfo@1@I_N@Z 1002e72f f i libcpmt:xlocale.obj
 0001:0002d76f       ?_Init@?$time_get@DV?$istreambuf_iterator@DU?$char_traits@D@std@@@std@@@std@@IAEXABV_Locinfo@2@@Z 1002e76f f i libcpmt:xlocale.obj
 0001:0002d7a2       ?_Getint@?$time_get@DV?$istreambuf_iterator@DU?$char_traits@D@std@@@std@@@std@@CAHAAV?$istreambuf_iterator@DU?$char_traits@D@std@@@2@0HHAAH@Z 1002e7a2 f i libcpmt:xlocale.obj
 0001:0002d8d9       ?_Init@?$time_put@DV?$ostreambuf_iterator@DU?$char_traits@D@std@@@std@@@std@@IAEXABV_Locinfo@2@@Z 1002e8d9 f i libcpmt:xlocale.obj
 0001:0002d901       ?insert@?$basic_string@DU?$char_traits@D@std@@V?$allocator@D@2@@std@@QAEAAV12@IID@Z 1002e901 f i libcpmt:xlocale.obj
 0001:0002d980       ?grouping@?$_Mpunct@D@std@@QBE?AV?$basic_string@DU?$char_traits@D@std@@V?$allocator@D@2@@2@XZ 1002e980 f i libcpmt:xlocale.obj
 0001:0002d997       ?curr_symbol@?$_Mpunct@D@std@@QBE?AV?$basic_string@DU?$char_traits@D@std@@V?$allocator@D@2@@2@XZ 1002e997 f i libcpmt:xlocale.obj
 0001:0002d9ae       ?positive_sign@?$_Mpunct@D@std@@QBE?AV?$basic_string@DU?$char_traits@D@std@@V?$allocator@D@2@@2@XZ 1002e9ae f i libcpmt:xlocale.obj
 0001:0002d9c5       ?negative_sign@?$_Mpunct@D@std@@QBE?AV?$basic_string@DU?$char_traits@D@std@@V?$allocator@D@2@@2@XZ 1002e9c5 f i libcpmt:xlocale.obj
 0001:0002d9dc       ?_Init@?$_Mpunct@D@std@@IAEXABV_Locinfo@2@@Z 1002e9dc f i libcpmt:xlocale.obj
 0001:0002dab6       ?_Makpat@?$_Mpunct@D@std@@AAEXAAUpattern@money_base@2@DDD@Z 1002eab6 f i libcpmt:xlocale.obj
 0001:0002db17       ?use_facet@std@@YAABV?$collate@D@1@ABVlocale@1@PBV21@_N@Z 1002eb17 f i libcpmt:xlocale.obj
 0001:0002dbdb       ?use_facet@std@@YAABV?$messages@D@1@ABVlocale@1@PBV21@_N@Z 1002ebdb f i libcpmt:xlocale.obj
 0001:0002dc9f       ?use_facet@std@@YAABV?$money_get@DV?$istreambuf_iterator@DU?$char_traits@D@std@@@std@@@1@ABVlocale@1@PBV21@_N@Z 1002ec9f f i libcpmt:xlocale.obj
 0001:0002dd7b       ?use_facet@std@@YAABV?$money_put@DV?$ostreambuf_iterator@DU?$char_traits@D@std@@@std@@@1@ABVlocale@1@PBV21@_N@Z 1002ed7b f i libcpmt:xlocale.obj
 0001:0002de57       ?use_facet@std@@YAABV?$moneypunct@D$0A@@1@ABVlocale@1@PBV21@_N@Z 1002ee57 f i libcpmt:xlocale.obj
 0001:0002df26       ?use_facet@std@@YAABV?$moneypunct@D$00@1@ABVlocale@1@PBV21@_N@Z 1002ef26 f i libcpmt:xlocale.obj
 0001:0002dff5       ?use_facet@std@@YAABV?$time_get@DV?$istreambuf_iterator@DU?$char_traits@D@std@@@std@@@1@ABVlocale@1@PBV21@_N@Z 1002eff5 f i libcpmt:xlocale.obj
 0001:0002e0b9       ?use_facet@std@@YAABV?$time_put@DV?$ostreambuf_iterator@DU?$char_traits@D@std@@@std@@@1@ABVlocale@1@PBV21@_N@Z 1002f0b9 f i libcpmt:xlocale.obj
 0001:0002e17d       ??0?$collate@D@std@@QAE@I@Z 1002f17d f i libcpmt:xlocale.obj
 0001:0002e1d1       ??0?$messages@D@std@@QAE@I@Z 1002f1d1 f i libcpmt:xlocale.obj
 0001:0002e243       ??0?$time_get@DV?$istreambuf_iterator@DU?$char_traits@D@std@@@std@@@std@@QAE@I@Z 1002f243 f i libcpmt:xlocale.obj
 0001:0002e29c       ??0?$time_put@DV?$ostreambuf_iterator@DU?$char_traits@D@std@@@std@@@std@@QAE@I@Z 1002f29c f i libcpmt:xlocale.obj
 0001:0002e309       ?_Save@?$_Tidyfac@V?$collate@D@std@@@std@@SAPAV?$collate@D@2@PAV32@@Z 1002f309 f i libcpmt:xlocale.obj
 0001:0002e357       ?_Save@?$_Tidyfac@V?$messages@D@std@@@std@@SAPAV?$messages@D@2@PAV32@@Z 1002f357 f i libcpmt:xlocale.obj
 0001:0002e3a5       ?_Save@?$_Tidyfac@V?$money_get@DV?$istreambuf_iterator@DU?$char_traits@D@std@@@std@@@std@@@std@@SAPAV?$money_get@DV?$istreambuf_iterator@DU?$char_traits@D@std@@@std@@@2@PAV32@@Z 1002f3a5 f i libcpmt:xlocale.obj
 0001:0002e3f3       ?_Save@?$_Tidyfac@V?$money_put@DV?$ostreambuf_iterator@DU?$char_traits@D@std@@@std@@@std@@@std@@SAPAV?$money_put@DV?$ostreambuf_iterator@DU?$char_traits@D@std@@@std@@@2@PAV32@@Z 1002f3f3 f i libcpmt:xlocale.obj
 0001:0002e441       ?_Save@?$_Tidyfac@V?$moneypunct@D$0A@@std@@@std@@SAPAV?$moneypunct@D$0A@@2@PAV32@@Z 1002f441 f i libcpmt:xlocale.obj
 0001:0002e48f       ?_Save@?$_Tidyfac@V?$moneypunct@D$00@std@@@std@@SAPAV?$moneypunct@D$00@2@PAV32@@Z 1002f48f f i libcpmt:xlocale.obj
 0001:0002e4dd       ?_Save@?$_Tidyfac@V?$time_get@DV?$istreambuf_iterator@DU?$char_traits@D@std@@@std@@@std@@@std@@SAPAV?$time_get@DV?$istreambuf_iterator@DU?$char_traits@D@std@@@std@@@2@PAV32@@Z 1002f4dd f i libcpmt:xlocale.obj
 0001:0002e52b       ?_Save@?$_Tidyfac@V?$time_put@DV?$ostreambuf_iterator@DU?$char_traits@D@std@@@std@@@std@@@std@@SAPAV?$time_put@DV?$ostreambuf_iterator@DU?$char_traits@D@std@@@std@@@2@PAV32@@Z 1002f52b f i libcpmt:xlocale.obj
 0001:0002e579       ??0?$_Mpunct@D@std@@QAE@I_N@Z 1002f579 f i libcpmt:xlocale.obj
 0001:0002e5d8       ?_Tidy@?$_Tidyfac@V?$collate@D@std@@@std@@SAXXZ 1002f5d8 f i libcpmt:xlocale.obj
 0001:0002e625       ?_Tidy@?$_Tidyfac@V?$messages@D@std@@@std@@SAXXZ 1002f625 f i libcpmt:xlocale.obj
 0001:0002e672       ?_Tidy@?$_Tidyfac@V?$money_get@DV?$istreambuf_iterator@DU?$char_traits@D@std@@@std@@@std@@@std@@SAXXZ 1002f672 f i libcpmt:xlocale.obj
 0001:0002e6bf       ?_Tidy@?$_Tidyfac@V?$money_put@DV?$ostreambuf_iterator@DU?$char_traits@D@std@@@std@@@std@@@std@@SAXXZ 1002f6bf f i libcpmt:xlocale.obj
 0001:0002e70c       ?_Tidy@?$_Tidyfac@V?$moneypunct@D$0A@@std@@@std@@SAXXZ 1002f70c f i libcpmt:xlocale.obj
 0001:0002e759       ?_Tidy@?$_Tidyfac@V?$moneypunct@D$00@std@@@std@@SAXXZ 1002f759 f i libcpmt:xlocale.obj
 0001:0002e7a6       ?_Tidy@?$_Tidyfac@V?$time_get@DV?$istreambuf_iterator@DU?$char_traits@D@std@@@std@@@std@@@std@@SAXXZ 1002f7a6 f i libcpmt:xlocale.obj
 0001:0002e7f3       ?_Tidy@?$_Tidyfac@V?$time_put@DV?$ostreambuf_iterator@DU?$char_traits@D@std@@@std@@@std@@@std@@SAXXZ 1002f7f3 f i libcpmt:xlocale.obj
 0001:0002e861       __Wcrtomb                  1002f861 f   libcpmt:xwctomb.obj
 0001:0002e8c0       ___Wcrtomb_lk              1002f8c0 f   libcpmt:xwctomb.obj
 0001:0002e933       __Getcvt                   1002f933 f   libcpmt:xwctomb.obj
 0001:0002e987       _wcrtomb                   1002f987 f   libcpmt:xwctomb.obj
 0001:0002e9a6       _wcsrtombs                 1002f9a6 f   libcpmt:xwctomb.obj
 0001:0002eb0e       _wctob                     1002fb0e f   libcpmt:xwctomb.obj
 0001:0002eb3c       __Tolower                  1002fb3c f   libcpmt:_tolower.obj
 0001:0002ebbb       __Tolower_lk               1002fbbb f   libcpmt:_tolower.obj
 0001:0002eca3       __Getctype                 1002fca3 f   libcpmt:_tolower.obj
 0001:0002ed4b       __Toupper                  1002fd4b f   libcpmt:_toupper.obj
 0001:0002edca       __Toupper_lk               1002fdca f   libcpmt:_toupper.obj
 0001:0002eeab       __Stod                     1002feab f   libcpmt:xstod.obj
 0001:0002eee7       __Stof                     1002fee7 f   libcpmt:xstod.obj
 0001:0002eefc       __Stold                    1002fefc f   libcpmt:xstod.obj
 0001:0002ef11       __Mbrtowc                  1002ff11 f   libcpmt:xmbtowc.obj
 0001:0002f087       _btowc                     10030087 f   libcpmt:xmbtowc.obj
 0001:0002f0c8       _mbrlen                    100300c8 f   libcpmt:xmbtowc.obj
 0001:0002f133       _mbrtowc                   10030133 f   libcpmt:xmbtowc.obj
 0001:0002f1c4       _mbsrtowcs                 100301c4 f   libcpmt:xmbtowc.obj
 0001:0002f2b9       __Strcoll                  100302b9 f   libcpmt:xstrcoll.obj
 0001:0002f3b2       __Getcoll                  100303b2 f   libcpmt:xstrcoll.obj
 0001:0002f406       _VerQueryValueA@16         10030406 f   Version:VERSION.dll
 0001:0002f40c       _GetFileVersionInfoA@16    1003040c f   Version:VERSION.dll
 0001:0002f412       _GetFileVersionInfoSizeA@8 10030412 f   Version:VERSION.dll
 0001:0002f418       _GetSystemInfo@4           10030418 f   kernel32:KERNEL32.dll
 0001:0002f41e       _WaitForMultipleObjects@16 1003041e f   kernel32:KERNEL32.dll
 0001:0002f424       _CreateEventA@16           10030424 f   kernel32:KERNEL32.dll
 0001:0002f42a       _CloseHandle@4             1003042a f   kernel32:KERNEL32.dll
 0001:0002f430       _ResetEvent@4              10030430 f   kernel32:KERNEL32.dll
 0001:0002f436       _SetEvent@4                10030436 f   kernel32:KERNEL32.dll
 0001:0002f43c       _PulseEvent@4              1003043c f   kernel32:KERNEL32.dll
 0001:0002f442       _FormatMessageA@28         10030442 f   kernel32:KERNEL32.dll
 0001:0002f448       _GetCurrentDirectoryA@8    10030448 f   kernel32:KERNEL32.dll
 0001:0002f44e       _GetModuleFileNameA@12     1003044e f   kernel32:KERNEL32.dll
 0001:0002f454       _GetSystemTime@4           10030454 f   kernel32:KERNEL32.dll
 0001:0002f45a       _GetLocalTime@4            1003045a f   kernel32:KERNEL32.dll
 0001:0002f460       _GetComputerNameA@8        10030460 f   kernel32:KERNEL32.dll
 0001:0002f466       _SetLastError@4            10030466 f   kernel32:KERNEL32.dll
 0001:0002f46c       _CreateIoCompletionPort@16 1003046c f   kernel32:KERNEL32.dll
 0001:0002f472       _PostQueuedCompletionStatus@16 10030472 f   kernel32:KERNEL32.dll
 0001:0002f478       _GetQueuedCompletionStatus@20 10030478 f   kernel32:KERNEL32.dll
 0001:0002f47e       _RtlUnwind@16              1003047e f   kernel32:KERNEL32.dll
 0001:0002f484       _GetTimeZoneInformation@4  10030484 f   kernel32:KERNEL32.dll
 0001:0002f48a       _CreateThread@24           1003048a f   kernel32:KERNEL32.dll
 0001:0002f490       _GetCurrentThreadId@0      10030490 f   kernel32:KERNEL32.dll
 0001:0002f496       _TlsSetValue@8             10030496 f   kernel32:KERNEL32.dll
 0001:0002f49c       _ExitThread@4              1003049c f   kernel32:KERNEL32.dll
 0001:0002f4a2       _RaiseException@16         100304a2 f   kernel32:KERNEL32.dll
 0001:0002f4a8       _GetCommandLineA@0         100304a8 f   kernel32:KERNEL32.dll
 0001:0002f4ae       _GetVersion@0              100304ae f   kernel32:KERNEL32.dll
 0001:0002f4b4       _HeapAlloc@12              100304b4 f   kernel32:KERNEL32.dll
 0001:0002f4ba       _HeapFree@12               100304ba f   kernel32:KERNEL32.dll
 0001:0002f4c0       _TlsAlloc@0                100304c0 f   kernel32:KERNEL32.dll
 0001:0002f4c6       _TlsFree@4                 100304c6 f   kernel32:KERNEL32.dll
 0001:0002f4cc       _TlsGetValue@4             100304cc f   kernel32:KERNEL32.dll
 0001:0002f4d2       _GetCurrentThread@0        100304d2 f   kernel32:KERNEL32.dll
 0001:0002f4d8       _ExitProcess@4             100304d8 f   kernel32:KERNEL32.dll
 0001:0002f4de       _FatalAppExitA@8           100304de f   kernel32:KERNEL32.dll
 0001:0002f4e4       _TerminateProcess@8        100304e4 f   kernel32:KERNEL32.dll
 0001:0002f4ea       _GetCurrentProcess@0       100304ea f   kernel32:KERNEL32.dll
 0001:0002f4f0       _UnhandledExceptionFilter@4 100304f0 f   kernel32:KERNEL32.dll
 0001:0002f4f6       _SetUnhandledExceptionFilter@4 100304f6 f   kernel32:KERNEL32.dll
 0001:0002f4fc       _HeapReAlloc@16            100304fc f   kernel32:KERNEL32.dll
 0001:0002f502       _HeapSize@12               10030502 f   kernel32:KERNEL32.dll
 0001:0002f508       _GetProcAddress@8          10030508 f   kernel32:KERNEL32.dll
 0001:0002f50e       _GetModuleHandleA@4        1003050e f   kernel32:KERNEL32.dll
 0001:0002f514       _SetHandleCount@4          10030514 f   kernel32:KERNEL32.dll
 0001:0002f51a       _GetStdHandle@4            1003051a f   kernel32:KERNEL32.dll
 0001:0002f520       _GetFileType@4             10030520 f   kernel32:KERNEL32.dll
 0001:0002f526       _GetStartupInfoA@4         10030526 f   kernel32:KERNEL32.dll
 0001:0002f52c       _FreeEnvironmentStringsA@4 1003052c f   kernel32:KERNEL32.dll
 0001:0002f532       _FreeEnvironmentStringsW@4 10030532 f   kernel32:KERNEL32.dll
 0001:0002f538       _WideCharToMultiByte@32    10030538 f   kernel32:KERNEL32.dll
 0001:0002f53e       _GetEnvironmentStrings@0   1003053e f   kernel32:KERNEL32.dll
 0001:0002f544       _GetEnvironmentStringsW@0  10030544 f   kernel32:KERNEL32.dll
 0001:0002f54a       _HeapDestroy@4             1003054a f   kernel32:KERNEL32.dll
 0001:0002f550       _HeapCreate@12             10030550 f   kernel32:KERNEL32.dll
 0001:0002f556       _VirtualFree@12            10030556 f   kernel32:KERNEL32.dll
 0001:0002f55c       _WriteFile@20              1003055c f   kernel32:KERNEL32.dll
 0001:0002f562       _MultiByteToWideChar@24    10030562 f   kernel32:KERNEL32.dll
 0001:0002f568       _LCMapStringA@24           10030568 f   kernel32:KERNEL32.dll
 0001:0002f56e       _LCMapStringW@24           1003056e f   kernel32:KERNEL32.dll
 0001:0002f574       _SetFilePointer@16         10030574 f   kernel32:KERNEL32.dll
 0001:0002f57a       _FlushFileBuffers@4        1003057a f   kernel32:KERNEL32.dll
 0001:0002f580       _VirtualAlloc@16           10030580 f   kernel32:KERNEL32.dll
 0001:0002f586       _IsBadWritePtr@8           10030586 f   kernel32:KERNEL32.dll
 0001:0002f58c       _IsBadReadPtr@8            1003058c f   kernel32:KERNEL32.dll
 0001:0002f592       _IsBadCodePtr@4            10030592 f   kernel32:KERNEL32.dll
 0001:0002f598       _GetCPInfo@8               10030598 f   kernel32:KERNEL32.dll
 0001:0002f59e       _GetACP@0                  1003059e f   kernel32:KERNEL32.dll
 0001:0002f5a4       _GetOEMCP@0                100305a4 f   kernel32:KERNEL32.dll
 0001:0002f5aa       _LoadLibraryA@4            100305aa f   kernel32:KERNEL32.dll
 0001:0002f5b0       _SetStdHandle@8            100305b0 f   kernel32:KERNEL32.dll
 0001:0002f5b6       _IsValidLocale@8           100305b6 f   kernel32:KERNEL32.dll
 0001:0002f5bc       _IsValidCodePage@4         100305bc f   kernel32:KERNEL32.dll
 0001:0002f5c2       _GetLocaleInfoA@16         100305c2 f   kernel32:KERNEL32.dll
 0001:0002f5c8       _EnumSystemLocalesA@8      100305c8 f   kernel32:KERNEL32.dll
 0001:0002f5ce       _GetUserDefaultLCID@0      100305ce f   kernel32:KERNEL32.dll
 0001:0002f5d4       _GetVersionExA@4           100305d4 f   kernel32:KERNEL32.dll
 0001:0002f5da       _GetStringTypeA@20         100305da f   kernel32:KERNEL32.dll
 0001:0002f5e0       _GetStringTypeW@16         100305e0 f   kernel32:KERNEL32.dll
 0001:0002f5e6       _ReadFile@20               100305e6 f   kernel32:KERNEL32.dll
 0001:0002f5ec       _SetConsoleCtrlHandler@8   100305ec f   kernel32:KERNEL32.dll
 0001:0002f5f2       _GetLocaleInfoW@16         100305f2 f   kernel32:KERNEL32.dll
 0001:0002f5f8       _CompareStringA@24         100305f8 f   kernel32:KERNEL32.dll
 0001:0002f5fe       _CompareStringW@24         100305fe f   kernel32:KERNEL32.dll
 0001:0002f604       _SetEnvironmentVariableA@8 10030604 f   kernel32:KERNEL32.dll
 0001:0002f60a       _MessageBoxA@16            1003060a f   user32:USER32.dll
 0001:0002f610       _MessageBeep@4             10030610 f   user32:USER32.dll
 0001:0002f616       _wsprintfA                 10030616 f   user32:USER32.dll
 0001:0002f61c       _GetUserNameA@8            1003061c f   advapi32:ADVAPI32.dll
 0001:0002f624       __EH_prolog                10030624 f   LIBCMT:ehprolog.obj
 0001:0002f650       _memcmp                    10030650 f   LIBCMT:memcmp.obj
 0001:0002f6fc       _strtol                    100306fc f   LIBCMT:strtol.obj
 0001:0002f918       _strtoul                   10030918 f   LIBCMT:strtol.obj
 0001:0002f92f       _fputwc                    1003092f f   LIBCMT:fputwc.obj
 0001:0002f959       __putwc_lk                 10030959 f   LIBCMT:fputwc.obj
 0001:0002fa52       _putwc                     10030a52 f   LIBCMT:fputwc.obj
 0001:0002fa62       _ungetwc                   10030a62 f   LIBCMT:ungetwc.obj
 0001:0002fa8c       __ungetwc_lk               10030a8c f   LIBCMT:ungetwc.obj
 0001:0002fb79       _fgetwc                    10030b79 f   LIBCMT:fgetwc.obj
 0001:0002fb9c       __getwc_lk                 10030b9c f   LIBCMT:fgetwc.obj
 0001:0002fc8d       _getwc                     10030c8d f   LIBCMT:fgetwc.obj
 0001:0002fc98       _wcslen                    10030c98 f   LIBCMT:wcslen.obj
 0001:0002fcb5       _strtod                    10030cb5 f   LIBCMT:strtod.obj
 0001:0002fd5f       __flswbuf                  10030d5f f   LIBCMT:_flswbuf.obj
 0001:0002fe86       __filwbuf                  10030e86 f   LIBCMT:_filwbuf.obj
 0001:0002ff6d       _mbtowc                    10030f6d f   LIBCMT:mbtowc.obj
 0001:0002ffca       __mbtowc_lk                10030fca f   LIBCMT:mbtowc.obj
 0001:00030094       __fltin2                   10031094 f   LIBCMT:cfin.obj
 0002:00000000       __imp__GetUserNameA@8      10035000     advapi32:ADVAPI32.dll
 0002:00000004       \177ADVAPI32_NULL_THUNK_DATA 10035004     advapi32:ADVAPI32.dll
 0002:00000008       __imp__EnterCriticalSection@4 10035008     kernel32:KERNEL32.dll
 0002:0000000c       __imp__GetLastError@0      1003500c     kernel32:KERNEL32.dll
 0002:00000010       __imp__InitializeCriticalSection@4 10035010     kernel32:KERNEL32.dll
 0002:00000014       __imp__TerminateThread@8   10035014     kernel32:KERNEL32.dll
 0002:00000018       __imp__LeaveCriticalSection@4 10035018     kernel32:KERNEL32.dll
 0002:0000001c       __imp__InterlockedExchange@8 1003501c     kernel32:KERNEL32.dll
 0002:00000020       __imp__InterlockedIncrement@4 10035020     kernel32:KERNEL32.dll
 0002:00000024       __imp__InterlockedDecrement@4 10035024     kernel32:KERNEL32.dll
 0002:00000028       __imp__Sleep@4             10035028     kernel32:KERNEL32.dll
 0002:0000002c       __imp__WaitForSingleObject@8 1003502c     kernel32:KERNEL32.dll
 0002:00000030       __imp__SetEnvironmentVariableA@8 10035030     kernel32:KERNEL32.dll
 0002:00000034       __imp__CompareStringW@24   10035034     kernel32:KERNEL32.dll
 0002:00000038       __imp__CompareStringA@24   10035038     kernel32:KERNEL32.dll
 0002:0000003c       __imp__GetLocaleInfoW@16   1003503c     kernel32:KERNEL32.dll
 0002:00000040       __imp__SetConsoleCtrlHandler@8 10035040     kernel32:KERNEL32.dll
 0002:00000044       __imp__ReadFile@20         10035044     kernel32:KERNEL32.dll
 0002:00000048       __imp__GetStringTypeW@16   10035048     kernel32:KERNEL32.dll
 0002:0000004c       __imp__GetStringTypeA@20   1003504c     kernel32:KERNEL32.dll
 0002:00000050       __imp__GetVersionExA@4     10035050     kernel32:KERNEL32.dll
 0002:00000054       __imp__GetUserDefaultLCID@0 10035054     kernel32:KERNEL32.dll
 0002:00000058       __imp__EnumSystemLocalesA@8 10035058     kernel32:KERNEL32.dll
 0002:0000005c       __imp__GetLocaleInfoA@16   1003505c     kernel32:KERNEL32.dll
 0002:00000060       __imp__IsValidCodePage@4   10035060     kernel32:KERNEL32.dll
 0002:00000064       __imp__IsValidLocale@8     10035064     kernel32:KERNEL32.dll
 0002:00000068       __imp__SetStdHandle@8      10035068     kernel32:KERNEL32.dll
 0002:0000006c       __imp__LoadLibraryA@4      1003506c     kernel32:KERNEL32.dll
 0002:00000070       __imp__GetOEMCP@0          10035070     kernel32:KERNEL32.dll
 0002:00000074       __imp__GetACP@0            10035074     kernel32:KERNEL32.dll
 0002:00000078       __imp__GetCPInfo@8         10035078     kernel32:KERNEL32.dll
 0002:0000007c       __imp__IsBadCodePtr@4      1003507c     kernel32:KERNEL32.dll
 0002:00000080       __imp__IsBadReadPtr@8      10035080     kernel32:KERNEL32.dll
 0002:00000084       __imp__IsBadWritePtr@8     10035084     kernel32:KERNEL32.dll
 0002:00000088       __imp__VirtualAlloc@16     10035088     kernel32:KERNEL32.dll
 0002:0000008c       __imp__GetSystemInfo@4     1003508c     kernel32:KERNEL32.dll
 0002:00000090       __imp__WaitForMultipleObjects@16 10035090     kernel32:KERNEL32.dll
 0002:00000094       __imp__CreateEventA@16     10035094     kernel32:KERNEL32.dll
 0002:00000098       __imp__CloseHandle@4       10035098     kernel32:KERNEL32.dll
 0002:0000009c       __imp__ResetEvent@4        1003509c     kernel32:KERNEL32.dll
 0002:000000a0       __imp__SetEvent@4          100350a0     kernel32:KERNEL32.dll
 0002:000000a4       __imp__PulseEvent@4        100350a4     kernel32:KERNEL32.dll
 0002:000000a8       __imp__FormatMessageA@28   100350a8     kernel32:KERNEL32.dll
 0002:000000ac       __imp__GetCurrentDirectoryA@8 100350ac     kernel32:KERNEL32.dll
 0002:000000b0       __imp__GetModuleFileNameA@12 100350b0     kernel32:KERNEL32.dll
 0002:000000b4       __imp__GetSystemTime@4     100350b4     kernel32:KERNEL32.dll
 0002:000000b8       __imp__GetLocalTime@4      100350b8     kernel32:KERNEL32.dll
 0002:000000bc       __imp__GetComputerNameA@8  100350bc     kernel32:KERNEL32.dll
 0002:000000c0       __imp__SetLastError@4      100350c0     kernel32:KERNEL32.dll
 0002:000000c4       __imp__CreateIoCompletionPort@16 100350c4     kernel32:KERNEL32.dll
 0002:000000c8       __imp__PostQueuedCompletionStatus@16 100350c8     kernel32:KERNEL32.dll
 0002:000000cc       __imp__GetQueuedCompletionStatus@20 100350cc     kernel32:KERNEL32.dll
 0002:000000d0       __imp__RtlUnwind@16        100350d0     kernel32:KERNEL32.dll
 0002:000000d4       __imp__GetTimeZoneInformation@4 100350d4     kernel32:KERNEL32.dll
 0002:000000d8       __imp__CreateThread@24     100350d8     kernel32:KERNEL32.dll
 0002:000000dc       __imp__GetCurrentThreadId@0 100350dc     kernel32:KERNEL32.dll
 0002:000000e0       __imp__TlsSetValue@8       100350e0     kernel32:KERNEL32.dll
 0002:000000e4       __imp__ExitThread@4        100350e4     kernel32:KERNEL32.dll
 0002:000000e8       __imp__RaiseException@16   100350e8     kernel32:KERNEL32.dll
 0002:000000ec       __imp__GetCommandLineA@0   100350ec     kernel32:KERNEL32.dll
 0002:000000f0       __imp__GetVersion@0        100350f0     kernel32:KERNEL32.dll
 0002:000000f4       __imp__HeapAlloc@12        100350f4     kernel32:KERNEL32.dll
 0002:000000f8       __imp__HeapFree@12         100350f8     kernel32:KERNEL32.dll
 0002:000000fc       __imp__TlsAlloc@0          100350fc     kernel32:KERNEL32.dll
 0002:00000100       __imp__TlsFree@4           10035100     kernel32:KERNEL32.dll
 0002:00000104       __imp__TlsGetValue@4       10035104     kernel32:KERNEL32.dll
 0002:00000108       __imp__GetCurrentThread@0  10035108     kernel32:KERNEL32.dll
 0002:0000010c       __imp__ExitProcess@4       1003510c     kernel32:KERNEL32.dll
 0002:00000110       __imp__FatalAppExitA@8     10035110     kernel32:KERNEL32.dll
 0002:00000114       __imp__TerminateProcess@8  10035114     kernel32:KERNEL32.dll
 0002:00000118       __imp__GetCurrentProcess@0 10035118     kernel32:KERNEL32.dll
 0002:0000011c       __imp__UnhandledExceptionFilter@4 1003511c     kernel32:KERNEL32.dll
 0002:00000120       __imp__SetUnhandledExceptionFilter@4 10035120     kernel32:KERNEL32.dll
 0002:00000124       __imp__HeapReAlloc@16      10035124     kernel32:KERNEL32.dll
 0002:00000128       __imp__HeapSize@12         10035128     kernel32:KERNEL32.dll
 0002:0000012c       __imp__GetProcAddress@8    1003512c     kernel32:KERNEL32.dll
 0002:00000130       __imp__GetModuleHandleA@4  10035130     kernel32:KERNEL32.dll
 0002:00000134       __imp__SetHandleCount@4    10035134     kernel32:KERNEL32.dll
 0002:00000138       __imp__GetStdHandle@4      10035138     kernel32:KERNEL32.dll
 0002:0000013c       __imp__GetFileType@4       1003513c     kernel32:KERNEL32.dll
 0002:00000140       __imp__GetStartupInfoA@4   10035140     kernel32:KERNEL32.dll
 0002:00000144       __imp__FreeEnvironmentStringsA@4 10035144     kernel32:KERNEL32.dll
 0002:00000148       __imp__FreeEnvironmentStringsW@4 10035148     kernel32:KERNEL32.dll
 0002:0000014c       __imp__WideCharToMultiByte@32 1003514c     kernel32:KERNEL32.dll
 0002:00000150       __imp__GetEnvironmentStrings@0 10035150     kernel32:KERNEL32.dll
 0002:00000154       __imp__GetEnvironmentStringsW@0 10035154     kernel32:KERNEL32.dll
 0002:00000158       __imp__HeapDestroy@4       10035158     kernel32:KERNEL32.dll
 0002:0000015c       __imp__HeapCreate@12       1003515c     kernel32:KERNEL32.dll
 0002:00000160       __imp__VirtualFree@12      10035160     kernel32:KERNEL32.dll
 0002:00000164       __imp__WriteFile@20        10035164     kernel32:KERNEL32.dll
 0002:00000168       __imp__MultiByteToWideChar@24 10035168     kernel32:KERNEL32.dll
 0002:0000016c       __imp__LCMapStringA@24     1003516c     kernel32:KERNEL32.dll
 0002:00000170       __imp__LCMapStringW@24     10035170     kernel32:KERNEL32.dll
 0002:00000174       __imp__SetFilePointer@16   10035174     kernel32:KERNEL32.dll
 0002:00000178       __imp__FlushFileBuffers@4  10035178     kernel32:KERNEL32.dll
 0002:0000017c       __imp__DeleteCriticalSection@4 1003517c     kernel32:KERNEL32.dll
 0002:00000180       \177KERNEL32_NULL_THUNK_DATA 10035180     kernel32:KERNEL32.dll
 0002:00000184       __imp__MessageBeep@4       10035184     user32:USER32.dll
 0002:00000188       __imp__wsprintfA           10035188     user32:USER32.dll
 0002:0000018c       __imp__MessageBoxA@16      1003518c     user32:USER32.dll
 0002:00000190       \177USER32_NULL_THUNK_DATA 10035190     user32:USER32.dll
 0002:00000194       __imp__VerQueryValueA@16   10035194     Version:VERSION.dll
 0002:00000198       __imp__GetFileVersionInfoA@16 10035198     Version:VERSION.dll
 0002:0000019c       __imp__GetFileVersionInfoSizeA@8 1003519c     Version:VERSION.dll
 0002:000001a0       \177VERSION_NULL_THUNK_DATA 100351a0     Version:VERSION.dll
 0002:000001a4       __imp__listen@8            100351a4     ws2_32:WS2_32.dll
 0002:000001a8       __imp__WSACleanup@0        100351a8     ws2_32:WS2_32.dll
 0002:000001ac       __imp__WSAStartup@8        100351ac     ws2_32:WS2_32.dll
 0002:000001b0       __imp__inet_ntoa@4         100351b0     ws2_32:WS2_32.dll
 0002:000001b4       __imp__htons@4             100351b4     ws2_32:WS2_32.dll
 0002:000001b8       __imp__bind@12             100351b8     ws2_32:WS2_32.dll
 0002:000001bc       __imp__gethostbyname@4     100351bc     ws2_32:WS2_32.dll
 0002:000001c0       __imp__WSASend@28          100351c0     ws2_32:WS2_32.dll
 0002:000001c4       __imp__WSARecv@28          100351c4     ws2_32:WS2_32.dll
 0002:000001c8       __imp__setsockopt@20       100351c8     ws2_32:WS2_32.dll
 0002:000001cc       __imp__shutdown@8          100351cc     ws2_32:WS2_32.dll
 0002:000001d0       __imp__WSAAccept@20        100351d0     ws2_32:WS2_32.dll
 0002:000001d4       __imp__WSASocketA@24       100351d4     ws2_32:WS2_32.dll
 0002:000001d8       __imp__closesocket@4       100351d8     ws2_32:WS2_32.dll
 0002:000001dc       __imp__connect@12          100351dc     ws2_32:WS2_32.dll
 0002:000001e0       __imp__htonl@4             100351e0     ws2_32:WS2_32.dll
 0002:000001e4       __imp__inet_addr@4         100351e4     ws2_32:WS2_32.dll
 0002:000001e8       __imp__WSAGetLastError@0   100351e8     ws2_32:WS2_32.dll
 0002:000001ec       __imp__gethostname@8       100351ec     ws2_32:WS2_32.dll
 0002:000001f0       \177WS2_32_NULL_THUNK_DATA 100351f0     ws2_32:WS2_32.dll
 0002:00000220       _IID_IIOCPServer           10035220     IServer.obj
 0002:00000230       _IID_IServerFactory        10035230     IServer.obj
 0002:00000240       _IID_IDocHostUIHandlerDispatch 10035240     ServerStage.obj
 0002:00000250       _IID_IInternalConnection   10035250     ServerStage.obj
 0002:00000260       _IID_IAxWinAmbientDispatch 10035260     ServerStage.obj
 0002:00000270       _IID_IAxWinHostWindow      10035270     ServerStage.obj
 0002:00000280       _IID_IRegistrar            10035280     ServerStage.obj
 0002:00000290       _CLSID_Registrar           10035290     ServerStage.obj
 0002:000002a0       _LIBID_ATLLib              100352a0     ServerStage.obj
 0002:000002b0       ??_7CIOCPServer@@6BAllocator@CIOBuffer@Win32@OnlineGameLib@@@ 100352b0     ServerStage.obj
 0002:000002c0       ??_7CIOCPServer@@6BCThread@Win32@OnlineGameLib@@@ 100352c0     ServerStage.obj
 0002:0000031c       ??_7CIOCPServer@@6B@       1003531c     ServerStage.obj
 0002:00000360       ??_7IServer@@6B@           10035360     ServerStage.obj
 0002:000003a4       ??_7CException@Win32@OnlineGameLib@@6B@ 100353a4     ServerStage.obj
 0002:000003b0       ??_7CWin32Exception@Win32@OnlineGameLib@@6B@ 100353b0     ServerStage.obj
 0002:000003bc       ?_C@?1??_Nullstr@?$basic_string@DU?$char_traits@D@std@@V?$allocator@D@2@@std@@CAPBDXZ@4DB 100353bc     ServerStage.obj
 0002:000003c0       ?npos@?$basic_string@DU?$char_traits@D@std@@V?$allocator@D@2@@std@@2IB 100353c0     ServerStage.obj
 0002:000003c4       ??_7CServerFactory@@6B@    100353c4     ServerStage.obj
 0002:000003dc       ??_8strstream@std@@7B?$basic_ostream@DU?$char_traits@D@std@@@1@@ 100353dc     ServerStage.obj
 0002:000003e4       ??_8strstream@std@@7B?$basic_istream@DU?$char_traits@D@std@@@1@@ 100353e4     ServerStage.obj
 0002:000003ec       ??_8?$basic_iostream@DU?$char_traits@D@std@@@std@@7B?$basic_ostream@DU?$char_traits@D@std@@@1@@ 100353ec     ServerStage.obj
 0002:000003f4       ??_8?$basic_iostream@DU?$char_traits@D@std@@@std@@7B?$basic_istream@DU?$char_traits@D@std@@@1@@ 100353f4     ServerStage.obj
 0002:00000400       _IID_IUnknown              10035400     uuid:unknwn_i_guid0.obj
 0002:00000410       ??_7CSocketServer@Win32@OnlineGameLib@@6BCThread@12@@ 10035410     common:SocketServer.obj
 0002:0000046c       ??_7CSocketServer@Win32@OnlineGameLib@@6BAllocator@CIOBuffer@12@@ 1003546c     common:SocketServer.obj
 0002:0000047c       ??_7WorkerThread@CSocketServer@Win32@OnlineGameLib@@6B@ 1003547c     common:SocketServer.obj
 0002:00000488       ??_7CEvent@Win32@OnlineGameLib@@6B@ 10035488     common:Event.obj
 0002:0000048c       ??_7Allocator@CIOBuffer@Win32@OnlineGameLib@@6B@ 1003548c     common:IOBuffer.obj
 0002:0000049c       ??_7?$basic_fstream@DU?$char_traits@D@std@@@std@@6B@ 1003549c     common:Utils.obj
 0002:000004a0       ??_8?$basic_fstream@DU?$char_traits@D@std@@@std@@7B?$basic_ostream@DU?$char_traits@D@std@@@1@@ 100354a0     common:Utils.obj
 0002:000004a8       ??_8?$basic_fstream@DU?$char_traits@D@std@@@std@@7B?$basic_istream@DU?$char_traits@D@std@@@1@@ 100354a8     common:Utils.obj
 0002:000004b0       ??_8?$basic_ostream@DU?$char_traits@D@std@@@std@@7B@ 100354b0     common:Utils.obj
 0002:000004b8       ??_7CThread@Win32@OnlineGameLib@@6B@ 100354b8     common:Thread.obj
 0002:000004c0       ??_7CManualResetEvent@Win32@OnlineGameLib@@6B@ 100354c0     common:ManualResetEvent.obj
 0002:000004c4       ??_7Exception@CSocket@Win32@OnlineGameLib@@6B@ 100354c4     common:Socket.obj
 0002:000004d4       ??_7type_info@@6B@         100354d4     LIBCMT:typinfo.obj
 0002:0000050c       ??_7exception@@6B@         1003550c     LIBCMT:stdexcpt.obj
 0002:00000514       ??_C@_0BC@OIDF@Unknown?5exception?$AA@ 10035514     LIBCMT:stdexcpt.obj
 0002:000005a0       ___lookuptable             100355a0     LIBCMT:output.obj
 0002:000005fc       ??_C@_1O@POHA@?$AA?$CI?$AAn?$AAu?$AAl?$AAl?$AA?$CJ?$AA?$AA@ 100355fc     LIBCMT:output.obj
 0002:0000060c       ??_C@_06ONKE@?$CInull?$CJ?$AA@ 1003560c     LIBCMT:output.obj
 0002:00000618       __real@8@3fff8000000000000000 10035618     LIBCMT:testfdiv.obj
 0002:00000620       __real@8@4015800bf60000000000 10035620     LIBCMT:testfdiv.obj
 0002:00000628       __real@8@4014bffffc0000000000 10035628     LIBCMT:testfdiv.obj
 0002:00000630       ??_C@_0BK@JEGK@IsProcessorFeaturePresent?$AA@ 10035630     LIBCMT:testfdiv.obj
 0002:0000064c       ??_C@_08OBID@KERNEL32?$AA@ 1003564c     LIBCMT:testfdiv.obj
 0002:00000658       __real@8@00000000000000000000 10035658     LIBCMT:cvt.obj
 0002:00000660       ??_C@_05OFLO@e?$CL000?$AA@ 10035660     LIBCMT:cvt.obj
 0002:00000668       ??_C@_0P@GGKG@runtime?5error?5?$AA@ 10035668     LIBCMT:crt0msg.obj
 0002:00000678       ??_C@_02PIMC@?$AN?6?$AA@   10035678     LIBCMT:crt0msg.obj
 0002:0000067c       ??_C@_0O@DELO@TLOSS?5error?$AN?6?$AA@ 1003567c     LIBCMT:crt0msg.obj
 0002:0000068c       ??_C@_0N@OMLL@SING?5error?$AN?6?$AA@ 1003568c     LIBCMT:crt0msg.obj
 0002:0000069c       ??_C@_0P@OJAK@DOMAIN?5error?$AN?6?$AA@ 1003569c     LIBCMT:crt0msg.obj
 0002:000006ac       ??_C@_0CF@EANP@R6028?$AN?6?9?5unable?5to?5initialize?5he@ 100356ac     LIBCMT:crt0msg.obj
 0002:000006d4       ??_C@_0DF@ECGN@R6027?$AN?6?9?5not?5enough?5space?5for?5lo@ 100356d4     LIBCMT:crt0msg.obj
 0002:0000070c       ??_C@_0DF@FKAC@R6026?$AN?6?9?5not?5enough?5space?5for?5st@ 1003570c     LIBCMT:crt0msg.obj
 0002:00000744       ??_C@_0CG@DPMN@R6025?$AN?6?9?5pure?5virtual?5function?5c@ 10035744     LIBCMT:crt0msg.obj
 0002:0000076c       ??_C@_0DF@CKIP@R6024?$AN?6?9?5not?5enough?5space?5for?5_o@ 1003576c     LIBCMT:crt0msg.obj
 0002:000007a4       ??_C@_0CJ@GGOE@R6019?$AN?6?9?5unable?5to?5open?5console?5@ 100357a4     LIBCMT:crt0msg.obj
 0002:000007d0       ??_C@_0CB@LBOB@R6018?$AN?6?9?5unexpected?5heap?5error?$AN?6@ 100357d0     LIBCMT:crt0msg.obj
 0002:000007f4       ??_C@_0CN@FPEG@R6017?$AN?6?9?5unexpected?5multithread?5@ 100357f4     LIBCMT:crt0msg.obj
 0002:00000824       ??_C@_0CM@OBIC@R6016?$AN?6?9?5not?5enough?5space?5for?5th@ 10035824     LIBCMT:crt0msg.obj
 0002:00000850       ??_C@_0CB@HPAL@?$AN?6abnormal?5program?5termination?$AN?6@ 10035850     LIBCMT:crt0msg.obj
 0002:00000874       ??_C@_0CM@JOOB@R6009?$AN?6?9?5not?5enough?5space?5for?5en@ 10035874     LIBCMT:crt0msg.obj
 0002:000008a0       ??_C@_0CK@OIBL@R6008?$AN?6?9?5not?5enough?5space?5for?5ar@ 100358a0     LIBCMT:crt0msg.obj
 0002:000008cc       ??_C@_0CF@LKPB@R6002?$AN?6?9?5floating?5point?5not?5load@ 100358cc     LIBCMT:crt0msg.obj
 0002:000008f4       ??_C@_0CF@JPDF@Microsoft?5Visual?5C?$CL?$CL?5Runtime?5Lib@ 100358f4     LIBCMT:crt0msg.obj
 0002:0000091c       ??_C@_02JJJH@?6?6?$AA@     1003591c     LIBCMT:crt0msg.obj
 0002:00000920       ??_C@_0BK@DEOK@Runtime?5Error?$CB?6?6Program?3?5?$AA@ 10035920     LIBCMT:crt0msg.obj
 0002:0000093c       ??_C@_03NAME@?4?4?4?$AA@   1003593c     LIBCMT:crt0msg.obj
 0002:00000940       ??_C@_0BH@NNCD@?$DMprogram?5name?5unknown?$DO?$AA@ 10035940     LIBCMT:crt0msg.obj
 0002:00000958       ??_C@_07PCLE@LC_TIME?$AA@  10035958     LIBCMT:setlocal.obj
 0002:00000960       ??_C@_0L@NKG@LC_NUMERIC?$AA@ 10035960     LIBCMT:setlocal.obj
 0002:0000096c       ??_C@_0M@CBIH@LC_MONETARY?$AA@ 1003596c     LIBCMT:setlocal.obj
 0002:00000978       ??_C@_08LFGE@LC_CTYPE?$AA@ 10035978     LIBCMT:setlocal.obj
 0002:00000984       ??_C@_0L@CFLC@LC_COLLATE?$AA@ 10035984     LIBCMT:setlocal.obj
 0002:00000990       ??_C@_06GCPK@LC_ALL?$AA@   10035990     LIBCMT:setlocal.obj
 0002:00000998       ??_C@_01FAJB@?$DL?$AA@     10035998     LIBCMT:setlocal.obj
 0002:0000099c       ??_C@_02BGDO@?$DN?$DL?$AA@ 1003599c     LIBCMT:setlocal.obj
 0002:000009a0       ??_C@_01KPOD@?$DN?$AA@     100359a0     LIBCMT:setlocal.obj
 0002:000009a4       ??_C@_03DBOJ@_?4?0?$AA@    100359a4     LIBCMT:setlocal.obj
 0002:000009a8       ??_C@_01PJCK@?4?$AA@       100359a8     LIBCMT:setlocal.obj
 0002:000009ac       ??_C@_01NON@_?$AA@         100359ac     LIBCMT:setlocal.obj
 0002:000009b0       ??_C@_01A@?$AA?$AA@        100359b0     LIBCMT:a_map.obj
 0002:000009b4       ??_C@_13A@?$AA?$AA?$AA?$AA@ 100359b4     LIBCMT:a_map.obj
 0002:000009d0       ___dnames                  100359d0     LIBCMT:timeset.obj
 0002:000009e8       ___mnames                  100359e8     LIBCMT:timeset.obj
 0002:00000a10       ??_C@_02JHIA@TZ?$AA@       10035a10     LIBCMT:tzset.obj
 0002:00000a14       ??_C@_0BD@NJFP@GetLastActivePopup?$AA@ 10035a14     LIBCMT:crtmbox.obj
 0002:00000a28       ??_C@_0BA@GILI@GetActiveWindow?$AA@ 10035a28     LIBCMT:crtmbox.obj
 0002:00000a38       ??_C@_0M@PKCK@MessageBoxA?$AA@ 10035a38     LIBCMT:crtmbox.obj
 0002:00000a44       ??_C@_0L@HKL@user32?4dll?$AA@ 10035a44     LIBCMT:crtmbox.obj
 0002:00000a50       ??_C@_08OBJD@Paraguay?$AA@ 10035a50     LIBCMT:getqloc.obj
 0002:00000a5c       ??_C@_07GLKH@Uruguay?$AA@  10035a5c     LIBCMT:getqloc.obj
 0002:00000a64       ??_C@_05FPFC@Chile?$AA@    10035a64     LIBCMT:getqloc.obj
 0002:00000a6c       ??_C@_07IIGF@Ecuador?$AA@  10035a6c     LIBCMT:getqloc.obj
 0002:00000a74       ??_C@_09PKAL@Argentina?$AA@ 10035a74     LIBCMT:getqloc.obj
 0002:00000a80       ??_C@_04LKAH@Peru?$AA@     10035a80     LIBCMT:getqloc.obj
 0002:00000a88       ??_C@_08NEEM@Colombia?$AA@ 10035a88     LIBCMT:getqloc.obj
 0002:00000a94       ??_C@_09ODEB@Venezuela?$AA@ 10035a94     LIBCMT:getqloc.obj
 0002:00000aa0       ??_C@_0BD@CLEL@Dominican?5Republic?$AA@ 10035aa0     LIBCMT:getqloc.obj
 0002:00000ab4       ??_C@_0N@MDGL@South?5Africa?$AA@ 10035ab4     LIBCMT:getqloc.obj
 0002:00000ac4       ??_C@_06NKBG@Panama?$AA@   10035ac4     LIBCMT:getqloc.obj
 0002:00000acc       ??_C@_0L@BMHO@Luxembourg?$AA@ 10035acc     LIBCMT:getqloc.obj
 0002:00000ad8       ??_C@_0L@IMDK@Costa?5Rica?$AA@ 10035ad8     LIBCMT:getqloc.obj
 0002:00000ae4       ??_C@_0M@BLJF@Switzerland?$AA@ 10035ae4     LIBCMT:getqloc.obj
 0002:00000af0       ??_C@_09KBOL@Guatemala?$AA@ 10035af0     LIBCMT:getqloc.obj
 0002:00000afc       ??_C@_06JNAK@Canada?$AA@   10035afc     LIBCMT:getqloc.obj
 0002:00000b04       ??_C@_0BG@OLLP@Spanish?5?9?5Modern?5Sort?$AA@ 10035b04     LIBCMT:getqloc.obj
 0002:00000b1c       ??_C@_09IDKE@Australia?$AA@ 10035b1c     LIBCMT:getqloc.obj
 0002:00000b28       ??_C@_07JJJJ@English?$AA@  10035b28     LIBCMT:getqloc.obj
 0002:00000b30       ??_C@_07NMDO@Austria?$AA@  10035b30     LIBCMT:getqloc.obj
 0002:00000b38       ??_C@_06DEFE@German?$AA@   10035b38     LIBCMT:getqloc.obj
 0002:00000b40       ??_C@_07JAIH@Belgium?$AA@  10035b40     LIBCMT:getqloc.obj
 0002:00000b48       ??_C@_06BNLJ@Mexico?$AA@   10035b48     LIBCMT:getqloc.obj
 0002:00000b50       ??_C@_07JHAG@Spanish?$AA@  10035b50     LIBCMT:getqloc.obj
 0002:00000b58       ??_C@_06DADE@Basque?$AA@   10035b58     LIBCMT:getqloc.obj
 0002:00000b60       ??_C@_06ENFP@Sweden?$AA@   10035b60     LIBCMT:getqloc.obj
 0002:00000b68       ??_C@_07JPMH@Swedish?$AA@  10035b68     LIBCMT:getqloc.obj
 0002:00000b70       ??_C@_07IEKF@Iceland?$AA@  10035b70     LIBCMT:getqloc.obj
 0002:00000b78       ??_C@_09KNEA@Icelandic?$AA@ 10035b78     LIBCMT:getqloc.obj
 0002:00000b84       ??_C@_06IJOD@France?$AA@   10035b84     LIBCMT:getqloc.obj
 0002:00000b8c       ??_C@_06EINI@French?$AA@   10035b8c     LIBCMT:getqloc.obj
 0002:00000b94       ??_C@_07FOOE@Finland?$AA@  10035b94     LIBCMT:getqloc.obj
 0002:00000b9c       ??_C@_07OJOM@Finnish?$AA@  10035b9c     LIBCMT:getqloc.obj
 0002:00000ba4       ??_C@_05FFAC@Spain?$AA@    10035ba4     LIBCMT:getqloc.obj
 0002:00000bac       ??_C@_0BL@BIHM@Spanish?5?9?5Traditional?5Sort?$AA@ 10035bac     LIBCMT:getqloc.obj
 0002:00000bc8       ??_C@_0O@GLHB@united?9states?$AA@ 10035bc8     LIBCMT:getqloc.obj
 0002:00000bd8       ??_C@_0P@IIKK@united?9kingdom?$AA@ 10035bd8     LIBCMT:getqloc.obj
 0002:00000be8       ??_C@_0BC@FHBO@trinidad?5?$CG?5tobago?$AA@ 10035be8     LIBCMT:getqloc.obj
 0002:00000bfc       ??_C@_0M@BDFM@south?9korea?$AA@ 10035bfc     LIBCMT:getqloc.obj
 0002:00000c08       ??_C@_0N@CKFA@south?9africa?$AA@ 10035c08     LIBCMT:getqloc.obj
 0002:00000c18       ??_C@_0M@HNHN@south?5korea?$AA@ 10035c18     LIBCMT:getqloc.obj
 0002:00000c24       ??_C@_0N@MKDO@south?5africa?$AA@ 10035c24     LIBCMT:getqloc.obj
 0002:00000c34       ??_C@_06KFFJ@slovak?$AA@   10035c34     LIBCMT:getqloc.obj
 0002:00000c3c       ??_C@_0M@NMAC@puerto?9rico?$AA@ 10035c3c     LIBCMT:getqloc.obj
 0002:00000c48       ??_C@_08EJOH@pr?9china?$AA@ 10035c48     LIBCMT:getqloc.obj
 0002:00000c54       ??_C@_08CHMG@pr?5china?$AA@ 10035c54     LIBCMT:getqloc.obj
 0002:00000c60       ??_C@_02OCJK@nz?$AA@       10035c60     LIBCMT:getqloc.obj
 0002:00000c64       ??_C@_0M@MMKA@new?9zealand?$AA@ 10035c64     LIBCMT:getqloc.obj
 0002:00000c70       ??_C@_09MGEH@hong?9kong?$AA@ 10035c70     LIBCMT:getqloc.obj
 0002:00000c7c       ??_C@_07CCAK@holland?$AA@  10035c7c     LIBCMT:getqloc.obj
 0002:00000c84       ??_C@_0O@MEPL@great?5britain?$AA@ 10035c84     LIBCMT:getqloc.obj
 0002:00000c94       ??_C@_07LGIB@england?$AA@  10035c94     LIBCMT:getqloc.obj
 0002:00000c9c       ??_C@_05BMOA@czech?$AA@    10035c9c     LIBCMT:getqloc.obj
 0002:00000ca4       ??_C@_05NMPB@china?$AA@    10035ca4     LIBCMT:getqloc.obj
 0002:00000cac       ??_C@_07GN@britain?$AA@    10035cac     LIBCMT:getqloc.obj
 0002:00000cb4       ??_C@_07DLAK@america?$AA@  10035cb4     LIBCMT:getqloc.obj
 0002:00000cbc       ??_C@_03IPEP@usa?$AA@      10035cbc     LIBCMT:getqloc.obj
 0002:00000cc0       ??_C@_02PILH@us?$AA@       10035cc0     LIBCMT:getqloc.obj
 0002:00000cc4       ??_C@_02FHP@uk?$AA@        10035cc4     LIBCMT:getqloc.obj
 0002:00000cc8       ??_C@_05DEAI@swiss?$AA@    10035cc8     LIBCMT:getqloc.obj
 0002:00000cd0       ??_C@_0BA@LIAF@swedish?9finland?$AA@ 10035cd0     LIBCMT:getqloc.obj
 0002:00000ce0       ??_C@_0BC@FMEG@spanish?9venezuela?$AA@ 10035ce0     LIBCMT:getqloc.obj
 0002:00000cf4       ??_C@_0BA@BNMG@spanish?9uruguay?$AA@ 10035cf4     LIBCMT:getqloc.obj
 0002:00000d04       ??_C@_0BE@BKDJ@spanish?9puerto?5rico?$AA@ 10035d04     LIBCMT:getqloc.obj
 0002:00000d18       ??_C@_0N@JIBL@spanish?9peru?$AA@ 10035d18     LIBCMT:getqloc.obj
 0002:00000d28       ??_C@_0BB@OGOF@spanish?9paraguay?$AA@ 10035d28     LIBCMT:getqloc.obj
 0002:00000d3c       ??_C@_0P@LLFA@spanish?9panama?$AA@ 10035d3c     LIBCMT:getqloc.obj
 0002:00000d4c       ??_C@_0BC@BBJM@spanish?9nicaragua?$AA@ 10035d4c     LIBCMT:getqloc.obj
 0002:00000d60       ??_C@_0P@NJBN@spanish?9modern?$AA@ 10035d60     LIBCMT:getqloc.obj
 0002:00000d70       ??_C@_0BA@NHDN@spanish?9mexican?$AA@ 10035d70     LIBCMT:getqloc.obj
 0002:00000d80       ??_C@_0BB@JHOJ@spanish?9honduras?$AA@ 10035d80     LIBCMT:getqloc.obj
 0002:00000d94       ??_C@_0BC@BOOM@spanish?9guatemala?$AA@ 10035d94     LIBCMT:getqloc.obj
 0002:00000da8       ??_C@_0BE@EELI@spanish?9el?5salvador?$AA@ 10035da8     LIBCMT:getqloc.obj
 0002:00000dbc       ??_C@_0BA@POAE@spanish?9ecuador?$AA@ 10035dbc     LIBCMT:getqloc.obj
 0002:00000dcc       ??_C@_0BL@LDKN@spanish?9dominican?5republic?$AA@ 10035dcc     LIBCMT:getqloc.obj
 0002:00000de8       ??_C@_0BD@HPMH@spanish?9costa?5rica?$AA@ 10035de8     LIBCMT:getqloc.obj
 0002:00000dfc       ??_C@_0BB@NDDK@spanish?9colombia?$AA@ 10035dfc     LIBCMT:getqloc.obj
 0002:00000e10       ??_C@_0O@BJHA@spanish?9chile?$AA@ 10035e10     LIBCMT:getqloc.obj
 0002:00000e20       ??_C@_0BA@OBNG@spanish?9bolivia?$AA@ 10035e20     LIBCMT:getqloc.obj
 0002:00000e30       ??_C@_0BC@EFAM@spanish?9argentina?$AA@ 10035e30     LIBCMT:getqloc.obj
 0002:00000e44       ??_C@_0BF@KMMM@portuguese?9brazilian?$AA@ 10035e44     LIBCMT:getqloc.obj
 0002:00000e5c       ??_C@_0BC@BAAE@norwegian?9nynorsk?$AA@ 10035e5c     LIBCMT:getqloc.obj
 0002:00000e70       ??_C@_0BB@PBHK@norwegian?9bokmal?$AA@ 10035e70     LIBCMT:getqloc.obj
 0002:00000e84       ??_C@_09EHKL@norwegian?$AA@ 10035e84     LIBCMT:getqloc.obj
 0002:00000e90       ??_C@_0O@BEAN@italian?9swiss?$AA@ 10035e90     LIBCMT:getqloc.obj
 0002:00000ea0       ??_C@_0O@OIFK@irish?9english?$AA@ 10035ea0     LIBCMT:getqloc.obj
 0002:00000eb0       ??_C@_0N@NBPL@german?9swiss?$AA@ 10035eb0     LIBCMT:getqloc.obj
 0002:00000ec0       ??_C@_0BC@ICFJ@german?9luxembourg?$AA@ 10035ec0     LIBCMT:getqloc.obj
 0002:00000ed4       ??_C@_0BE@GGPC@german?9lichtenstein?$AA@ 10035ed4     LIBCMT:getqloc.obj
 0002:00000ee8       ??_C@_0BA@MKDC@german?9austrian?$AA@ 10035ee8     LIBCMT:getqloc.obj
 0002:00000ef8       ??_C@_0N@ODNB@french?9swiss?$AA@ 10035ef8     LIBCMT:getqloc.obj
 0002:00000f08       ??_C@_0BC@MGCM@french?9luxembourg?$AA@ 10035f08     LIBCMT:getqloc.obj
 0002:00000f1c       ??_C@_0BA@NABK@french?9canadian?$AA@ 10035f1c     LIBCMT:getqloc.obj
 0002:00000f2c       ??_C@_0P@CJNO@french?9belgian?$AA@ 10035f2c     LIBCMT:getqloc.obj
 0002:00000f3c       ??_C@_0M@LJOL@english?9usa?$AA@ 10035f3c     LIBCMT:getqloc.obj
 0002:00000f48       ??_C@_0L@FMNC@english?9us?$AA@ 10035f48     LIBCMT:getqloc.obj
 0002:00000f54       ??_C@_0L@KBBK@english?9uk?$AA@ 10035f54     LIBCMT:getqloc.obj
 0002:00000f60       ??_C@_0BK@NDDE@english?9trinidad?5y?5tobago?$AA@ 10035f60     LIBCMT:getqloc.obj
 0002:00000f7c       ??_C@_0BF@LKML@english?9south?5africa?$AA@ 10035f7c     LIBCMT:getqloc.obj
 0002:00000f94       ??_C@_0L@EGPP@english?9nz?$AA@ 10035f94     LIBCMT:getqloc.obj
 0002:00000fa0       ??_C@_0BA@HLH@english?9jamaica?$AA@ 10035fa0     LIBCMT:getqloc.obj
 0002:00000fb0       ??_C@_0M@PMJI@english?9ire?$AA@ 10035fb0     LIBCMT:getqloc.obj
 0002:00000fbc       ??_C@_0BC@HINE@english?9caribbean?$AA@ 10035fbc     LIBCMT:getqloc.obj
 0002:00000fd0       ??_C@_0M@DCFH@english?9can?$AA@ 10035fd0     LIBCMT:getqloc.obj
 0002:00000fdc       ??_C@_0P@DGHK@english?9belize?$AA@ 10035fdc     LIBCMT:getqloc.obj
 0002:00000fec       ??_C@_0M@FLHK@english?9aus?$AA@ 10035fec     LIBCMT:getqloc.obj
 0002:00000ff8       ??_C@_0BB@HNCK@english?9american?$AA@ 10035ff8     LIBCMT:getqloc.obj
 0002:0000100c       ??_C@_0O@PAMI@dutch?9belgian?$AA@ 1003600c     LIBCMT:getqloc.obj
 0002:0000101c       ??_C@_0BE@FPEJ@chinese?9traditional?$AA@ 1003601c     LIBCMT:getqloc.obj
 0002:00001030       ??_C@_0BC@CHFL@chinese?9singapore?$AA@ 10036030     LIBCMT:getqloc.obj
 0002:00001044       ??_C@_0BD@DCMH@chinese?9simplified?$AA@ 10036044     LIBCMT:getqloc.obj
 0002:00001058       ??_C@_0BB@JMOE@chinese?9hongkong?$AA@ 10036058     LIBCMT:getqloc.obj
 0002:0000106c       ??_C@_07NGFN@chinese?$AA@  1003606c     LIBCMT:getqloc.obj
 0002:00001074       ??_C@_03PCOI@chi?$AA@      10036074     LIBCMT:getqloc.obj
 0002:00001078       ??_C@_03FIHP@chh?$AA@      10036078     LIBCMT:getqloc.obj
 0002:0000107c       ??_C@_08HFLO@canadian?$AA@ 1003607c     LIBCMT:getqloc.obj
 0002:00001088       ??_C@_07INIJ@belgian?$AA@  10036088     LIBCMT:getqloc.obj
 0002:00001090       ??_C@_0L@LCCA@australian?$AA@ 10036090     LIBCMT:getqloc.obj
 0002:0000109c       ??_C@_0BB@BJIO@american?9english?$AA@ 1003609c     LIBCMT:getqloc.obj
 0002:000010b0       ??_C@_0BB@DAGO@american?5english?$AA@ 100360b0     LIBCMT:getqloc.obj
 0002:000010c4       ??_C@_08HENB@american?$AA@ 100360c4     LIBCMT:getqloc.obj
 0002:000010d0       ??_C@_03DGJE@OCP?$AA@      100360d0     LIBCMT:getqloc.obj
 0002:000010d4       ??_C@_03EKFG@ACP?$AA@      100360d4     LIBCMT:getqloc.obj
 0002:000010e4       ??_C@_06PAPI@1?$CDQNAN?$AA@ 100360e4     LIBCMT:x10fout.obj
 0002:000010ec       ??_C@_05BGNL@1?$CDINF?$AA@ 100360ec     LIBCMT:x10fout.obj
 0002:000010f4       ??_C@_05EDPF@1?$CDIND?$AA@ 100360f4     LIBCMT:x10fout.obj
 0002:000010fc       ??_C@_06LKFM@1?$CDSNAN?$AA@ 100360fc     LIBCMT:x10fout.obj
 0002:00001104       ??_C@_07CJME@H?3mm?3ss?$AA@ 10036104     LIBCMT:strftime.obj
 0002:0000110c       ??_C@_0BE@MHI@dddd?0?5MMMM?5dd?0?5yyyy?$AA@ 1003610c     LIBCMT:strftime.obj
 0002:00001120       ??_C@_06HCAD@M?1d?1yy?$AA@ 10036120     LIBCMT:strftime.obj
 0002:00001128       ??_C@_02DBLP@PM?$AA@       10036128     LIBCMT:strftime.obj
 0002:0000112c       ??_C@_02ENLM@AM?$AA@       1003612c     LIBCMT:strftime.obj
 0002:00001130       ??_C@_08LIDF@December?$AA@ 10036130     LIBCMT:strftime.obj
 0002:0000113c       ??_C@_08NJLI@November?$AA@ 1003613c     LIBCMT:strftime.obj
 0002:00001148       ??_C@_07IAMM@October?$AA@  10036148     LIBCMT:strftime.obj
 0002:00001150       ??_C@_09MKGD@September?$AA@ 10036150     LIBCMT:strftime.obj
 0002:0000115c       ??_C@_06PADP@August?$AA@   1003615c     LIBCMT:strftime.obj
 0002:00001164       ??_C@_04PIJO@July?$AA@     10036164     LIBCMT:strftime.obj
 0002:0000116c       ??_C@_04ICFP@June?$AA@     1003616c     LIBCMT:strftime.obj
 0002:00001174       ??_C@_05JFGC@April?$AA@    10036174     LIBCMT:strftime.obj
 0002:0000117c       ??_C@_05FGPD@March?$AA@    1003617c     LIBCMT:strftime.obj
 0002:00001184       ??_C@_08PGBA@February?$AA@ 10036184     LIBCMT:strftime.obj
 0002:00001190       ??_C@_07BPKJ@January?$AA@  10036190     LIBCMT:strftime.obj
 0002:00001198       ??_C@_03PGJO@Dec?$AA@      10036198     LIBCMT:strftime.obj
 0002:0000119c       ??_C@_03PDLM@Nov?$AA@      1003619c     LIBCMT:strftime.obj
 0002:000011a0       ??_C@_03BLHK@Oct?$AA@      100361a0     LIBCMT:strftime.obj
 0002:000011a4       ??_C@_03DPFM@Sep?$AA@      100361a4     LIBCMT:strftime.obj
 0002:000011a8       ??_C@_03CMCH@Aug?$AA@      100361a8     LIBCMT:strftime.obj
 0002:000011ac       ??_C@_03OBKI@Jul?$AA@      100361ac     LIBCMT:strftime.obj
 0002:000011b0       ??_C@_03LEIG@Jun?$AA@      100361b0     LIBCMT:strftime.obj
 0002:000011b4       ??_C@_03MGHB@May?$AA@      100361b4     LIBCMT:strftime.obj
 0002:000011b8       ??_C@_03MJJM@Apr?$AA@      100361b8     LIBCMT:strftime.obj
 0002:000011bc       ??_C@_03GNHA@Mar?$AA@      100361bc     LIBCMT:strftime.obj
 0002:000011c0       ??_C@_03PICE@Feb?$AA@      100361c0     LIBCMT:strftime.obj
 0002:000011c4       ??_C@_03IEIF@Jan?$AA@      100361c4     LIBCMT:strftime.obj
 0002:000011c8       ??_C@_08FAKH@Saturday?$AA@ 100361c8     LIBCMT:strftime.obj
 0002:000011d4       ??_C@_06ONCK@Friday?$AA@   100361d4     LIBCMT:strftime.obj
 0002:000011dc       ??_C@_08CCFO@Thursday?$AA@ 100361dc     LIBCMT:strftime.obj
 0002:000011e8       ??_C@_09PBIN@Wednesday?$AA@ 100361e8     LIBCMT:strftime.obj
 0002:000011f4       ??_C@_07BMBC@Tuesday?$AA@  100361f4     LIBCMT:strftime.obj
 0002:000011fc       ??_C@_06CHLK@Monday?$AA@   100361fc     LIBCMT:strftime.obj
 0002:00001204       ??_C@_06OOEM@Sunday?$AA@   10036204     LIBCMT:strftime.obj
 0002:0000120c       ??_C@_03MPKK@Sat?$AA@      1003620c     LIBCMT:strftime.obj
 0002:00001210       ??_C@_03FINJ@Fri?$AA@      10036210     LIBCMT:strftime.obj
 0002:00001214       ??_C@_03HIKC@Thu?$AA@      10036214     LIBCMT:strftime.obj
 0002:00001218       ??_C@_03HECK@Wed?$AA@      10036218     LIBCMT:strftime.obj
 0002:0000121c       ??_C@_03ECCP@Tue?$AA@      1003621c     LIBCMT:strftime.obj
 0002:00001220       ??_C@_03PIEP@Mon?$AA@      10036220     LIBCMT:strftime.obj
 0002:00001224       ??_C@_03FHEP@Sun?$AA@      10036224     LIBCMT:strftime.obj
 0002:00001228       ??_C@_03MKGK@a?1p?$AA@     10036228     LIBCMT:strftime.obj
 0002:0000122c       ??_C@_05BDJK@am?1pm?$AA@   1003622c     LIBCMT:strftime.obj
 0002:0000128c       ??_7length_error@std@@6B@  1003628c     libcpmt:string.obj
 0002:00001298       ??_C@_0BA@HHMB@string?5too?5long?$AA@ 10036298     libcpmt:string.obj
 0002:000012ac       ??_7logic_error@std@@6B@   100362ac     libcpmt:string.obj
 0002:000012bc       ??_7out_of_range@std@@6B@  100362bc     libcpmt:string.obj
 0002:000012c8       ??_C@_0BI@EEBE@invalid?5string?5position?$AA@ 100362c8     libcpmt:string.obj
 0002:000012e0       ?_Fpz@std@@3_JB            100362e0     libcpmt:ios.obj
 0002:000012ec       ??_7failure@ios_base@std@@6B@ 100362ec     libcpmt:ios.obj
 0002:000012f8       ??_C@_0BA@NGIA@ios?3?3eofbit?5set?$AA@ 100362f8     libcpmt:ios.obj
 0002:00001308       ??_C@_0BB@KPBH@ios?3?3failbit?5set?$AA@ 10036308     libcpmt:ios.obj
 0002:0000131c       ??_C@_0BA@HGGD@ios?3?3badbit?5set?$AA@ 1003631c     libcpmt:ios.obj
 0002:00001330       ??_7runtime_error@std@@6B@ 10036330     libcpmt:ios.obj
 0002:00001340       ??_7ios_base@std@@6B@      10036340     libcpmt:ios.obj
 0002:00001344       ??_C@_0BP@INPK@invalid?5ios?3?3iword?1pword?5index?$AA@ 10036344     libcpmt:ios.obj
 0002:00001368       ??_7?$basic_istream@DU?$char_traits@D@std@@@std@@6B@ 10036368     libcpmt:strstrea.obj
 0002:00001370       ??_7istrstream@std@@6B@    10036370     libcpmt:strstrea.obj
 0002:00001378       ??_7ostrstream@std@@6B@    10036378     libcpmt:strstrea.obj
 0002:00001380       ??_7strstreambuf@std@@6B@  10036380     libcpmt:strstrea.obj
 0002:000013b8       ??_7?$basic_streambuf@DU?$char_traits@D@std@@@std@@6B@ 100363b8     libcpmt:strstrea.obj
 0002:000013f0       ??_7?$basic_ios@DU?$char_traits@D@std@@@std@@6B@ 100363f0     libcpmt:strstrea.obj
 0002:000013f4       ??_8ostrstream@std@@7B@    100363f4     libcpmt:strstrea.obj
 0002:00001400       ??_7?$basic_ostream@DU?$char_traits@D@std@@@std@@6B@ 10036400     libcpmt:strstrea.obj
 0002:00001408       ??_7strstream@std@@6B@     10036408     libcpmt:strstrea.obj
 0002:00001410       ??_7?$basic_iostream@DU?$char_traits@D@std@@@std@@6B@ 10036410     libcpmt:strstrea.obj
 0002:00001414       ??_8?$basic_istream@DU?$char_traits@D@std@@@std@@7B@ 10036414     libcpmt:strstrea.obj
 0002:0000141c       ?table_size@?$ctype@D@std@@2IB 1003641c     libcpmt:locale0.obj
 0002:00001420       ??_C@_01FDHG@?$CK?$AA@     10036420     libcpmt:locale0.obj
 0002:00001428       ??_7_Locimp@locale@std@@6B@ 10036428     libcpmt:locale0.obj
 0002:00001430       ??_7facet@locale@std@@6B@  10036430     libcpmt:locale0.obj
 0002:00001434       ??_C@_0BA@KCC@bad?5locale?5name?$AA@ 10036434     libcpmt:locale.obj
 0002:00001448       ??_7?$codecvt@DDH@std@@6B@ 10036448     libcpmt:locale.obj
 0002:00001468       ??_7?$numpunct@D@std@@6B@  10036468     libcpmt:locale.obj
 0002:00001484       ??_7?$num_put@DV?$ostreambuf_iterator@DU?$char_traits@D@std@@@std@@@std@@6B@ 10036484     libcpmt:locale.obj
 0002:000014a4       ??_7?$num_get@DV?$istreambuf_iterator@DU?$char_traits@D@std@@@std@@@std@@6B@ 100364a4     libcpmt:locale.obj
 0002:000014d0       ??_7?$ctype@D@std@@6B@     100364d0     libcpmt:locale.obj
 0002:000014e4       ??_C@_0BH@CFAI@0123456789abcdefABCDEF?$AA@ 100364e4     libcpmt:locale.obj
 0002:00001500       ??_7bad_cast@std@@6B@      10036500     libcpmt:locale.obj
 0002:00001510       ??_7?$basic_filebuf@DU?$char_traits@D@std@@@std@@6B@ 10036510     libcpmt:iostream.obj
 0002:00001548       ??_7?$basic_istream@GU?$char_traits@G@std@@@std@@6B@ 10036548     libcpmt:wiostrea.obj
 0002:00001550       ??_7?$basic_ostream@GU?$char_traits@G@std@@@std@@6B@ 10036550     libcpmt:wiostrea.obj
 0002:00001558       ??_7?$basic_ios@GU?$char_traits@G@std@@@std@@6B@ 10036558     libcpmt:wiostrea.obj
 0002:0000155c       ??_8?$basic_ostream@GU?$char_traits@G@std@@@std@@7B@ 1003655c     libcpmt:wiostrea.obj
 0002:00001564       ??_8?$basic_istream@GU?$char_traits@G@std@@@std@@7B@ 10036564     libcpmt:wiostrea.obj
 0002:00001570       ??_7?$basic_filebuf@GU?$char_traits@G@std@@@std@@6B@ 10036570     libcpmt:wiostrea.obj
 0002:000015a8       ??_7?$basic_streambuf@GU?$char_traits@G@std@@@std@@6B@ 100365a8     libcpmt:wiostrea.obj
 0002:000015dc       ?nothrow@std@@3Unothrow_t@1@B 100365dc     libcpmt:nomemory.obj
 0002:000015e0       ??_C@_0P@LJNA@bad?5allocation?$AA@ 100365e0     libcpmt:nomemory.obj
 0002:000015f4       ??_7bad_alloc@std@@6B@     100365f4     libcpmt:nomemory.obj
 0002:00001604       ??_7?$codecvt@GDH@std@@6B@ 10036604     libcpmt:wlocale.obj
 0002:00001624       ??_7?$time_put@GV?$ostreambuf_iterator@GU?$char_traits@G@std@@@std@@@std@@6B@ 10036624     libcpmt:wlocale.obj
 0002:00001630       ??_7?$time_get@GV?$istreambuf_iterator@GU?$char_traits@G@std@@@std@@@std@@6B@ 10036630     libcpmt:wlocale.obj
 0002:00001650       ??_7?$moneypunct@G$00@std@@6B@ 10036650     libcpmt:wlocale.obj
 0002:0000167c       ??_7?$moneypunct@G$0A@@std@@6B@ 1003667c     libcpmt:wlocale.obj
 0002:000016a8       ??_7?$money_put@GV?$ostreambuf_iterator@GU?$char_traits@G@std@@@std@@@std@@6B@ 100366a8     libcpmt:wlocale.obj
 0002:000016b8       ??_7?$money_get@GV?$istreambuf_iterator@GU?$char_traits@G@std@@@std@@@std@@6B@ 100366b8     libcpmt:wlocale.obj
 0002:000016c8       ??_7?$messages@G@std@@6B@  100366c8     libcpmt:wlocale.obj
 0002:000016dc       ??_7?$collate@G@std@@6B@   100366dc     libcpmt:wlocale.obj
 0002:000016f0       ??_7?$numpunct@G@std@@6B@  100366f0     libcpmt:wlocale.obj
 0002:0000170c       ??_7?$num_put@GV?$ostreambuf_iterator@GU?$char_traits@G@std@@@std@@@std@@6B@ 1003670c     libcpmt:wlocale.obj
 0002:0000172c       ??_7?$num_get@GV?$istreambuf_iterator@GU?$char_traits@G@std@@@std@@@std@@6B@ 1003672c     libcpmt:wlocale.obj
 0002:00001758       ??_7?$ctype@G@std@@6B@     10036758     libcpmt:wlocale.obj
 0002:0000178c       ??_C@_04HHID@?$CB?$CFx?$AA?$AA@ 1003678c     libcpmt:wlocale.obj
 0002:00001794       ?_C@?1??_Nullstr@?$basic_string@GU?$char_traits@G@std@@V?$allocator@G@2@@std@@CAPBGXZ@4GB 10036794     libcpmt:wlocale.obj
 0002:00001798       ?npos@?$basic_string@GU?$char_traits@G@std@@V?$allocator@G@2@@std@@2IB 10036798     libcpmt:wlocale.obj
 0002:0000179c       ??_C@_05FFJC@?$CF?40Lf?$AA@ 1003679c     libcpmt:wlocale.obj
 0002:000017a8       __real@8@3fdddbe6fecebdedd800 100367a8     libcpmt:wlocale.obj
 0002:000017b0       __real@8@40739a130b963a6c1000 100367b0     libcpmt:wlocale.obj
 0002:000017bc       ??_7?$_Mpunct@G@std@@6B@   100367bc     libcpmt:wlocale.obj
 0002:000017e4       ??_C@_03LGKI@yes?$AA@      100367e4     libcpmt:wlocale.obj
 0002:000017e8       ??_C@_02ELCB@no?$AA@       100367e8     libcpmt:wlocale.obj
 0002:000017ec       ??_C@_0FG@ILEN@?3Sun?3Sunday?3Mon?3Monday?3Tue?3Tuesd@ 100367ec     libcpmt:wlocale.obj
 0002:00001844       ??_C@_0IH@JLLA@?3Jan?3January?3Feb?3February?3Mar?3Ma@ 10036844     libcpmt:wlocale.obj
 0002:000018cc       ??_C@_01GJD@?9?$AA@        100368cc     libcpmt:wlocale.obj
 0002:000018d0       ??_C@_04HDBI@$?$CLvx?$AA@  100368d0     libcpmt:wlocale.obj
 0002:000018d8       ??_C@_0FB@PNAB@?$CLv$x?$CLv$xv$?$CLxv?$CL$xv$?$CLx?$CL$vx?$CL$vx$v?$CLx@ 100368d8     libcpmt:wlocale.obj
 0002:00001930       ??_7?$time_put@DV?$ostreambuf_iterator@DU?$char_traits@D@std@@@std@@@std@@6B@ 10036930     libcpmt:xlocale.obj
 0002:0000193c       ??_7?$time_get@DV?$istreambuf_iterator@DU?$char_traits@D@std@@@std@@@std@@6B@ 1003693c     libcpmt:xlocale.obj
 0002:0000195c       ??_7?$moneypunct@D$00@std@@6B@ 1003695c     libcpmt:xlocale.obj
 0002:00001988       ??_7?$moneypunct@D$0A@@std@@6B@ 10036988     libcpmt:xlocale.obj
 0002:000019b4       ??_7?$money_put@DV?$ostreambuf_iterator@DU?$char_traits@D@std@@@std@@@std@@6B@ 100369b4     libcpmt:xlocale.obj
 0002:000019c4       ??_7?$money_get@DV?$istreambuf_iterator@DU?$char_traits@D@std@@@std@@@std@@6B@ 100369c4     libcpmt:xlocale.obj
 0002:000019d4       ??_7?$messages@D@std@@6B@  100369d4     libcpmt:xlocale.obj
 0002:000019e8       ??_7?$collate@D@std@@6B@   100369e8     libcpmt:xlocale.obj
 0002:000019fc       ??_7?$_Mpunct@D@std@@6B@   100369fc     libcpmt:xlocale.obj
 0002:00001a28       __real@8@3ffbccccccccccccd000 10036a28     libcpmt:xstod.obj
 0002:00001a30       __real@8@4002a000000000000000 10036a30     libcpmt:xstod.obj
 0002:00001a38       ??_R1A@?0A@A@type_info@@8  10036a38     LIBCMT:typinfo.obj
 0002:00001a50       ??_R2type_info@@8          10036a50     LIBCMT:typinfo.obj
 0002:00001a58       ??_R3type_info@@8          10036a58     LIBCMT:typinfo.obj
 0002:00001a68       ??_R4type_info@@6B@        10036a68     LIBCMT:typinfo.obj
 0002:00001a80       ??_R1A@?0A@A@exception@@8  10036a80     LIBCMT:stdexcpt.obj
 0002:00001a98       ??_R2exception@@8          10036a98     LIBCMT:stdexcpt.obj
 0002:00001aa0       ??_R3exception@@8          10036aa0     LIBCMT:stdexcpt.obj
 0002:00001ab0       ??_R4exception@@6B@        10036ab0     LIBCMT:stdexcpt.obj
 0002:00001ac8       ??_R1A@?0A@A@logic_error@std@@8 10036ac8     libcpmt:string.obj
 0002:00001ae0       ??_R1A@?0A@A@length_error@std@@8 10036ae0     libcpmt:string.obj
 0002:00001af8       ??_R2length_error@std@@8   10036af8     libcpmt:string.obj
 0002:00001b08       ??_R3length_error@std@@8   10036b08     libcpmt:string.obj
 0002:00001b18       ??_R4length_error@std@@6B@ 10036b18     libcpmt:string.obj
 0002:00001b30       ??_R2logic_error@std@@8    10036b30     libcpmt:string.obj
 0002:00001b40       ??_R3logic_error@std@@8    10036b40     libcpmt:string.obj
 0002:00001b50       ??_R4logic_error@std@@6B@  10036b50     libcpmt:string.obj
 0002:00001b68       ??_R1A@?0A@A@out_of_range@std@@8 10036b68     libcpmt:string.obj
 0002:00001b80       ??_R2out_of_range@std@@8   10036b80     libcpmt:string.obj
 0002:00001b90       ??_R3out_of_range@std@@8   10036b90     libcpmt:string.obj
 0002:00001ba0       ??_R4out_of_range@std@@6B@ 10036ba0     libcpmt:string.obj
 0002:00001bb8       ??_R1A@?0A@A@runtime_error@std@@8 10036bb8     libcpmt:ios.obj
 0002:00001bd0       ??_R1A@?0A@A@failure@ios_base@std@@8 10036bd0     libcpmt:ios.obj
 0002:00001be8       ??_R2failure@ios_base@std@@8 10036be8     libcpmt:ios.obj
 0002:00001bf8       ??_R3failure@ios_base@std@@8 10036bf8     libcpmt:ios.obj
 0002:00001c08       ??_R4failure@ios_base@std@@6B@ 10036c08     libcpmt:ios.obj
 0002:00001c20       ??_R2runtime_error@std@@8  10036c20     libcpmt:ios.obj
 0002:00001c30       ??_R3runtime_error@std@@8  10036c30     libcpmt:ios.obj
 0002:00001c40       ??_R4runtime_error@std@@6B@ 10036c40     libcpmt:ios.obj
 0002:00001c58       ??_R1A@?0A@A@ios_base@std@@8 10036c58     libcpmt:ios.obj
 0002:00001c70       ??_R2ios_base@std@@8       10036c70     libcpmt:ios.obj
 0002:00001c78       ??_R3ios_base@std@@8       10036c78     libcpmt:ios.obj
 0002:00001c88       ??_R4ios_base@std@@6B@     10036c88     libcpmt:ios.obj
 0002:00001ca0       ??_R2?$basic_istream@DU?$char_traits@D@std@@@std@@8 10036ca0     libcpmt:strstrea.obj
 0002:00001cb0       ??_R3?$basic_istream@DU?$char_traits@D@std@@@std@@8 10036cb0     libcpmt:strstrea.obj
 0002:00001cc0       ??_R4?$basic_istream@DU?$char_traits@D@std@@@std@@6B@ 10036cc0     libcpmt:strstrea.obj
 0002:00001cd8       ??_R1A@A@3A@ios_base@std@@8 10036cd8     libcpmt:strstrea.obj
 0002:00001cf0       ??_R1A@A@3BA@?$basic_ios@DU?$char_traits@D@std@@@std@@8 10036cf0     libcpmt:strstrea.obj
 0002:00001d08       ??_R1A@?0A@A@?$basic_istream@DU?$char_traits@D@std@@@std@@8 10036d08     libcpmt:strstrea.obj
 0002:00001d20       ??_R1A@?0A@A@istrstream@std@@8 10036d20     libcpmt:strstrea.obj
 0002:00001d38       ??_R2istrstream@std@@8     10036d38     libcpmt:strstrea.obj
 0002:00001d50       ??_R3istrstream@std@@8     10036d50     libcpmt:strstrea.obj
 0002:00001d60       ??_R4istrstream@std@@6B@   10036d60     libcpmt:strstrea.obj
 0002:00001d78       ??_R1A@?0A@A@?$basic_ostream@DU?$char_traits@D@std@@@std@@8 10036d78     libcpmt:strstrea.obj
 0002:00001d90       ??_R1A@?0A@A@ostrstream@std@@8 10036d90     libcpmt:strstrea.obj
 0002:00001da8       ??_R2ostrstream@std@@8     10036da8     libcpmt:strstrea.obj
 0002:00001dc0       ??_R3ostrstream@std@@8     10036dc0     libcpmt:strstrea.obj
 0002:00001dd0       ??_R4ostrstream@std@@6B@   10036dd0     libcpmt:strstrea.obj
 0002:00001de4       ??_R2?$basic_streambuf@DU?$char_traits@D@std@@@std@@8 10036de4     libcpmt:strstrea.obj
 0002:00001df0       ??_R3?$basic_streambuf@DU?$char_traits@D@std@@@std@@8 10036df0     libcpmt:strstrea.obj
 0002:00001e00       ??_R4?$basic_streambuf@DU?$char_traits@D@std@@@std@@6B@ 10036e00     libcpmt:strstrea.obj
 0002:00001e18       ??_R1A@?0A@A@?$basic_ios@DU?$char_traits@D@std@@@std@@8 10036e18     libcpmt:strstrea.obj
 0002:00001e30       ??_R2?$basic_ios@DU?$char_traits@D@std@@@std@@8 10036e30     libcpmt:strstrea.obj
 0002:00001e40       ??_R3?$basic_ios@DU?$char_traits@D@std@@@std@@8 10036e40     libcpmt:strstrea.obj
 0002:00001e50       ??_R4?$basic_ios@DU?$char_traits@D@std@@@std@@6B@ 10036e50     libcpmt:strstrea.obj
 0002:00001e68       ??_R1A@?0A@A@?$basic_streambuf@DU?$char_traits@D@std@@@std@@8 10036e68     libcpmt:strstrea.obj
 0002:00001e80       ??_R1A@?0A@A@strstreambuf@std@@8 10036e80     libcpmt:strstrea.obj
 0002:00001e98       ??_R2strstreambuf@std@@8   10036e98     libcpmt:strstrea.obj
 0002:00001ea8       ??_R3strstreambuf@std@@8   10036ea8     libcpmt:strstrea.obj
 0002:00001eb8       ??_R4strstreambuf@std@@6B@ 10036eb8     libcpmt:strstrea.obj
 0002:00001ed0       ??_R2?$basic_ostream@DU?$char_traits@D@std@@@std@@8 10036ed0     libcpmt:strstrea.obj
 0002:00001ee0       ??_R3?$basic_ostream@DU?$char_traits@D@std@@@std@@8 10036ee0     libcpmt:strstrea.obj
 0002:00001ef0       ??_R4?$basic_ostream@DU?$char_traits@D@std@@@std@@6B@ 10036ef0     libcpmt:strstrea.obj
 0002:00001f08       ??_R17?0A@A@?$basic_ostream@DU?$char_traits@D@std@@@std@@8 10036f08     libcpmt:strstrea.obj
 0002:00001f20       ??_R1A@?0A@A@?$basic_iostream@DU?$char_traits@D@std@@@std@@8 10036f20     libcpmt:strstrea.obj
 0002:00001f38       ??_R1A@?0A@A@strstream@std@@8 10036f38     libcpmt:strstrea.obj
 0002:00001f50       ??_R2strstream@std@@8      10036f50     libcpmt:strstrea.obj
 0002:00001f78       ??_R3strstream@std@@8      10036f78     libcpmt:strstrea.obj
 0002:00001f88       ??_R4strstream@std@@6B@    10036f88     libcpmt:strstrea.obj
 0002:00001fa0       ??_R2?$basic_iostream@DU?$char_traits@D@std@@@std@@8 10036fa0     libcpmt:strstrea.obj
 0002:00001fc0       ??_R3?$basic_iostream@DU?$char_traits@D@std@@@std@@8 10036fc0     libcpmt:strstrea.obj
 0002:00001fd0       ??_R4?$basic_iostream@DU?$char_traits@D@std@@@std@@6B@ 10036fd0     libcpmt:strstrea.obj
 0002:00001fe4       ??_R2facet@locale@std@@8   10036fe4     libcpmt:locale0.obj
 0002:00001ff0       ??_R3facet@locale@std@@8   10036ff0     libcpmt:locale0.obj
 0002:00002000       ??_R4facet@locale@std@@6B@ 10037000     libcpmt:locale0.obj
 0002:00002018       ??_R1A@?0A@A@facet@locale@std@@8 10037018     libcpmt:locale0.obj
 0002:00002030       ??_R1A@?0A@A@_Locimp@locale@std@@8 10037030     libcpmt:locale0.obj
 0002:00002048       ??_R2_Locimp@locale@std@@8 10037048     libcpmt:locale0.obj
 0002:00002058       ??_R3_Locimp@locale@std@@8 10037058     libcpmt:locale0.obj
 0002:00002068       ??_R4_Locimp@locale@std@@6B@ 10037068     libcpmt:locale0.obj
 0002:00002080       ??_R1A@?0A@A@?$numpunct@D@std@@8 10037080     libcpmt:locale.obj
 0002:00002098       ??_R2?$numpunct@D@std@@8   10037098     libcpmt:locale.obj
 0002:000020a8       ??_R3?$numpunct@D@std@@8   100370a8     libcpmt:locale.obj
 0002:000020b8       ??_R4?$numpunct@D@std@@6B@ 100370b8     libcpmt:locale.obj
 0002:000020d0       ??_R1A@?0A@A@codecvt_base@std@@8 100370d0     libcpmt:locale.obj
 0002:000020e8       ??_R1A@?0A@A@?$codecvt@DDH@std@@8 100370e8     libcpmt:locale.obj
 0002:00002100       ??_R2?$codecvt@DDH@std@@8  10037100     libcpmt:locale.obj
 0002:00002110       ??_R3?$codecvt@DDH@std@@8  10037110     libcpmt:locale.obj
 0002:00002120       ??_R4?$codecvt@DDH@std@@6B@ 10037120     libcpmt:locale.obj
 0002:00002138       ??_R1A@?0A@A@?$num_get@DV?$istreambuf_iterator@DU?$char_traits@D@std@@@std@@@std@@8 10037138     libcpmt:locale.obj
 0002:00002150       ??_R2?$num_get@DV?$istreambuf_iterator@DU?$char_traits@D@std@@@std@@@std@@8 10037150     libcpmt:locale.obj
 0002:00002160       ??_R3?$num_get@DV?$istreambuf_iterator@DU?$char_traits@D@std@@@std@@@std@@8 10037160     libcpmt:locale.obj
 0002:00002170       ??_R4?$num_get@DV?$istreambuf_iterator@DU?$char_traits@D@std@@@std@@@std@@6B@ 10037170     libcpmt:locale.obj
 0002:00002188       ??_R1A@?0A@A@?$num_put@DV?$ostreambuf_iterator@DU?$char_traits@D@std@@@std@@@std@@8 10037188     libcpmt:locale.obj
 0002:000021a0       ??_R2?$num_put@DV?$ostreambuf_iterator@DU?$char_traits@D@std@@@std@@@std@@8 100371a0     libcpmt:locale.obj
 0002:000021b0       ??_R3?$num_put@DV?$ostreambuf_iterator@DU?$char_traits@D@std@@@std@@@std@@8 100371b0     libcpmt:locale.obj
 0002:000021c0       ??_R4?$num_put@DV?$ostreambuf_iterator@DU?$char_traits@D@std@@@std@@@std@@6B@ 100371c0     libcpmt:locale.obj
 0002:000021d8       ??_R1A@?0A@A@ctype_base@std@@8 100371d8     libcpmt:locale.obj
 0002:000021f0       ??_R1A@?0A@A@?$ctype@D@std@@8 100371f0     libcpmt:locale.obj
 0002:00002208       ??_R2?$ctype@D@std@@8      10037208     libcpmt:locale.obj
 0002:00002218       ??_R3?$ctype@D@std@@8      10037218     libcpmt:locale.obj
 0002:00002228       ??_R4?$ctype@D@std@@6B@    10037228     libcpmt:locale.obj
 0002:00002240       ??_R1A@?0A@A@bad_cast@std@@8 10037240     libcpmt:locale.obj
 0002:00002258       ??_R2bad_cast@std@@8       10037258     libcpmt:locale.obj
 0002:00002268       ??_R3bad_cast@std@@8       10037268     libcpmt:locale.obj
 0002:00002278       ??_R4bad_cast@std@@6B@     10037278     libcpmt:locale.obj
 0002:00002290       ??_R1A@?0A@A@?$basic_filebuf@DU?$char_traits@D@std@@@std@@8 10037290     libcpmt:iostream.obj
 0002:000022a8       ??_R2?$basic_filebuf@DU?$char_traits@D@std@@@std@@8 100372a8     libcpmt:iostream.obj
 0002:000022b8       ??_R3?$basic_filebuf@DU?$char_traits@D@std@@@std@@8 100372b8     libcpmt:iostream.obj
 0002:000022c8       ??_R4?$basic_filebuf@DU?$char_traits@D@std@@@std@@6B@ 100372c8     libcpmt:iostream.obj
 0002:000022e0       ??_R1A@A@3BA@?$basic_ios@GU?$char_traits@G@std@@@std@@8 100372e0     libcpmt:wiostrea.obj
 0002:000022f8       ??_R1A@?0A@A@?$basic_istream@GU?$char_traits@G@std@@@std@@8 100372f8     libcpmt:wiostrea.obj
 0002:00002310       ??_R2?$basic_istream@GU?$char_traits@G@std@@@std@@8 10037310     libcpmt:wiostrea.obj
 0002:00002320       ??_R3?$basic_istream@GU?$char_traits@G@std@@@std@@8 10037320     libcpmt:wiostrea.obj
 0002:00002330       ??_R4?$basic_istream@GU?$char_traits@G@std@@@std@@6B@ 10037330     libcpmt:wiostrea.obj
 0002:00002348       ??_R1A@?0A@A@?$basic_ostream@GU?$char_traits@G@std@@@std@@8 10037348     libcpmt:wiostrea.obj
 0002:00002360       ??_R2?$basic_ostream@GU?$char_traits@G@std@@@std@@8 10037360     libcpmt:wiostrea.obj
 0002:00002370       ??_R3?$basic_ostream@GU?$char_traits@G@std@@@std@@8 10037370     libcpmt:wiostrea.obj
 0002:00002380       ??_R4?$basic_ostream@GU?$char_traits@G@std@@@std@@6B@ 10037380     libcpmt:wiostrea.obj
 0002:00002398       ??_R1A@?0A@A@?$basic_ios@GU?$char_traits@G@std@@@std@@8 10037398     libcpmt:wiostrea.obj
 0002:000023b0       ??_R2?$basic_ios@GU?$char_traits@G@std@@@std@@8 100373b0     libcpmt:wiostrea.obj
 0002:000023c0       ??_R3?$basic_ios@GU?$char_traits@G@std@@@std@@8 100373c0     libcpmt:wiostrea.obj
 0002:000023d0       ??_R4?$basic_ios@GU?$char_traits@G@std@@@std@@6B@ 100373d0     libcpmt:wiostrea.obj
 0002:000023e8       ??_R1A@?0A@A@?$basic_filebuf@GU?$char_traits@G@std@@@std@@8 100373e8     libcpmt:wiostrea.obj
 0002:00002400       ??_R2?$basic_filebuf@GU?$char_traits@G@std@@@std@@8 10037400     libcpmt:wiostrea.obj
 0002:00002410       ??_R3?$basic_filebuf@GU?$char_traits@G@std@@@std@@8 10037410     libcpmt:wiostrea.obj
 0002:00002420       ??_R4?$basic_filebuf@GU?$char_traits@G@std@@@std@@6B@ 10037420     libcpmt:wiostrea.obj
 0002:00002438       ??_R1A@?0A@A@?$basic_streambuf@GU?$char_traits@G@std@@@std@@8 10037438     libcpmt:wiostrea.obj
 0002:00002450       ??_R2?$basic_streambuf@GU?$char_traits@G@std@@@std@@8 10037450     libcpmt:wiostrea.obj
 0002:00002458       ??_R3?$basic_streambuf@GU?$char_traits@G@std@@@std@@8 10037458     libcpmt:wiostrea.obj
 0002:00002468       ??_R4?$basic_streambuf@GU?$char_traits@G@std@@@std@@6B@ 10037468     libcpmt:wiostrea.obj
 0002:00002480       ??_R1A@?0A@A@bad_alloc@std@@8 10037480     libcpmt:nomemory.obj
 0002:00002498       ??_R2bad_alloc@std@@8      10037498     libcpmt:nomemory.obj
 0002:000024a8       ??_R3bad_alloc@std@@8      100374a8     libcpmt:nomemory.obj
 0002:000024b8       ??_R4bad_alloc@std@@6B@    100374b8     libcpmt:nomemory.obj
 0002:000024d0       ??_R1A@?0A@A@?$num_put@GV?$ostreambuf_iterator@GU?$char_traits@G@std@@@std@@@std@@8 100374d0     libcpmt:wlocale.obj
 0002:000024e8       ??_R2?$num_put@GV?$ostreambuf_iterator@GU?$char_traits@G@std@@@std@@@std@@8 100374e8     libcpmt:wlocale.obj
 0002:000024f8       ??_R3?$num_put@GV?$ostreambuf_iterator@GU?$char_traits@G@std@@@std@@@std@@8 100374f8     libcpmt:wlocale.obj
 0002:00002508       ??_R4?$num_put@GV?$ostreambuf_iterator@GU?$char_traits@G@std@@@std@@@std@@6B@ 10037508     libcpmt:wlocale.obj
 0002:00002520       ??_R1A@?0A@A@?$num_get@GV?$istreambuf_iterator@GU?$char_traits@G@std@@@std@@@std@@8 10037520     libcpmt:wlocale.obj
 0002:00002538       ??_R2?$num_get@GV?$istreambuf_iterator@GU?$char_traits@G@std@@@std@@@std@@8 10037538     libcpmt:wlocale.obj
 0002:00002548       ??_R3?$num_get@GV?$istreambuf_iterator@GU?$char_traits@G@std@@@std@@@std@@8 10037548     libcpmt:wlocale.obj
 0002:00002558       ??_R4?$num_get@GV?$istreambuf_iterator@GU?$char_traits@G@std@@@std@@@std@@6B@ 10037558     libcpmt:wlocale.obj
 0002:00002570       ??_R1A@?0A@A@?$numpunct@G@std@@8 10037570     libcpmt:wlocale.obj
 0002:00002588       ??_R2?$numpunct@G@std@@8   10037588     libcpmt:wlocale.obj
 0002:00002598       ??_R3?$numpunct@G@std@@8   10037598     libcpmt:wlocale.obj
 0002:000025a8       ??_R4?$numpunct@G@std@@6B@ 100375a8     libcpmt:wlocale.obj
 0002:000025c0       ??_R1A@?0A@A@?$ctype@G@std@@8 100375c0     libcpmt:wlocale.obj
 0002:000025d8       ??_R2?$ctype@G@std@@8      100375d8     libcpmt:wlocale.obj
 0002:000025e8       ??_R3?$ctype@G@std@@8      100375e8     libcpmt:wlocale.obj
 0002:000025f8       ??_R4?$ctype@G@std@@6B@    100375f8     libcpmt:wlocale.obj
 0002:00002610       ??_R1A@?0A@A@?$time_put@GV?$ostreambuf_iterator@GU?$char_traits@G@std@@@std@@@std@@8 10037610     libcpmt:wlocale.obj
 0002:00002628       ??_R2?$time_put@GV?$ostreambuf_iterator@GU?$char_traits@G@std@@@std@@@std@@8 10037628     libcpmt:wlocale.obj
 0002:00002638       ??_R3?$time_put@GV?$ostreambuf_iterator@GU?$char_traits@G@std@@@std@@@std@@8 10037638     libcpmt:wlocale.obj
 0002:00002648       ??_R4?$time_put@GV?$ostreambuf_iterator@GU?$char_traits@G@std@@@std@@@std@@6B@ 10037648     libcpmt:wlocale.obj
 0002:00002660       ??_R1A@?0A@A@time_base@std@@8 10037660     libcpmt:wlocale.obj
 0002:00002678       ??_R1A@?0A@A@?$time_get@GV?$istreambuf_iterator@GU?$char_traits@G@std@@@std@@@std@@8 10037678     libcpmt:wlocale.obj
 0002:00002690       ??_R2?$time_get@GV?$istreambuf_iterator@GU?$char_traits@G@std@@@std@@@std@@8 10037690     libcpmt:wlocale.obj
 0002:000026a0       ??_R3?$time_get@GV?$istreambuf_iterator@GU?$char_traits@G@std@@@std@@@std@@8 100376a0     libcpmt:wlocale.obj
 0002:000026b0       ??_R4?$time_get@GV?$istreambuf_iterator@GU?$char_traits@G@std@@@std@@@std@@6B@ 100376b0     libcpmt:wlocale.obj
 0002:000026c8       ??_R1A@?0A@A@?$moneypunct@G$00@std@@8 100376c8     libcpmt:wlocale.obj
 0002:000026e0       ??_R2?$moneypunct@G$00@std@@8 100376e0     libcpmt:wlocale.obj
 0002:000026f8       ??_R3?$moneypunct@G$00@std@@8 100376f8     libcpmt:wlocale.obj
 0002:00002708       ??_R4?$moneypunct@G$00@std@@6B@ 10037708     libcpmt:wlocale.obj
 0002:00002720       ??_R1A@?0A@A@money_base@std@@8 10037720     libcpmt:wlocale.obj
 0002:00002738       ??_R1A@?0A@A@?$_Mpunct@G@std@@8 10037738     libcpmt:wlocale.obj
 0002:00002750       ??_R1A@?0A@A@?$moneypunct@G$0A@@std@@8 10037750     libcpmt:wlocale.obj
 0002:00002768       ??_R2?$moneypunct@G$0A@@std@@8 10037768     libcpmt:wlocale.obj
 0002:00002780       ??_R3?$moneypunct@G$0A@@std@@8 10037780     libcpmt:wlocale.obj
 0002:00002790       ??_R4?$moneypunct@G$0A@@std@@6B@ 10037790     libcpmt:wlocale.obj
 0002:000027a8       ??_R1A@?0A@A@?$money_put@GV?$ostreambuf_iterator@GU?$char_traits@G@std@@@std@@@std@@8 100377a8     libcpmt:wlocale.obj
 0002:000027c0       ??_R2?$money_put@GV?$ostreambuf_iterator@GU?$char_traits@G@std@@@std@@@std@@8 100377c0     libcpmt:wlocale.obj
 0002:000027d0       ??_R3?$money_put@GV?$ostreambuf_iterator@GU?$char_traits@G@std@@@std@@@std@@8 100377d0     libcpmt:wlocale.obj
 0002:000027e0       ??_R4?$money_put@GV?$ostreambuf_iterator@GU?$char_traits@G@std@@@std@@@std@@6B@ 100377e0     libcpmt:wlocale.obj
 0002:000027f8       ??_R1A@?0A@A@?$money_get@GV?$istreambuf_iterator@GU?$char_traits@G@std@@@std@@@std@@8 100377f8     libcpmt:wlocale.obj
 0002:00002810       ??_R2?$money_get@GV?$istreambuf_iterator@GU?$char_traits@G@std@@@std@@@std@@8 10037810     libcpmt:wlocale.obj
 0002:00002820       ??_R3?$money_get@GV?$istreambuf_iterator@GU?$char_traits@G@std@@@std@@@std@@8 10037820     libcpmt:wlocale.obj
 0002:00002830       ??_R4?$money_get@GV?$istreambuf_iterator@GU?$char_traits@G@std@@@std@@@std@@6B@ 10037830     libcpmt:wlocale.obj
 0002:00002848       ??_R1A@?0A@A@messages_base@std@@8 10037848     libcpmt:wlocale.obj
 0002:00002860       ??_R1A@?0A@A@?$messages@G@std@@8 10037860     libcpmt:wlocale.obj
 0002:00002878       ??_R2?$messages@G@std@@8   10037878     libcpmt:wlocale.obj
 0002:00002888       ??_R3?$messages@G@std@@8   10037888     libcpmt:wlocale.obj
 0002:00002898       ??_R4?$messages@G@std@@6B@ 10037898     libcpmt:wlocale.obj
 0002:000028b0       ??_R1A@?0A@A@?$collate@G@std@@8 100378b0     libcpmt:wlocale.obj
 0002:000028c8       ??_R2?$collate@G@std@@8    100378c8     libcpmt:wlocale.obj
 0002:000028d8       ??_R3?$collate@G@std@@8    100378d8     libcpmt:wlocale.obj
 0002:000028e8       ??_R4?$collate@G@std@@6B@  100378e8     libcpmt:wlocale.obj
 0002:00002900       ??_R1A@?0A@A@?$codecvt@GDH@std@@8 10037900     libcpmt:wlocale.obj
 0002:00002918       ??_R2?$codecvt@GDH@std@@8  10037918     libcpmt:wlocale.obj
 0002:00002928       ??_R3?$codecvt@GDH@std@@8  10037928     libcpmt:wlocale.obj
 0002:00002938       ??_R4?$codecvt@GDH@std@@6B@ 10037938     libcpmt:wlocale.obj
 0002:00002950       ??_R2?$_Mpunct@G@std@@8    10037950     libcpmt:wlocale.obj
 0002:00002960       ??_R3?$_Mpunct@G@std@@8    10037960     libcpmt:wlocale.obj
 0002:00002970       ??_R4?$_Mpunct@G@std@@6B@  10037970     libcpmt:wlocale.obj
 0002:00002988       ??_R1A@?0A@A@?$time_put@DV?$ostreambuf_iterator@DU?$char_traits@D@std@@@std@@@std@@8 10037988     libcpmt:xlocale.obj
 0002:000029a0       ??_R2?$time_put@DV?$ostreambuf_iterator@DU?$char_traits@D@std@@@std@@@std@@8 100379a0     libcpmt:xlocale.obj
 0002:000029b0       ??_R3?$time_put@DV?$ostreambuf_iterator@DU?$char_traits@D@std@@@std@@@std@@8 100379b0     libcpmt:xlocale.obj
 0002:000029c0       ??_R4?$time_put@DV?$ostreambuf_iterator@DU?$char_traits@D@std@@@std@@@std@@6B@ 100379c0     libcpmt:xlocale.obj
 0002:000029d8       ??_R1A@?0A@A@?$time_get@DV?$istreambuf_iterator@DU?$char_traits@D@std@@@std@@@std@@8 100379d8     libcpmt:xlocale.obj
 0002:000029f0       ??_R2?$time_get@DV?$istreambuf_iterator@DU?$char_traits@D@std@@@std@@@std@@8 100379f0     libcpmt:xlocale.obj
 0002:00002a00       ??_R3?$time_get@DV?$istreambuf_iterator@DU?$char_traits@D@std@@@std@@@std@@8 10037a00     libcpmt:xlocale.obj
 0002:00002a10       ??_R4?$time_get@DV?$istreambuf_iterator@DU?$char_traits@D@std@@@std@@@std@@6B@ 10037a10     libcpmt:xlocale.obj
 0002:00002a28       ??_R1A@?0A@A@?$moneypunct@D$00@std@@8 10037a28     libcpmt:xlocale.obj
 0002:00002a40       ??_R2?$moneypunct@D$00@std@@8 10037a40     libcpmt:xlocale.obj
 0002:00002a58       ??_R3?$moneypunct@D$00@std@@8 10037a58     libcpmt:xlocale.obj
 0002:00002a68       ??_R4?$moneypunct@D$00@std@@6B@ 10037a68     libcpmt:xlocale.obj
 0002:00002a80       ??_R1A@?0A@A@?$_Mpunct@D@std@@8 10037a80     libcpmt:xlocale.obj
 0002:00002a98       ??_R1A@?0A@A@?$moneypunct@D$0A@@std@@8 10037a98     libcpmt:xlocale.obj
 0002:00002ab0       ??_R2?$moneypunct@D$0A@@std@@8 10037ab0     libcpmt:xlocale.obj
 0002:00002ac8       ??_R3?$moneypunct@D$0A@@std@@8 10037ac8     libcpmt:xlocale.obj
 0002:00002ad8       ??_R4?$moneypunct@D$0A@@std@@6B@ 10037ad8     libcpmt:xlocale.obj
 0002:00002af0       ??_R1A@?0A@A@?$money_put@DV?$ostreambuf_iterator@DU?$char_traits@D@std@@@std@@@std@@8 10037af0     libcpmt:xlocale.obj
 0002:00002b08       ??_R2?$money_put@DV?$ostreambuf_iterator@DU?$char_traits@D@std@@@std@@@std@@8 10037b08     libcpmt:xlocale.obj
 0002:00002b18       ??_R3?$money_put@DV?$ostreambuf_iterator@DU?$char_traits@D@std@@@std@@@std@@8 10037b18     libcpmt:xlocale.obj
 0002:00002b28       ??_R4?$money_put@DV?$ostreambuf_iterator@DU?$char_traits@D@std@@@std@@@std@@6B@ 10037b28     libcpmt:xlocale.obj
 0002:00002b40       ??_R1A@?0A@A@?$money_get@DV?$istreambuf_iterator@DU?$char_traits@D@std@@@std@@@std@@8 10037b40     libcpmt:xlocale.obj
 0002:00002b58       ??_R2?$money_get@DV?$istreambuf_iterator@DU?$char_traits@D@std@@@std@@@std@@8 10037b58     libcpmt:xlocale.obj
 0002:00002b68       ??_R3?$money_get@DV?$istreambuf_iterator@DU?$char_traits@D@std@@@std@@@std@@8 10037b68     libcpmt:xlocale.obj
 0002:00002b78       ??_R4?$money_get@DV?$istreambuf_iterator@DU?$char_traits@D@std@@@std@@@std@@6B@ 10037b78     libcpmt:xlocale.obj
 0002:00002b90       ??_R1A@?0A@A@?$messages@D@std@@8 10037b90     libcpmt:xlocale.obj
 0002:00002ba8       ??_R2?$messages@D@std@@8   10037ba8     libcpmt:xlocale.obj
 0002:00002bb8       ??_R3?$messages@D@std@@8   10037bb8     libcpmt:xlocale.obj
 0002:00002bc8       ??_R4?$messages@D@std@@6B@ 10037bc8     libcpmt:xlocale.obj
 0002:00002be0       ??_R1A@?0A@A@?$collate@D@std@@8 10037be0     libcpmt:xlocale.obj
 0002:00002bf8       ??_R2?$collate@D@std@@8    10037bf8     libcpmt:xlocale.obj
 0002:00002c08       ??_R3?$collate@D@std@@8    10037c08     libcpmt:xlocale.obj
 0002:00002c18       ??_R4?$collate@D@std@@6B@  10037c18     libcpmt:xlocale.obj
 0002:00002c30       ??_R2?$_Mpunct@D@std@@8    10037c30     libcpmt:xlocale.obj
 0002:00002c40       ??_R3?$_Mpunct@D@std@@8    10037c40     libcpmt:xlocale.obj
 0002:00002c50       ??_R4?$_Mpunct@D@std@@6B@  10037c50     libcpmt:xlocale.obj
 0002:00002cf0       __CT??_R0?AVCException@Win32@OnlineGameLib@@@8??0CException@Win32@OnlineGameLib@@QAE@ABV012@@Z36 10037cf0     ServerStage.obj
 0002:00002d10       __CT??_R0?AVCWin32Exception@Win32@OnlineGameLib@@@8??0CWin32Exception@Win32@OnlineGameLib@@QAE@ABV012@@Z40 10037d10     ServerStage.obj
 0002:00002d30       __CTA2?AVCWin32Exception@Win32@OnlineGameLib@@ 10037d30     ServerStage.obj
 0002:00002d40       __TI2?AVCWin32Exception@Win32@OnlineGameLib@@ 10037d40     ServerStage.obj
 0002:00003b40       __CT??_R0?AVexception@@@8??0exception@@QAE@ABV0@@Z12 10038b40     ServerStage.obj
 0002:00003b60       __CT??_R0?AVbad_cast@std@@@8??0bad_cast@std@@QAE@ABV01@@Z12 10038b60     ServerStage.obj
 0002:00003b80       __CTA2?AVbad_cast@std@@    10038b80     ServerStage.obj
 0002:00003b90       __TI2?AVbad_cast@std@@     10038b90     ServerStage.obj
 0002:000040c0       __CTA1?AVCException@Win32@OnlineGameLib@@ 100390c0     common:SocketServer.obj
 0002:000040c8       __TI1?AVCException@Win32@OnlineGameLib@@ 100390c8     common:SocketServer.obj
 0002:00004fa8       __CT??_R0?AVException@CSocket@Win32@OnlineGameLib@@@8??0Exception@CSocket@Win32@OnlineGameLib@@QAE@ABV0123@@Z40 10039fa8     common:Socket.obj
 0002:00004fc8       __CTA3?AVException@CSocket@Win32@OnlineGameLib@@ 10039fc8     common:Socket.obj
 0002:00004fd8       __TI3?AVException@CSocket@Win32@OnlineGameLib@@ 10039fd8     common:Socket.obj
 0002:000051d0       __CT??_R0?AVlogic_error@std@@@8??0logic_error@std@@QAE@ABV01@@Z28 1003a1d0     libcpmt:string.obj
 0002:000051f0       __CT??_R0?AVlength_error@std@@@8??0length_error@std@@QAE@ABV01@@Z28 1003a1f0     libcpmt:string.obj
 0002:00005210       __CTA3?AVlength_error@std@@ 1003a210     libcpmt:string.obj
 0002:00005220       __TI3?AVlength_error@std@@ 1003a220     libcpmt:string.obj
 0002:00005280       __CTA2?AVlogic_error@std@@ 1003a280     libcpmt:string.obj
 0002:00005290       __TI2?AVlogic_error@std@@  1003a290     libcpmt:string.obj
 0002:00005318       __CT??_R0?AVout_of_range@std@@@8??0out_of_range@std@@QAE@ABV01@@Z28 1003a318     libcpmt:string.obj
 0002:00005338       __CTA3?AVout_of_range@std@@ 1003a338     libcpmt:string.obj
 0002:00005348       __TI3?AVout_of_range@std@@ 1003a348     libcpmt:string.obj
 0002:000053a8       __CT??_R0?AVruntime_error@std@@@8??0runtime_error@std@@QAE@ABV01@@Z28 1003a3a8     libcpmt:ios.obj
 0002:000053c8       __CT??_R0?AVfailure@ios_base@std@@@8??0failure@ios_base@std@@QAE@ABV012@@Z28 1003a3c8     libcpmt:ios.obj
 0002:000053e8       __CTA3?AVfailure@ios_base@std@@ 1003a3e8     libcpmt:ios.obj
 0002:000053f8       __TI3?AVfailure@ios_base@std@@ 1003a3f8     libcpmt:ios.obj
 0002:00005458       __CTA2?AVruntime_error@std@@ 1003a458     libcpmt:ios.obj
 0002:00005468       __TI2?AVruntime_error@std@@ 1003a468     libcpmt:ios.obj
 0002:000060c8       __CT??_R0?AVbad_alloc@std@@@8??0bad_alloc@std@@QAE@ABV01@@Z12 1003b0c8     libcpmt:nomemory.obj
 0002:000060e8       __CTA2?AVbad_alloc@std@@   1003b0e8     libcpmt:nomemory.obj
 0002:000060f8       __TI2?AVbad_alloc@std@@    1003b0f8     libcpmt:nomemory.obj
 0002:00007620       __IMPORT_DESCRIPTOR_KERNEL32 1003c620     kernel32:KERNEL32.dll
 0002:00007634       __IMPORT_DESCRIPTOR_WS2_32 1003c634     ws2_32:WS2_32.dll
 0002:00007648       __IMPORT_DESCRIPTOR_VERSION 1003c648     Version:VERSION.dll
 0002:0000765c       __IMPORT_DESCRIPTOR_USER32 1003c65c     user32:USER32.dll
 0002:00007670       __IMPORT_DESCRIPTOR_ADVAPI32 1003c670     advapi32:ADVAPI32.dll
 0002:00007684       __NULL_IMPORT_DESCRIPTOR   1003c684     kernel32:KERNEL32.dll
 0003:00000000       ___xc_a                    1003e000     LIBCMT:crt0init.obj
 0003:000000b8       ___xc_z                    1003e0b8     LIBCMT:crt0init.obj
 0003:000000bc       ___xi_a                    1003e0bc     LIBCMT:crt0init.obj
 0003:000000d0       ___xi_z                    1003e0d0     LIBCMT:crt0init.obj
 0003:000000d4       ___xp_a                    1003e0d4     LIBCMT:crt0init.obj
 0003:000000dc       ___xp_z                    1003e0dc     LIBCMT:crt0init.obj
 0003:000000e0       ___xt_a                    1003e0e0     LIBCMT:crt0init.obj
 0003:000000e8       ___xt_z                    1003e0e8     LIBCMT:crt0init.obj
 0003:000000f8       ?GUID_ATLVer30@ATL@@3U_GUID@@A 1003e0f8     ServerStage.obj
 0003:00000108       ??_R0?AVCException@Win32@OnlineGameLib@@@8 1003e108     ServerStage.obj
 0003:00000138       ??_R0?AVCWin32Exception@Win32@OnlineGameLib@@@8 1003e138     ServerStage.obj
 0003:0000016c       ??_C@_0CM@JPMH@CIOCPServer?3?3CIOCPServer?$CI?$CJ?5?9?5_be@ 1003e16c     ServerStage.obj
 0003:00000198       ??_C@_0CM@DIEL@CIOCPServer?3?3Startup?5?9?5Unexpecte@ 1003e198     ServerStage.obj
 0003:000001c4       ??_C@_03DMDD@?5?9?5?$AA@   1003e1c4     ServerStage.obj
 0003:000001c8       ??_C@_0CB@GGNC@CIOCPServer?3?3Startup?5Exception?3?5@ 1003e1c8     ServerStage.obj
 0003:000001ec       ??_C@_0CM@OOGM@CIOCPServer?3?3Cleanup?5?9?5Unexpecte@ 1003e1ec     ServerStage.obj
 0003:00000218       ??_C@_0CB@GDMD@CIOCPServer?3?3Cleanup?5Exception?3?5@ 1003e218     ServerStage.obj
 0003:0000023c       ??_C@_0DA@PGBG@CIOCPServer?3?3OpenService?5?9?5Unexp@ 1003e23c     ServerStage.obj
 0003:0000026c       ??_C@_0CF@CALA@CIOCPServer?3?3OpenService?5Excepti@ 1003e26c     ServerStage.obj
 0003:00000294       ??_C@_0DB@GCK@CIOCPServer?3?3CloseService?5?9?5Unex@ 1003e294     ServerStage.obj
 0003:000002c8       ??_C@_0CG@MHED@CIOCPServer?3?3CloseService?5Except@ 1003e2c8     ServerStage.obj
 0003:000002f0       ??_C@_0DF@NJHN@CIOCPServer?3?3PackDataToClient?5?9?5@ 1003e2f0     ServerStage.obj
 0003:00000328       ??_C@_0CK@JBE@CIOCPServer?3?3PackDataToClient?5Ex@ 1003e328     ServerStage.obj
 0003:00000354       ??_C@_0DF@NKMC@CIOCPServer?3?3SendPackToClient?5?9?5@ 1003e354     ServerStage.obj
 0003:0000038c       ??_C@_0CK@LLIC@CIOCPServer?3?3SendPackToClient?5Ex@ 1003e38c     ServerStage.obj
 0003:000003b8       ??_C@_0DA@DOIL@CIOCPServer?3?3_SendDataEx?5?9?5Unexp@ 1003e3b8     ServerStage.obj
 0003:000003e8       ??_C@_0CF@BIAB@CIOCPServer?3?3_SendDataEx?5Excepti@ 1003e3e8     ServerStage.obj
 0003:00000410       ??_C@_0CF@EEOI@ReadCompleted?5?9?5Unexpected?5excep@ 1003e410     ServerStage.obj
 0003:00000438       ??_C@_0BN@LAKI@ReadCompleted?5?9?5Exception?5?9?5?$AA@ 1003e438     ServerStage.obj
 0003:00000458       ??_C@_0BM@IICH@Got?5message?5plus?5extra?5data?$AA@ 1003e458     ServerStage.obj
 0003:00000474       ??_C@_0CP@CHDL@Got?5a?5complete?5message?5and?5begin@ 1003e474     ServerStage.obj
 0003:000004a4       ??_C@_0DC@PLFL@Too?5much?5data?$CB?5found?5error?5and?5c@ 1003e4a4     ServerStage.obj
 0003:000004d8       ??_C@_0BG@IBNA@?$FN?5?9?5Current?5total?5is?5?$AA@ 1003e4d8     ServerStage.obj
 0003:000004f0       ??_C@_0BD@DLDN@?5Add?5a?5client?5?$FLID?3?$AA@ 1003e4f0     ServerStage.obj
 0003:00000504       ??_C@_0BD@CLFL@?5Del?5a?5client?5?$FLID?3?$AA@ 1003e504     ServerStage.obj
 0003:00000518       ??_R0?AVexception@@@8      1003e518     ServerStage.obj
 0003:00000530       ??_R0?AVbad_cast@std@@@8   1003e530     ServerStage.obj
 0003:0000054c       ??_C@_0BF@MMAA@missing?5locale?5facet?$AA@ 1003e54c     ServerStage.obj
 0003:00000564       ??_C@_01FKHJ@C?$AA@        1003e564     ServerStage.obj
 0003:00000568       ??_C@_02MHAC@?$CFp?$AA@    1003e568     ServerStage.obj
 0003:0000056c       ??_C@_01PHOL@e?$AA@        1003e56c     ServerStage.obj
 0003:00000570       ??_C@_01KFAL@E?$AA@        1003e570     ServerStage.obj
 0003:00000574       ??_C@_01KMAE@?0?$AA@       1003e574     ServerStage.obj
 0003:00000578       ??_C@_04NCCD@true?$AA@     1003e578     ServerStage.obj
 0003:00000580       ??_C@_05NAGO@false?$AA@    1003e580     ServerStage.obj
 0003:00000588       ??_C@_0DB@KBDO@CSocketServer?3?3ReleaseSockets?$CI?$CJ?5@ 1003e588     common:SocketServer.obj
 0003:000005bc       ??_C@_0DL@DJAD@CSocketServer?3?3StopAcceptingConn@ 1003e5bc     common:SocketServer.obj
 0003:000005f8       ??_C@_0CB@JPLF@CSocket?3?3CreateListeningSocket?$CI?$CJ@ 1003e5f8     common:SocketServer.obj
 0003:0000061c       ??_C@_0CM@JBGK@CSocketServer?3?3Run?$CI?$CJ?5?9?5Unexpecte@ 1003e61c     common:SocketServer.obj
 0003:00000648       ??_C@_0CD@CLLE@CSocketServer?3?3Run?$CI?$CJ?5?9?5Exception@ 1003e648     common:SocketServer.obj
 0003:0000066c       ??_C@_0DA@GMJH@CSocketServer?3?3Run?$CI?$CJ?5?9?5WaitForMu@ 1003e66c     common:SocketServer.obj
 0003:0000069c       ??_C@_0CC@JDEK@CSocketServer?3?3Run?$CI?$CJ?5?9?5WSAAccept@ 1003e69c     common:SocketServer.obj
 0003:000006c0       ??_C@_0BP@EDHN@CSocketServer?3?3ReleaseSocket?$CI?$CJ?$AA@ 1003e6c0     common:SocketServer.obj
 0003:000006e0       ??_C@_0BA@LAMH@pSocket?5is?5null?$AA@ 1003e6e0     common:SocketServer.obj
 0003:000006f0       ??_C@_0FK@FBEH@CSocketServer?3?3WorkerThread?3?3Wri@ 1003e6f0     common:SocketServer.obj
 0003:0000074c       ??_C@_0CA@BINH@CSocketServer?3?3Socket?3?3Socket?$CI?$CJ?$AA@ 1003e74c     common:SocketServer.obj
 0003:0000076c       ??_C@_0P@NMKD@Invalid?5socket?$AA@ 1003e76c     common:SocketServer.obj
 0003:0000077c       ??_C@_0CA@DBEB@CSocketServer?3?3Socket?3?3Attach?$CI?$CJ?$AA@ 1003e77c     common:SocketServer.obj
 0003:0000079c       ??_C@_0BI@IPIL@Socket?5already?5attached?$AA@ 1003e79c     common:SocketServer.obj
 0003:000007b4       ??_C@_0CF@JDJL@CSocketServer?3?3Server?3?3Shutdown?$CI@ 1003e7b4     common:SocketServer.obj
 0003:000007dc       ??_C@_0EE@ELOB@CSocketServer?3?3Socket?3?3AbortiveC@ 1003e7dc     common:SocketServer.obj
 0003:00000820       ??_C@_0DI@EBFL@CSocketServer?3?3Socket?3?3InternalC@ 1003e820     common:SocketServer.obj
 0003:00000858       ??_C@_0BO@OEHG@CSocketServer?3?3Socket?3?3Read?$CI?$CJ?$AA@ 1003e858     common:SocketServer.obj
 0003:00000878       ??_C@_0BB@HMKN@Socket?5is?5closed?$AA@ 1003e878     common:SocketServer.obj
 0003:0000088c       ??_C@_0BD@IICC@Socket?5is?5shutdown?$AA@ 1003e88c     common:SocketServer.obj
 0003:000008a0       ??_C@_0BP@NHHI@CSocketServer?3?3Socket?3?3Write?$CI?$CJ?$AA@ 1003e8a0     common:SocketServer.obj
 0003:000008c0       ??_C@_0DK@NDKE@CSocketServer?3?3WorkerThread?3?3Run@ 1003e8c0     common:SocketServer.obj
 0003:000008fc       ??_C@_0DB@NOIA@CSocketServer?3?3WorkerThread?3?3Run@ 1003e8fc     common:SocketServer.obj
 0003:00000930       ??_C@_0DL@EADC@CIOCompletionPort?3?3GetStatus?$CI?$CJ?5?9@ 1003e930     common:SocketServer.obj
 0003:0000096c       ??_C@_0DP@PPPI@CSocketServer?3?3WorkerThread?3?3Run@ 1003e96c     common:SocketServer.obj
 0003:000009ac       ??_C@_0DK@PDGO@CSocketServer?3?3WorkerThread?3?3Run@ 1003e9ac     common:SocketServer.obj
 0003:000009e8       ??_C@_0BB@ONCG@CEvent?3?3Create?$CI?$CJ?$AA@ 1003e9e8     common:Event.obj
 0003:000009fc       ??_C@_0P@HMDE@CEvent?3?3Wait?$CI?$CJ?$AA@ 1003e9fc     common:Event.obj
 0003:00000a0c       ??_C@_0CE@BDGB@Unexpected?5timeout?5on?5infinite?5w@ 1003ea0c     common:Event.obj
 0003:00000a30       ??_C@_0CF@DJMK@CEvent?3?3Wait?$CI?$CJ?5?9?5WaitForSingleOb@ 1003ea30     common:Event.obj
 0003:00000a58       ??_C@_0BA@DCDD@CEvent?3?3Reset?$CI?$CJ?$AA@ 1003ea58     common:Event.obj
 0003:00000a68       ??_C@_0O@MACK@CEvent?3?3Set?$CI?$CJ?$AA@ 1003ea68     common:Event.obj
 0003:00000a78       ??_C@_0BA@KPCO@CEvent?3?3Pulse?$CI?$CJ?$AA@ 1003ea78     common:Event.obj
 0003:00000a88       ??_C@_0BD@JGMG@CIOBuffer?3?3AddData?$AA@ 1003ea88     common:IOBuffer.obj
 0003:00000a9c       ??_C@_0BL@HPMM@Not?5enough?5space?5in?5buffer?$AA@ 1003ea9c     common:IOBuffer.obj
 0003:00000ab8       ??_C@_0BF@ICIL@CIOBuffer?3?3Release?$CI?$CJ?$AA@ 1003eab8     common:IOBuffer.obj
 0003:00000ad0       ??_C@_0BG@EBOE@m_ref?5is?5already?5zero?$AA@ 1003ead0     common:IOBuffer.obj
 0003:00000ae8       ??_C@_0CB@DJLG@CIOBuffer?3?3Allocator?3?3Allocate?$CI?$CJ@ 1003eae8     common:IOBuffer.obj
 0003:00000b0c       ??_C@_0O@MNOP@Out?5of?5memory?$AA@ 1003eb0c     common:IOBuffer.obj
 0003:00000b1c       ??_C@_0CA@EBKB@CIOBuffer?3?3Allocator?3?3Release?$CI?$CJ?$AA@ 1003eb1c     common:IOBuffer.obj
 0003:00000b3c       ??_C@_0BA@GJNE@pBuffer?5is?5null?$AA@ 1003eb3c     common:IOBuffer.obj
 0003:00000b50       ??_C@_0M@EHLI@?2common?4log?$AA@ 1003eb50     common:Utils.obj
 0003:00000b5c       ??_C@_04BOIP@Info?$AA@     1003eb5c     common:Utils.obj
 0003:00000b64       ??_C@_0M@EGHG@?$CFu?4?$CFu?4?$CFu?4?$CFu?$AA@ 1003eb64     common:Utils.obj
 0003:00000b70       ??_C@_0BG@EJMD@GetCurrentDirectory?$CI?$CJ?$AA@ 1003eb70     common:Utils.obj
 0003:00000b88       ??_C@_0CA@OFN@Failed?5to?5get?5current?5directory?$AA@ 1003eb88     common:Utils.obj
 0003:00000ba8       ??_C@_0N@PPGC@?$CF02d?$CF02d?$CF02d?$AA@ 1003eba8     common:Utils.obj
 0003:00000bb8       ??_C@_0P@INAO@?$CF02d?3?$CF02d?3?$CF02d?$AA@ 1003ebb8     common:Utils.obj
 0003:00000bc8       ??_C@_04LDEB@?$CF02X?$AA@  1003ebc8     common:Utils.obj
 0003:00000bd0       ??_C@_01BJG@?6?$AA@        1003ebd0     common:Utils.obj
 0003:00000bd4       ??_C@_03MFGH@?5?5?5?$AA@   1003ebd4     common:Utils.obj
 0003:00000bd8       ??_C@_01FCOA@?5?$AA@       1003ebd8     common:Utils.obj
 0003:00000bdc       ??_C@_0M@GPOH@UNAVAILABLE?$AA@ 1003ebdc     common:Utils.obj
 0003:00000be8       ??_C@_0CF@HLGK@?2StringFileInfo?2?$CF04x?$CF04x?2FileVer@ 1003ebe8     common:Utils.obj
 0003:00000c10       ??_C@_0BJ@KCFH@?2VarFileInfo?2Translation?$AA@ 1003ec10     common:Utils.obj
 0003:00000c2c       ??_C@_0BB@BKPP@CThread?3?3Start?$CI?$CJ?$AA@ 1003ec2c     common:Thread.obj
 0003:00000c40       ??_C@_0DJ@LIGE@Thread?5already?5running?5?9?5you?5can@ 1003ec40     common:Thread.obj
 0003:00000c7c       ??_C@_0CC@FANH@CThread?3?3Start?$CI?$CJ?5?9?5_beginthreade@ 1003ec7c     common:Thread.obj
 0003:00000ca0       ??_C@_0BA@HBN@CThread?3?3Wait?$CI?$CJ?$AA@ 1003eca0     common:Thread.obj
 0003:00000cb0       ??_C@_0CG@KFA@CThread?3?3Wait?$CI?$CJ?5?9?5WaitForSingleO@ 1003ecb0     common:Thread.obj
 0003:00000cd8       ??_C@_03DHMP@?5?3?5?$AA@   1003ecd8     common:SocketAddress.obj
 0003:00000cdc       ??_C@_0CK@OAFL@We?5only?5handle?5AF_INET?5address?5a@ 1003ecdc     common:SocketAddress.obj
 0003:00000d08       ??_C@_0EA@JGEN@CIOCompletionPort?3?3CIOCompletion@ 1003ed08     common:IOCompletionPort.obj
 0003:00000d48       ??_C@_0DO@IDND@CIOCompletionPort?3?3AssociateDevi@ 1003ed48     common:IOCompletionPort.obj
 0003:00000d88       ??_C@_0DN@NGAL@CIOCompletionPort?3?3PostStatus?$CI?$CJ?5@ 1003ed88     common:IOCompletionPort.obj
 0003:00000dc8       ??_C@_0BN@CJDO@CUsesWinsock?3?3CUsesWinsock?$CI?$CJ?$AA@ 1003edc8     common:UsesWinsock.obj
 0003:00000de8       ??_R0?AVException@CSocket@Win32@OnlineGameLib@@@8 1003ede8     common:Socket.obj
 0003:00000e1c       ??_C@_0BD@MNEF@CSocket?3?3CSocket?$CI?$CJ?$AA@ 1003ee1c     common:Socket.obj
 0003:00000e30       ??_C@_0BB@KNCJ@CSocket?3?3Close?$CI?$CJ?$AA@ 1003ee30     common:Socket.obj
 0003:00000e44       ??_C@_0BJ@LAPF@CSocket?3?3AbortiveClose?$CI?$CJ?$AA@ 1003ee44     common:Socket.obj
 0003:00000e60       ??_C@_0BF@GBAI@?5CSocket?3?3Shutdown?$CI?$CJ?$AA@ 1003ee60     common:Socket.obj
 0003:00000e78       ??_C@_0BC@PEBC@CSocket?3?3Listen?$CI?$CJ?$AA@ 1003ee78     common:Socket.obj
 0003:00000e8c       ??_C@_0BA@BAOB@CSocket?3?3Bind?$CI?$CJ?$AA@ 1003ee8c     common:Socket.obj
 0003:00000e9c       ??_C@_0BD@HFBN@CSocket?3?3Connect?$CI?$CJ?$AA@ 1003ee9c     common:Socket.obj
 0003:00000eb0       __NLG_Destination          1003eeb0     LIBCMT:exsup.obj
 0003:00000ec0       ??_R0?AVtype_info@@@8      1003eec0     LIBCMT:typinfo.obj
 0003:00000ed8       ?__pMyUnhandledExceptionFilter@@3PAXA 1003eed8     LIBCMT:throw.obj
 0003:00000ee0       __fltused                  1003eee0     LIBCMT:fpinit.obj
 0003:00000ee4       __ldused                   1003eee4     LIBCMT:fpinit.obj
 0003:00000ee8       __FPinit                   1003eee8     LIBCMT:fpinit.obj
 0003:00000eec       __FPmtinit                 1003eeec     LIBCMT:fpinit.obj
 0003:00000ef0       __FPmtterm                 1003eef0     LIBCMT:fpinit.obj
 0003:00000f00       ___lconv_static_decimal    1003ef00     LIBCMT:lconv.obj
 0003:00000f08       ___lconv_c                 1003ef08     LIBCMT:lconv.obj
 0003:00000f38       ___lconv                   1003ef38     LIBCMT:lconv.obj
 0003:00000f40       __aexit_rtn                1003ef40     LIBCMT:dllcrt0.obj
 0003:00000f50       ___tlsindex                1003ef50     LIBCMT:tidtable.obj
 0003:00000f54       ?__pInconsistency@@3P6AXXZA 1003ef54     LIBCMT:hooks.obj
 0003:00000f58       __locktable                1003ef58     LIBCMT:mlock.obj
 0003:00001188       __XcptActTab               1003f188     LIBCMT:winxfltr.obj
 0003:00001200       __First_FPE_Indx           1003f200     LIBCMT:winxfltr.obj
 0003:00001204       __Num_FPE                  1003f204     LIBCMT:winxfltr.obj
 0003:00001208       __XcptActTabSize           1003f208     LIBCMT:winxfltr.obj
 0003:0000120c       __XcptActTabCount          1003f20c     LIBCMT:winxfltr.obj
 0003:00001210       ___nullstring              1003f210     LIBCMT:output.obj
 0003:00001214       ___wnullstring             1003f214     LIBCMT:output.obj
 0003:00001218       __cfltcvt_tab              1003f218     LIBCMT:cmiscdat.obj
 0003:00001230       ___badioinfo               1003f230     LIBCMT:ioinit.obj
 0003:00001254       __amblksiz                 1003f254     LIBCMT:heapinit.obj
 0003:000012e8       __iob                      1003f2e8     LIBCMT:_file.obj
 0003:00001678       ___lc_category             1003f678     LIBCMT:setlocal.obj
 0003:000016c0       __pctype                   1003f6c0     LIBCMT:ctype.obj
 0003:000016c4       __pwctype                  1003f6c4     LIBCMT:ctype.obj
 0003:000016c8       __ctype                    1003f6c8     LIBCMT:ctype.obj
 0003:000018cc       ___mb_cur_max              1003f8cc     LIBCMT:nlsdata1.obj
 0003:000018d0       ___decimal_point           1003f8d0     LIBCMT:nlsdata1.obj
 0003:000018d4       ___decimal_point_length    1003f8d4     LIBCMT:nlsdata1.obj
 0003:000018e0       ___sbh_threshold           1003f8e0     LIBCMT:sbheap.obj
 0003:000018e4       __timezone                 1003f8e4     LIBCMT:timeset.obj
 0003:000018e8       __daylight                 1003f8e8     LIBCMT:timeset.obj
 0003:000018ec       __dstbias                  1003f8ec     LIBCMT:timeset.obj
 0003:00001970       __tzname                   1003f970     LIBCMT:timeset.obj
 0003:00001994       __lpdays                   1003f994     LIBCMT:days.obj
 0003:000019c8       __days                     1003f9c8     LIBCMT:days.obj
 0003:00001b30       ___rgLocInfo               1003fb30     LIBCMT:getqloc.obj
 0003:00001fd4       ___rglangidNotDefault      1003ffd4     LIBCMT:getqloc.obj
 0003:00001fe8       ___rg_country              1003ffe8     LIBCMT:getqloc.obj
 0003:000020a0       ___rg_language             100400a0     LIBCMT:getqloc.obj
 0003:000022b0       ___lc_time_curr            100402b0     LIBCMT:strftime.obj
 0003:000022b8       ___lc_time_c               100402b8     LIBCMT:strftime.obj
 0003:00002370       __pow10pos                 10040370     LIBCMT:constpow.obj
 0003:000024d0       __pow10neg                 100404d0     LIBCMT:constpow.obj
 0003:00002630       ??_R0?AVlogic_error@std@@@8 10040630     libcpmt:string.obj
 0003:00002650       ??_R0?AVlength_error@std@@@8 10040650     libcpmt:string.obj
 0003:00002670       ??_R0?AVout_of_range@std@@@8 10040670     libcpmt:string.obj
 0003:00002690       ?_Sync@ios_base@std@@0_NA  10040690     libcpmt:ios.obj
 0003:00002698       ??_R0?AVruntime_error@std@@@8 10040698     libcpmt:ios.obj
 0003:000026b8       ??_R0?AVfailure@ios_base@std@@@8 100406b8     libcpmt:ios.obj
 0003:000026e0       ??_R0?AVios_base@std@@@8   100406e0     libcpmt:ios.obj
 0003:00002700       ??_R0?AV?$basic_ios@DU?$char_traits@D@std@@@std@@@8 10040700     libcpmt:strstrea.obj
 0003:00002738       ??_R0?AV?$basic_istream@DU?$char_traits@D@std@@@std@@@8 10040738     libcpmt:strstrea.obj
 0003:00002778       ??_R0?AVistrstream@std@@@8 10040778     libcpmt:strstrea.obj
 0003:00002798       ??_R0?AV?$basic_ostream@DU?$char_traits@D@std@@@std@@@8 10040798     libcpmt:strstrea.obj
 0003:000027d8       ??_R0?AVostrstream@std@@@8 100407d8     libcpmt:strstrea.obj
 0003:000027f8       ??_R0?AV?$basic_streambuf@DU?$char_traits@D@std@@@std@@@8 100407f8     libcpmt:strstrea.obj
 0003:00002838       ??_R0?AVstrstreambuf@std@@@8 10040838     libcpmt:strstrea.obj
 0003:00002858       ??_R0?AV?$basic_iostream@DU?$char_traits@D@std@@@std@@@8 10040858     libcpmt:strstrea.obj
 0003:00002898       ??_R0?AVstrstream@std@@@8  10040898     libcpmt:strstrea.obj
 0003:000028b8       ??_R0?AVfacet@locale@std@@@8 100408b8     libcpmt:locale0.obj
 0003:000028d8       ??_R0?AV_Locimp@locale@std@@@8 100408d8     libcpmt:locale0.obj
 0003:00002900       ??_R0?AV?$numpunct@D@std@@@8 10040900     libcpmt:locale.obj
 0003:00002920       ??_R0?AVcodecvt_base@std@@@8 10040920     libcpmt:locale.obj
 0003:00002940       ??_R0?AV?$codecvt@DDH@std@@@8 10040940     libcpmt:locale.obj
 0003:00002960       ??_R0?AV?$num_get@DV?$istreambuf_iterator@DU?$char_traits@D@std@@@std@@@std@@@8 10040960     libcpmt:locale.obj
 0003:000029b8       ??_R0?AV?$num_put@DV?$ostreambuf_iterator@DU?$char_traits@D@std@@@std@@@std@@@8 100409b8     libcpmt:locale.obj
 0003:00002a10       ??_R0?AUctype_base@std@@@8 10040a10     libcpmt:locale.obj
 0003:00002a30       ??_R0?AV?$ctype@D@std@@@8  10040a30     libcpmt:locale.obj
 0003:00002a4c       ?_Init_cnt@Init@ios_base@std@@0HA 10040a4c     libcpmt:iostream.obj
 0003:00002a50       ??_R0?AV?$basic_filebuf@DU?$char_traits@D@std@@@std@@@8 10040a50     libcpmt:iostream.obj
 0003:00002a8c       ?_Init_cnt@_Winit@std@@0HA 10040a8c     libcpmt:wiostrea.obj
 0003:00002a90       ??_R0?AV?$basic_ios@GU?$char_traits@G@std@@@std@@@8 10040a90     libcpmt:wiostrea.obj
 0003:00002ac8       ??_R0?AV?$basic_istream@GU?$char_traits@G@std@@@std@@@8 10040ac8     libcpmt:wiostrea.obj
 0003:00002b08       ??_R0?AV?$basic_ostream@GU?$char_traits@G@std@@@std@@@8 10040b08     libcpmt:wiostrea.obj
 0003:00002b48       ??_R0?AV?$basic_filebuf@GU?$char_traits@G@std@@@std@@@8 10040b48     libcpmt:wiostrea.obj
 0003:00002b88       ??_R0?AV?$basic_streambuf@GU?$char_traits@G@std@@@std@@@8 10040b88     libcpmt:wiostrea.obj
 0003:00002bc8       ??_R0?AVbad_alloc@std@@@8  10040bc8     libcpmt:nomemory.obj
 0003:00002be8       ??_R0?AV?$num_put@GV?$ostreambuf_iterator@GU?$char_traits@G@std@@@std@@@std@@@8 10040be8     libcpmt:wlocale.obj
 0003:00002c40       ??_R0?AV?$num_get@GV?$istreambuf_iterator@GU?$char_traits@G@std@@@std@@@std@@@8 10040c40     libcpmt:wlocale.obj
 0003:00002c98       ??_R0?AV?$numpunct@G@std@@@8 10040c98     libcpmt:wlocale.obj
 0003:00002cb8       ??_R0?AV?$ctype@G@std@@@8  10040cb8     libcpmt:wlocale.obj
 0003:00002cd8       ??_R0?AV?$time_put@GV?$ostreambuf_iterator@GU?$char_traits@G@std@@@std@@@std@@@8 10040cd8     libcpmt:wlocale.obj
 0003:00002d30       ??_R0?AUtime_base@std@@@8  10040d30     libcpmt:wlocale.obj
 0003:00002d50       ??_R0?AV?$time_get@GV?$istreambuf_iterator@GU?$char_traits@G@std@@@std@@@std@@@8 10040d50     libcpmt:wlocale.obj
 0003:00002da8       ??_R0?AV?$moneypunct@G$00@std@@@8 10040da8     libcpmt:wlocale.obj
 0003:00002dd0       ??_R0?AUmoney_base@std@@@8 10040dd0     libcpmt:wlocale.obj
 0003:00002df0       ??_R0?AV?$_Mpunct@G@std@@@8 10040df0     libcpmt:wlocale.obj
 0003:00002e10       ??_R0?AV?$moneypunct@G$0A@@std@@@8 10040e10     libcpmt:wlocale.obj
 0003:00002e38       ??_R0?AV?$money_put@GV?$ostreambuf_iterator@GU?$char_traits@G@std@@@std@@@std@@@8 10040e38     libcpmt:wlocale.obj
 0003:00002e90       ??_R0?AV?$money_get@GV?$istreambuf_iterator@GU?$char_traits@G@std@@@std@@@std@@@8 10040e90     libcpmt:wlocale.obj
 0003:00002ee8       ??_R0?AUmessages_base@std@@@8 10040ee8     libcpmt:wlocale.obj
 0003:00002f08       ??_R0?AV?$messages@G@std@@@8 10040f08     libcpmt:wlocale.obj
 0003:00002f28       ??_R0?AV?$collate@G@std@@@8 10040f28     libcpmt:wlocale.obj
 0003:00002f48       ??_R0?AV?$codecvt@GDH@std@@@8 10040f48     libcpmt:wlocale.obj
 0003:00002f68       ??_R0?AV?$time_put@DV?$ostreambuf_iterator@DU?$char_traits@D@std@@@std@@@std@@@8 10040f68     libcpmt:xlocale.obj
 0003:00002fc0       ??_R0?AV?$time_get@DV?$istreambuf_iterator@DU?$char_traits@D@std@@@std@@@std@@@8 10040fc0     libcpmt:xlocale.obj
 0003:00003018       ??_R0?AV?$moneypunct@D$00@std@@@8 10041018     libcpmt:xlocale.obj
 0003:00003040       ??_R0?AV?$_Mpunct@D@std@@@8 10041040     libcpmt:xlocale.obj
 0003:00003060       ??_R0?AV?$moneypunct@D$0A@@std@@@8 10041060     libcpmt:xlocale.obj
 0003:00003088       ??_R0?AV?$money_put@DV?$ostreambuf_iterator@DU?$char_traits@D@std@@@std@@@std@@@8 10041088     libcpmt:xlocale.obj
 0003:000030e0       ??_R0?AV?$money_get@DV?$istreambuf_iterator@DU?$char_traits@D@std@@@std@@@std@@@8 100410e0     libcpmt:xlocale.obj
 0003:00003138       ??_R0?AV?$messages@D@std@@@8 10041138     libcpmt:xlocale.obj
 0003:00003158       ??_R0?AV?$collate@D@std@@@8 10041158     libcpmt:xlocale.obj
 0003:00003180       __HUGE                     10041180     LIBCMT:huge.obj
 0003:00003188       ?ATL_CREATE_OBJECT@CComApartment@ATL@@2IA 10041188     ServerStage.obj
 0003:00003190       ?m_libid@CComModule@ATL@@2U_GUID@@A 10041190     ServerStage.obj
 0003:000031a0       ?_pModule@ATL@@3PAVCComModule@1@A 100411a0     ServerStage.obj
 0003:000031a8       ?_Nil@?$_Tree@IU?$pair@$$CBIPAUtagClientNode@CIOCPServer@@@std@@U_Kfn@?$map@IPAUtagClientNode@CIOCPServer@@U?$less@I@std@@V?$allocator@PAUtagClientNode@CIOCPServer@@@4@@2@U?$less@I@2@V?$allocator@PAUtagClientNode@CIOCPServer@@@2@@std@@1PAU_Node@12@A 100411a8     ServerStage.obj
 0003:000031ac       ?_Nilrefs@?$_Tree@IU?$pair@$$CBIPAUtagClientNode@CIOCPServer@@@std@@U_Kfn@?$map@IPAUtagClientNode@CIOCPServer@@U?$less@I@std@@V?$allocator@PAUtagClientNode@CIOCPServer@@@4@@2@U?$less@I@2@V?$allocator@PAUtagClientNode@CIOCPServer@@@2@@std@@1IA 100411ac     ServerStage.obj
 0003:000031b0       ??_C@_00A@?$AA@            100411b0     ServerStage.obj
 0003:000031b4       ?_Psave@?1??use_facet@std@@YAABV?$num_put@DV?$ostreambuf_iterator@DU?$char_traits@D@std@@@std@@@2@ABVlocale@2@PBV32@_N@Z@4PBVfacet@42@B 100411b4     ServerStage.obj
 0003:000031b8       ?_Psave@?1??use_facet@std@@YAABV?$numpunct@D@2@ABVlocale@2@PBV32@_N@Z@4PBVfacet@42@B 100411b8     ServerStage.obj
 0003:000031bc       ?_Facsav@?$_Tidyfac@V?$num_put@DV?$ostreambuf_iterator@DU?$char_traits@D@std@@@std@@@std@@@std@@0PAV?$num_put@DV?$ostreambuf_iterator@DU?$char_traits@D@std@@@std@@@2@A 100411bc     ServerStage.obj
 0003:000031c0       ?_Facsav@?$_Tidyfac@V?$numpunct@D@std@@@std@@0PAV?$numpunct@D@2@A 100411c0     ServerStage.obj
 0003:000031c4       ?_Nil@?$_Tree@IU?$pair@$$CBIPAVCIOBuffer@Win32@OnlineGameLib@@@std@@U_Kfn@?$map@IPAVCIOBuffer@Win32@OnlineGameLib@@U?$less@I@std@@V?$allocator@PAVCIOBuffer@Win32@OnlineGameLib@@@5@@2@U?$less@I@2@V?$allocator@PAVCIOBuffer@Win32@OnlineGameLib@@@2@@std@@1PAU_Node@12@A 100411c4     common:SocketServer.obj
 0003:000031c8       ?_Nilrefs@?$_Tree@IU?$pair@$$CBIPAVCIOBuffer@Win32@OnlineGameLib@@@std@@U_Kfn@?$map@IPAVCIOBuffer@Win32@OnlineGameLib@@U?$less@I@std@@V?$allocator@PAVCIOBuffer@Win32@OnlineGameLib@@@5@@2@U?$less@I@2@V?$allocator@PAVCIOBuffer@Win32@OnlineGameLib@@@2@@std@@1IA 100411c8     common:SocketServer.obj
 0003:00003320       ?s_criticalSection@Win32@OnlineGameLib@@3VCCriticalSection@12@A 10041320     common:Utils.obj
 0003:00003358       ___fastflag                10041358     LIBCMT:fpinit.obj
 0003:0000335c       __adjust_fdiv              1004135c     LIBCMT:fpinit.obj
 0003:00003360       ___lconv_static_null       10041360     LIBCMT:lconv.obj
 0003:00003368       __aenvptr                  10041368     LIBCMT:dllcrt0.obj
 0003:0000336c       __wenvptr                  1004136c     LIBCMT:dllcrt0.obj
 0003:00003370       ___error_mode              10041370     LIBCMT:dllcrt0.obj
 0003:00003374       ___app_type                10041374     LIBCMT:dllcrt0.obj
 0003:000033d8       __umaskval                 100413d8     LIBCMT:crt0dat.obj
 0003:000033dc       __osver                    100413dc     LIBCMT:crt0dat.obj
 0003:000033e0       __winver                   100413e0     LIBCMT:crt0dat.obj
 0003:000033e4       __winmajor                 100413e4     LIBCMT:crt0dat.obj
 0003:000033e8       __winminor                 100413e8     LIBCMT:crt0dat.obj
 0003:000033ec       ___argc                    100413ec     LIBCMT:crt0dat.obj
 0003:000033f0       ___argv                    100413f0     LIBCMT:crt0dat.obj
 0003:000033f4       ___wargv                   100413f4     LIBCMT:crt0dat.obj
 0003:000033f8       __environ                  100413f8     LIBCMT:crt0dat.obj
 0003:000033fc       ___initenv                 100413fc     LIBCMT:crt0dat.obj
 0003:00003400       __wenviron                 10041400     LIBCMT:crt0dat.obj
 0003:00003404       ___winitenv                10041404     LIBCMT:crt0dat.obj
 0003:00003408       __pgmptr                   10041408     LIBCMT:crt0dat.obj
 0003:0000340c       __wpgmptr                  1004140c     LIBCMT:crt0dat.obj
 0003:00003410       __exitflag                 10041410     LIBCMT:crt0dat.obj
 0003:00003414       __C_Termination_Done       10041414     LIBCMT:crt0dat.obj
 0003:00003418       __C_Exit_Done              10041418     LIBCMT:crt0dat.obj
 0003:00003528       __adbgmsg                  10041528     LIBCMT:crt0msg.obj
 0003:0000352c       __cflush                   1004152c     LIBCMT:_file.obj
 0003:0000353c       ___lc_handle               1004153c     LIBCMT:nlsdata2.obj
 0003:00003554       ___lc_codepage             10041554     LIBCMT:nlsdata2.obj
 0003:00003558       ___lc_collate_cp           10041558     LIBCMT:nlsdata2.obj
 0003:00003560       __newmode                  10041560     LIBCMT:_newmode.obj
 0003:00003564       ?_pnhHeap@@3P6AHI@ZA       10041564     LIBCMT:handler.obj
 0003:00003634       ___lc_time_intl            10041634     LIBCMT:inittime.obj
 0003:00003650       ___lc_id                   10041650     LIBCMT:nlsdata3.obj
 0003:000036e4       ?_Index@ios_base@std@@0HA  100416e4     libcpmt:ios.obj
 0003:0000371c       ?_Clocptr@_Locimp@locale@std@@0PAV123@A 1004171c     libcpmt:locale0.obj
 0003:00003720       ?_Global@_Locimp@locale@std@@0PAV123@A 10041720     libcpmt:locale0.obj
 0003:00003724       ?_Id_cnt@id@locale@std@@0HA 10041724     libcpmt:locale0.obj
 0003:00003728       ?_Cltab@?$ctype@D@std@@0PBFB 10041728     libcpmt:locale0.obj
 0003:0000372c       ?id@?$codecvt@DDH@std@@2V0locale@2@A 1004172c     libcpmt:locale.obj
 0003:00003730       ?id@?$num_get@DV?$istreambuf_iterator@DU?$char_traits@D@std@@@std@@@std@@2V0locale@2@A 10041730     libcpmt:locale.obj
 0003:00003734       ?id@?$ctype@D@std@@2V0locale@2@A 10041734     libcpmt:locale.obj
 0003:00003738       ?id@?$numpunct@D@std@@2V0locale@2@A 10041738     libcpmt:locale.obj
 0003:0000373c       ?id@?$num_put@DV?$ostreambuf_iterator@DU?$char_traits@D@std@@@std@@@std@@2V0locale@2@A 1004173c     libcpmt:locale.obj
 0003:00003740       ?_Psave@?1??use_facet@std@@YAABV?$ctype@D@2@ABVlocale@2@PBV32@_N@Z@4PBVfacet@42@B 10041740     libcpmt:locale.obj
 0003:00003744       ?_Psave@?1??use_facet@std@@YAABV?$num_get@DV?$istreambuf_iterator@DU?$char_traits@D@std@@@std@@@2@ABVlocale@2@PBV32@_N@Z@4PBVfacet@42@B 10041744     libcpmt:locale.obj
 0003:00003748       ?_Psave@?1??use_facet@std@@YAABV?$codecvt@DDH@2@ABVlocale@2@PBV32@_N@Z@4PBVfacet@42@B 10041748     libcpmt:locale.obj
 0003:0000374c       ?_Facsav@?$_Tidyfac@V?$ctype@D@std@@@std@@0PAV?$ctype@D@2@A 1004174c     libcpmt:locale.obj
 0003:00003750       ?_Facsav@?$_Tidyfac@V?$num_get@DV?$istreambuf_iterator@DU?$char_traits@D@std@@@std@@@std@@@std@@0PAV?$num_get@DV?$istreambuf_iterator@DU?$char_traits@D@std@@@std@@@2@A 10041750     libcpmt:locale.obj
 0003:00003754       ?_Facsav@?$_Tidyfac@V?$codecvt@DDH@std@@@std@@0PAV?$codecvt@DDH@2@A 10041754     libcpmt:locale.obj
 0003:00003758       ?clog@std@@3V?$basic_ostream@DU?$char_traits@D@std@@@1@A 10041758     libcpmt:iostream.obj
 0003:000037e8       ?cout@std@@3V?$basic_ostream@DU?$char_traits@D@std@@@1@A 100417e8     libcpmt:iostream.obj
 0003:00003878       ?cin@std@@3V?$basic_istream@DU?$char_traits@D@std@@@1@A 10041878     libcpmt:iostream.obj
 0003:00003910       ?cerr@std@@3V?$basic_ostream@DU?$char_traits@D@std@@@1@A 10041910     libcpmt:iostream.obj
 0003:00003948       ?wcerr@std@@3V?$basic_ostream@GU?$char_traits@G@std@@@1@A 10041948     libcpmt:wiostrea.obj
 0003:00003988       ?wclog@std@@3V?$basic_ostream@GU?$char_traits@G@std@@@1@A 10041988     libcpmt:wiostrea.obj
 0003:000039c0       ?wcin@std@@3V?$basic_istream@GU?$char_traits@G@std@@@1@A 100419c0     libcpmt:wiostrea.obj
 0003:00003ab0       ?wcout@std@@3V?$basic_ostream@GU?$char_traits@G@std@@@1@A 10041ab0     libcpmt:wiostrea.obj
 0003:00003b54       ?id@?$numpunct@G@std@@2V0locale@2@A 10041b54     libcpmt:wlocale.obj
 0003:00003b58       ?id@?$money_get@GV?$istreambuf_iterator@GU?$char_traits@G@std@@@std@@@std@@2V0locale@2@A 10041b58     libcpmt:wlocale.obj
 0003:00003b5c       ?id@?$messages@G@std@@2V0locale@2@A 10041b5c     libcpmt:wlocale.obj
 0003:00003b60       ?id@?$moneypunct@G$00@std@@2V0locale@2@A 10041b60     libcpmt:wlocale.obj
 0003:00003b64       ?id@?$num_put@GV?$ostreambuf_iterator@GU?$char_traits@G@std@@@std@@@std@@2V0locale@2@A 10041b64     libcpmt:wlocale.obj
 0003:00003b68       ?id@?$collate@G@std@@2V0locale@2@A 10041b68     libcpmt:wlocale.obj
 0003:00003b6c       ?id@?$time_get@GV?$istreambuf_iterator@GU?$char_traits@G@std@@@std@@@std@@2V0locale@2@A 10041b6c     libcpmt:wlocale.obj
 0003:00003b70       ?id@?$ctype@G@std@@2V0locale@2@A 10041b70     libcpmt:wlocale.obj
 0003:00003b74       ?id@?$num_get@GV?$istreambuf_iterator@GU?$char_traits@G@std@@@std@@@std@@2V0locale@2@A 10041b74     libcpmt:wlocale.obj
 0003:00003b78       ?id@?$codecvt@GDH@std@@2V0locale@2@A 10041b78     libcpmt:wlocale.obj
 0003:00003b7c       ?id@?$time_put@GV?$ostreambuf_iterator@GU?$char_traits@G@std@@@std@@@std@@2V0locale@2@A 10041b7c     libcpmt:wlocale.obj
 0003:00003b80       ?id@?$moneypunct@G$0A@@std@@2V0locale@2@A 10041b80     libcpmt:wlocale.obj
 0003:00003b84       ?id@?$money_put@GV?$ostreambuf_iterator@GU?$char_traits@G@std@@@std@@@std@@2V0locale@2@A 10041b84     libcpmt:wlocale.obj
 0003:00003b88       ?_Psave@?1??use_facet@std@@YAABV?$ctype@G@2@ABVlocale@2@PBV32@_N@Z@4PBVfacet@42@B 10041b88     libcpmt:wlocale.obj
 0003:00003b8c       ?_Psave@?1??use_facet@std@@YAABV?$num_get@GV?$istreambuf_iterator@GU?$char_traits@G@std@@@std@@@2@ABVlocale@2@PBV32@_N@Z@4PBVfacet@42@B 10041b8c     libcpmt:wlocale.obj
 0003:00003b90       ?_Psave@?1??use_facet@std@@YAABV?$num_put@GV?$ostreambuf_iterator@GU?$char_traits@G@std@@@std@@@2@ABVlocale@2@PBV32@_N@Z@4PBVfacet@42@B 10041b90     libcpmt:wlocale.obj
 0003:00003b94       ?_Psave@?1??use_facet@std@@YAABV?$numpunct@G@2@ABVlocale@2@PBV32@_N@Z@4PBVfacet@42@B 10041b94     libcpmt:wlocale.obj
 0003:00003b98       ?_Psave@?1??use_facet@std@@YAABV?$collate@G@2@ABVlocale@2@PBV32@_N@Z@4PBVfacet@42@B 10041b98     libcpmt:wlocale.obj
 0003:00003b9c       ?_Psave@?1??use_facet@std@@YAABV?$messages@G@2@ABVlocale@2@PBV32@_N@Z@4PBVfacet@42@B 10041b9c     libcpmt:wlocale.obj
 0003:00003ba0       ?_Psave@?1??use_facet@std@@YAABV?$money_get@GV?$istreambuf_iterator@GU?$char_traits@G@std@@@std@@@2@ABVlocale@2@PBV32@_N@Z@4PBVfacet@42@B 10041ba0     libcpmt:wlocale.obj
 0003:00003ba4       ?_Psave@?1??use_facet@std@@YAABV?$money_put@GV?$ostreambuf_iterator@GU?$char_traits@G@std@@@std@@@2@ABVlocale@2@PBV32@_N@Z@4PBVfacet@42@B 10041ba4     libcpmt:wlocale.obj
 0003:00003ba8       ?_Psave@?1??use_facet@std@@YAABV?$moneypunct@G$0A@@2@ABVlocale@2@PBV32@_N@Z@4PBVfacet@42@B 10041ba8     libcpmt:wlocale.obj
 0003:00003bac       ?_Psave@?1??use_facet@std@@YAABV?$moneypunct@G$00@2@ABVlocale@2@PBV32@_N@Z@4PBVfacet@42@B 10041bac     libcpmt:wlocale.obj
 0003:00003bb0       ?_Psave@?1??use_facet@std@@YAABV?$time_get@GV?$istreambuf_iterator@GU?$char_traits@G@std@@@std@@@2@ABVlocale@2@PBV32@_N@Z@4PBVfacet@42@B 10041bb0     libcpmt:wlocale.obj
 0003:00003bb4       ?_Psave@?1??use_facet@std@@YAABV?$time_put@GV?$ostreambuf_iterator@GU?$char_traits@G@std@@@std@@@2@ABVlocale@2@PBV32@_N@Z@4PBVfacet@42@B 10041bb4     libcpmt:wlocale.obj
 0003:00003bb8       ?_Psave@?1??use_facet@std@@YAABV?$codecvt@GDH@2@ABVlocale@2@PBV32@_N@Z@4PBVfacet@42@B 10041bb8     libcpmt:wlocale.obj
 0003:00003bbc       ?_Facsav@?$_Tidyfac@V?$ctype@G@std@@@std@@0PAV?$ctype@G@2@A 10041bbc     libcpmt:wlocale.obj
 0003:00003bc0       ?_Facsav@?$_Tidyfac@V?$num_get@GV?$istreambuf_iterator@GU?$char_traits@G@std@@@std@@@std@@@std@@0PAV?$num_get@GV?$istreambuf_iterator@GU?$char_traits@G@std@@@std@@@2@A 10041bc0     libcpmt:wlocale.obj
 0003:00003bc4       ?_Facsav@?$_Tidyfac@V?$num_put@GV?$ostreambuf_iterator@GU?$char_traits@G@std@@@std@@@std@@@std@@0PAV?$num_put@GV?$ostreambuf_iterator@GU?$char_traits@G@std@@@std@@@2@A 10041bc4     libcpmt:wlocale.obj
 0003:00003bc8       ?_Facsav@?$_Tidyfac@V?$numpunct@G@std@@@std@@0PAV?$numpunct@G@2@A 10041bc8     libcpmt:wlocale.obj
 0003:00003bcc       ?_Facsav@?$_Tidyfac@V?$collate@G@std@@@std@@0PAV?$collate@G@2@A 10041bcc     libcpmt:wlocale.obj
 0003:00003bd0       ?_Facsav@?$_Tidyfac@V?$messages@G@std@@@std@@0PAV?$messages@G@2@A 10041bd0     libcpmt:wlocale.obj
 0003:00003bd4       ?_Facsav@?$_Tidyfac@V?$money_get@GV?$istreambuf_iterator@GU?$char_traits@G@std@@@std@@@std@@@std@@0PAV?$money_get@GV?$istreambuf_iterator@GU?$char_traits@G@std@@@std@@@2@A 10041bd4     libcpmt:wlocale.obj
 0003:00003bd8       ?_Facsav@?$_Tidyfac@V?$money_put@GV?$ostreambuf_iterator@GU?$char_traits@G@std@@@std@@@std@@@std@@0PAV?$money_put@GV?$ostreambuf_iterator@GU?$char_traits@G@std@@@std@@@2@A 10041bd8     libcpmt:wlocale.obj
 0003:00003bdc       ?_Facsav@?$_Tidyfac@V?$moneypunct@G$0A@@std@@@std@@0PAV?$moneypunct@G$0A@@2@A 10041bdc     libcpmt:wlocale.obj
 0003:00003be0       ?_Facsav@?$_Tidyfac@V?$moneypunct@G$00@std@@@std@@0PAV?$moneypunct@G$00@2@A 10041be0     libcpmt:wlocale.obj
 0003:00003be4       ?_Facsav@?$_Tidyfac@V?$time_get@GV?$istreambuf_iterator@GU?$char_traits@G@std@@@std@@@std@@@std@@0PAV?$time_get@GV?$istreambuf_iterator@GU?$char_traits@G@std@@@std@@@2@A 10041be4     libcpmt:wlocale.obj
 0003:00003be8       ?_Facsav@?$_Tidyfac@V?$time_put@GV?$ostreambuf_iterator@GU?$char_traits@G@std@@@std@@@std@@@std@@0PAV?$time_put@GV?$ostreambuf_iterator@GU?$char_traits@G@std@@@std@@@2@A 10041be8     libcpmt:wlocale.obj
 0003:00003bec       ?_Facsav@?$_Tidyfac@V?$codecvt@GDH@std@@@std@@0PAV?$codecvt@GDH@2@A 10041bec     libcpmt:wlocale.obj
 0003:00003bf0       ?id@?$money_put@DV?$ostreambuf_iterator@DU?$char_traits@D@std@@@std@@@std@@2V0locale@2@A 10041bf0     libcpmt:xlocale.obj
 0003:00003bf4       ?id@?$moneypunct@D$00@std@@2V0locale@2@A 10041bf4     libcpmt:xlocale.obj
 0003:00003bf8       ?id@?$time_get@DV?$istreambuf_iterator@DU?$char_traits@D@std@@@std@@@std@@2V0locale@2@A 10041bf8     libcpmt:xlocale.obj
 0003:00003bfc       ?id@?$time_put@DV?$ostreambuf_iterator@DU?$char_traits@D@std@@@std@@@std@@2V0locale@2@A 10041bfc     libcpmt:xlocale.obj
 0003:00003c00       ?id@?$messages@D@std@@2V0locale@2@A 10041c00     libcpmt:xlocale.obj
 0003:00003c04       ?id@?$moneypunct@D$0A@@std@@2V0locale@2@A 10041c04     libcpmt:xlocale.obj
 0003:00003c08       ?id@?$money_get@DV?$istreambuf_iterator@DU?$char_traits@D@std@@@std@@@std@@2V0locale@2@A 10041c08     libcpmt:xlocale.obj
 0003:00003c0c       ?id@?$collate@D@std@@2V0locale@2@A 10041c0c     libcpmt:xlocale.obj
 0003:00003c10       ?_Psave@?1??use_facet@std@@YAABV?$collate@D@2@ABVlocale@2@PBV32@_N@Z@4PBVfacet@42@B 10041c10     libcpmt:xlocale.obj
 0003:00003c14       ?_Psave@?1??use_facet@std@@YAABV?$messages@D@2@ABVlocale@2@PBV32@_N@Z@4PBVfacet@42@B 10041c14     libcpmt:xlocale.obj
 0003:00003c18       ?_Psave@?1??use_facet@std@@YAABV?$money_get@DV?$istreambuf_iterator@DU?$char_traits@D@std@@@std@@@2@ABVlocale@2@PBV32@_N@Z@4PBVfacet@42@B 10041c18     libcpmt:xlocale.obj
 0003:00003c1c       ?_Psave@?1??use_facet@std@@YAABV?$money_put@DV?$ostreambuf_iterator@DU?$char_traits@D@std@@@std@@@2@ABVlocale@2@PBV32@_N@Z@4PBVfacet@42@B 10041c1c     libcpmt:xlocale.obj
 0003:00003c20       ?_Psave@?1??use_facet@std@@YAABV?$moneypunct@D$0A@@2@ABVlocale@2@PBV32@_N@Z@4PBVfacet@42@B 10041c20     libcpmt:xlocale.obj
 0003:00003c24       ?_Psave@?1??use_facet@std@@YAABV?$moneypunct@D$00@2@ABVlocale@2@PBV32@_N@Z@4PBVfacet@42@B 10041c24     libcpmt:xlocale.obj
 0003:00003c28       ?_Psave@?1??use_facet@std@@YAABV?$time_get@DV?$istreambuf_iterator@DU?$char_traits@D@std@@@std@@@2@ABVlocale@2@PBV32@_N@Z@4PBVfacet@42@B 10041c28     libcpmt:xlocale.obj
 0003:00003c2c       ?_Psave@?1??use_facet@std@@YAABV?$time_put@DV?$ostreambuf_iterator@DU?$char_traits@D@std@@@std@@@2@ABVlocale@2@PBV32@_N@Z@4PBVfacet@42@B 10041c2c     libcpmt:xlocale.obj
 0003:00003c30       ?_Facsav@?$_Tidyfac@V?$collate@D@std@@@std@@0PAV?$collate@D@2@A 10041c30     libcpmt:xlocale.obj
 0003:00003c34       ?_Facsav@?$_Tidyfac@V?$messages@D@std@@@std@@0PAV?$messages@D@2@A 10041c34     libcpmt:xlocale.obj
 0003:00003c38       ?_Facsav@?$_Tidyfac@V?$money_get@DV?$istreambuf_iterator@DU?$char_traits@D@std@@@std@@@std@@@std@@0PAV?$money_get@DV?$istreambuf_iterator@DU?$char_traits@D@std@@@std@@@2@A 10041c38     libcpmt:xlocale.obj
 0003:00003c3c       ?_Facsav@?$_Tidyfac@V?$money_put@DV?$ostreambuf_iterator@DU?$char_traits@D@std@@@std@@@std@@@std@@0PAV?$money_put@DV?$ostreambuf_iterator@DU?$char_traits@D@std@@@std@@@2@A 10041c3c     libcpmt:xlocale.obj
 0003:00003c40       ?_Facsav@?$_Tidyfac@V?$moneypunct@D$0A@@std@@@std@@0PAV?$moneypunct@D$0A@@2@A 10041c40     libcpmt:xlocale.obj
 0003:00003c44       ?_Facsav@?$_Tidyfac@V?$moneypunct@D$00@std@@@std@@0PAV?$moneypunct@D$00@2@A 10041c44     libcpmt:xlocale.obj
 0003:00003c48       ?_Facsav@?$_Tidyfac@V?$time_get@DV?$istreambuf_iterator@DU?$char_traits@D@std@@@std@@@std@@@std@@0PAV?$time_get@DV?$istreambuf_iterator@DU?$char_traits@D@std@@@std@@@2@A 10041c48     libcpmt:xlocale.obj
 0003:00003c4c       ?_Facsav@?$_Tidyfac@V?$time_put@DV?$ostreambuf_iterator@DU?$char_traits@D@std@@@std@@@std@@@std@@0PAV?$time_put@DV?$ostreambuf_iterator@DU?$char_traits@D@std@@@std@@@2@A 10041c4c     libcpmt:xlocale.obj
 0003:00003c5c       ??_B?1???id@?$num_put@DV?$ostreambuf_iterator@DU?$char_traits@D@std@@@$D@@9@51 10041c5c     <common>
 0003:00003c5d       ??_B?1???id@?$numpunct@D@std@@$D@@9@51 10041c5d     <common>
 0003:00003c5e       ??_B?1???id@?$ctype@G@std@@$D@@9@51 10041c5e     <common>
 0003:00003c60       ?_Stz@?$fpos@H@std@@0HA    10041c60     <common>
 0003:00003c64       ?_Stinit@?1??_Init@?$basic_filebuf@DU?$char_traits@D@std@@@std@@IAEXPAU_iobuf@@W4_Initfl@23@@Z@4HA 10041c64     <common>
 0003:00003c68       ___alternate_form          10041c68     <common>
 0003:00003c6c       ___no_lead_zeros           10041c6c     <common>
 0003:00003c70       ___mbcodepage              10041c70     <common>
 0003:00003c80       ___mbulinfo                10041c80     <common>
 0003:00003c8c       ___ismbcodepage            10041c8c     <common>
 0003:00003ca0       __mbcasemap                10041ca0     <common>
 0003:00003da0       __mbctype                  10041da0     <common>
 0003:00003ea4       ___mblcid                  10041ea4     <common>
 0003:00003ea8       ___sbh_sizeHeaderList      10041ea8     <common>
 0003:00003eac       ___sbh_indGroupDefer       10041eac     <common>
 0003:00003eb0       ___sbh_pHeaderScan         10041eb0     <common>
 0003:00003eb4       ___sbh_pHeaderDefer        10041eb4     <common>
 0003:00003eb8       ___sbh_cntHeaderList       10041eb8     <common>
 0003:00003ebc       ___sbh_pHeaderList         10041ebc     <common>
 0003:00003ec0       ___setlc_active            10041ec0     <common>
 0003:00003ec4       ___unguarded_readlc_active 10041ec4     <common>
 0003:00003ec8       ___piob                    10041ec8     <common>
 0003:00003ee0       __bufin                    10041ee0     <common>
 0003:00004ee0       __nstream                  10042ee0     <common>
 0003:00004ee4       __crtheap                  10042ee4     <common>
 0003:00004f00       ___pioinfo                 10042f00     <common>
 0003:00005000       __nhandle                  10043000     <common>
 0003:00005004       ___env_initialized         10043004     <common>
 0003:00005008       ___mbctype_initialized     10043008     <common>
 0003:0000500c       ___onexitend               1004300c     <common>
 0003:00005010       ___onexitbegin             10043010     <common>
 0003:00005014       __acmdln                   10043014     <common>
 0003:00005018       __pRawDllMain              10043018     <common>
 0003:0000501c       ?_Stinit@?1??_Init@?$basic_filebuf@GU?$char_traits@G@std@@@std@@IAEXPAU_iobuf@@W4_Initfl@23@@Z@4HA 1004301c     <common>
 0003:00005020       ??_B?1???id@?$collate@D@std@@$D@@9@51 10043020     <common>

 entry point at        0001:000142e7

 Static symbols

 0001:00000650       _$E21                      10001650 f   ServerStage.obj
 0001:00000660       _$E20                      10001660 f   ServerStage.obj
 0001:000075a0       _$E32                      100085a0 f   ServerStage.obj
 0001:000075c0       _$E29                      100085c0 f   ServerStage.obj
 0001:00008f60       _$E40                      10009f60 f   ServerStage.obj
 0001:00008f90       _$E36                      10009f90 f   ServerStage.obj
 0001:00008fa0       _$E39                      10009fa0 f   ServerStage.obj
 0001:00013430       _$E19                      10014430 f   common:Socket.obj
 0001:00013450       _$E18                      10014450 f   common:Socket.obj
 0001:000127e0       _$E19                      100137e0 f   common:UsesWinsock.obj
 0001:00012800       _$E18                      10013800 f   common:UsesWinsock.obj
 0001:000126d0       _$E19                      100136d0 f   common:IOCompletionPort.obj
 0001:000126f0       _$E18                      100136f0 f   common:IOCompletionPort.obj
 0001:00011bf0       ?DeblockSockAddr@Win32@OnlineGameLib@@YA?AV?$basic_string@DU?$char_traits@D@std@@V?$allocator@D@2@@std@@PBUsockaddr@@@Z 10012bf0 f   common:SocketAddress.obj
 0001:00012320       _$E25                      10013320 f   common:SocketAddress.obj
 0001:00012340       _$E22                      10013340 f   common:SocketAddress.obj
 0001:00012350       _$E33                      10013350 f   common:SocketAddress.obj
 0001:00012380       _$E29                      10013380 f   common:SocketAddress.obj
 0001:00012390       _$E32                      10013390 f   common:SocketAddress.obj
 0001:00011ae0       _$E19                      10012ae0 f   common:Thread.obj
 0001:00011b00       _$E18                      10012b00 f   common:Thread.obj
 0001:0000e1c0       _$E19                      1000f1c0 f   common:Utils.obj
 0001:0000e1d0       _$E16                      1000f1d0 f   common:Utils.obj
 0001:0000e1e0       _$E18                      1000f1e0 f   common:Utils.obj
 0001:0000e1f0       _$E17                      1000f1f0 f   common:Utils.obj
 0001:0000e200       _$E25                      1000f200 f   common:Utils.obj
 0001:0000e210       _$E22                      1000f210 f   common:Utils.obj
 0001:0000e220       _$E24                      1000f220 f   common:Utils.obj
 0001:0000e230       _$E23                      1000f230 f   common:Utils.obj
 0001:0000e240       _$E30                      1000f240 f   common:Utils.obj
 0001:0000e250       _$E27                      1000f250 f   common:Utils.obj
 0001:0000e260       _$E29                      1000f260 f   common:Utils.obj
 0001:0000e270       _$E28                      1000f270 f   common:Utils.obj
 0001:0000e280       _$E35                      1000f280 f   common:Utils.obj
 0001:0000e290       _$E32                      1000f290 f   common:Utils.obj
 0001:0000e2a0       _$E34                      1000f2a0 f   common:Utils.obj
 0001:0000e2b0       _$E33                      1000f2b0 f   common:Utils.obj
 0001:0000e2d0       _$E40                      1000f2d0 f   common:Utils.obj
 0001:0000e2e0       _$E37                      1000f2e0 f   common:Utils.obj
 0001:0000e3c0       _$E39                      1000f3c0 f   common:Utils.obj
 0001:0000e3d0       _$E38                      1000f3d0 f   common:Utils.obj
 0001:0000ee00       _$E43                      1000fe00 f   common:Utils.obj
 0001:0000f700       _$E45                      10010700 f   common:Utils.obj
 0001:0000f960       _$E47                      10010960 f   common:Utils.obj
 0001:0000fbc0       _$E49                      10010bc0 f   common:Utils.obj
 0001:0000ffd0       _$E51                      10010fd0 f   common:Utils.obj
 0001:00011610       _$E58                      10012610 f   common:Utils.obj
 0001:00011630       _$E57                      10012630 f   common:Utils.obj
 0001:0000e190       _$E19                      1000f190 f   common:Exception.obj
 0001:0000e1b0       _$E18                      1000f1b0 f   common:Exception.obj
 0001:0000dcf0       _$E21                      1000ecf0 f   common:Win32Exception.obj
 0001:0000dd10       _$E20                      1000ed10 f   common:Win32Exception.obj
 0001:0000dc30       _$E23                      1000ec30 f   common:IOBuffer.obj
 0001:0000dc50       _$E22                      1000ec50 f   common:IOBuffer.obj
 0001:0000c4e0       ?Create@Win32@OnlineGameLib@@YAPAXPAU_SECURITY_ATTRIBUTES@@_N1PBD@Z 1000d4e0 f   common:Event.obj
 0001:0000ca90       _$E19                      1000da90 f   common:Event.obj
 0001:0000cab0       _$E18                      1000dab0 f   common:Event.obj
 0001:00009150       ?CalculateNumberOfThreads@Win32@OnlineGameLib@@YAII@Z 1000a150 f   common:SocketServer.obj
 0001:0000c470       _$E25                      1000d470 f   common:SocketServer.obj
 0001:0000c490       _$E24                      1000d490 f   common:SocketServer.obj
 0001:0002f713       _strtoxl                   10030713 f   LIBCMT:strtol.obj
 0001:0002022a       _findenv                   1002122a f   LIBCMT:setenv.obj
 0001:00020282       _copy_environ              10021282 f   LIBCMT:setenv.obj
 0001:00020078       _strncnt                   10021078 f   LIBCMT:a_cmp.obj
 0001:0001f532       _xtoa                      10020532 f   LIBCMT:xtoa.obj
 0001:0001f604       _x64toa@20                 10020604 f   LIBCMT:xtoa.obj
 0001:0001ea6b       __expandtime               1001fa6b f   LIBCMT:strftime.obj
 0001:0001ee5a       __store_str                1001fe5a f   LIBCMT:strftime.obj
 0001:0001ee81       __store_num                1001fe81 f   LIBCMT:strftime.obj
 0001:0001eef0       __store_number             1001fef0 f   LIBCMT:strftime.obj
 0001:0001ef39       __store_winword            1001ff39 f   LIBCMT:strftime.obj
 0001:0001d9ee       _ctrlevent_capture@4       1001e9ee f   LIBCMT:winsig.obj
 0001:0001dbd2       _siglookup                 1001ebd2 f   LIBCMT:winsig.obj
 0001:0001cc87       _TranslateName             1001dc87 f   LIBCMT:getqloc.obj
 0001:0001ccdf       _GetLcidFromLangCountry    1001dcdf f   LIBCMT:getqloc.obj
 0001:0001cd66       _LangCountryEnumProc@4     1001dd66 f   LIBCMT:getqloc.obj
 0001:0001cf6a       _GetLcidFromLanguage       1001df6a f   LIBCMT:getqloc.obj
 0001:0001cfc0       _LanguageEnumProc@4        1001dfc0 f   LIBCMT:getqloc.obj
 0001:0001d07d       _GetLcidFromCountry        1001e07d f   LIBCMT:getqloc.obj
 0001:0001d0b4       _CountryEnumProc@4         1001e0b4 f   LIBCMT:getqloc.obj
 0001:0001d13a       _GetLcidFromDefault        1001e13a f   LIBCMT:getqloc.obj
 0001:0001d154       _ProcessCodePage           1001e154 f   LIBCMT:getqloc.obj
 0001:0001d1ba       _TestDefaultCountry        1001e1ba f   LIBCMT:getqloc.obj
 0001:0001d1d9       _TestDefaultLanguage       1001e1d9 f   LIBCMT:getqloc.obj
 0001:0001d23b       _IsThisWindowsNT           1001e23b f   LIBCMT:getqloc.obj
 0001:0001d271       _crtGetLocaleInfoA@16      1001e271 f   LIBCMT:getqloc.obj
 0001:0001d357       _LcidFromHexString         1001e357 f   LIBCMT:getqloc.obj
 0001:0001d390       _GetPrimaryLen             1001e390 f   LIBCMT:getqloc.obj
 0001:0001c69d       __get_lc_lconv             1001d69d f   LIBCMT:initmon.obj
 0001:0001c7bf       _fix_grouping              1001d7bf f   LIBCMT:initmon.obj
 0001:0001c7f6       __free_lc_lconv            1001d7f6 f   LIBCMT:initmon.obj
 0001:0001c59b       _fix_grouping              1001d59b f   LIBCMT:initnum.obj
 0001:0001bee8       __get_lc_time              1001cee8 f   LIBCMT:inittime.obj
 0001:0001c236       __free_lc_time             1001d236 f   LIBCMT:inittime.obj
 0001:0001b667       _getSystemCP               1001c667 f   LIBCMT:mbctype.obj
 0001:0001b6b1       _CPtoLCID                  1001c6b1 f   LIBCMT:mbctype.obj
 0001:0001b6e4       _setSBCS                   1001c6e4 f   LIBCMT:mbctype.obj
 0001:0001b70d       _setSBUpLow                1001c70d f   LIBCMT:mbctype.obj
 0001:0001ac02       __abstract_cw              1001bc02 f   LIBCMT:ieee87.obj
 0001:0001ac94       __hw_cw                    1001bc94 f   LIBCMT:ieee87.obj
 0001:0001ad1d       __abstract_sw              1001bd1d f   LIBCMT:ieee87.obj
 0001:0001a397       __tzset_lk                 1001b397 f   LIBCMT:tzset.obj
 0001:0001a63f       __isindst_lk               1001b63f f   LIBCMT:tzset.obj
 0001:0001a7eb       _cvtdate                   1001b7eb f   LIBCMT:tzset.obj
 0001:00018a00       LeadUp1                    10019a00 f   LIBCMT:memcpy.obj
 0001:00018a2c       LeadUp2                    10019a2c f   LIBCMT:memcpy.obj
 0001:00018a50       LeadUp3                    10019a50 f   LIBCMT:memcpy.obj
 0001:00018acf       UnwindUp0                  10019acf f   LIBCMT:memcpy.obj
 0001:00018abc       UnwindUp1                  10019abc f   LIBCMT:memcpy.obj
 0001:00018ab4       UnwindUp2                  10019ab4 f   LIBCMT:memcpy.obj
 0001:00018aac       UnwindUp3                  10019aac f   LIBCMT:memcpy.obj
 0001:00018aa4       UnwindUp4                  10019aa4 f   LIBCMT:memcpy.obj
 0001:00018a9c       UnwindUp5                  10019a9c f   LIBCMT:memcpy.obj
 0001:00018a94       UnwindUp6                  10019a94 f   LIBCMT:memcpy.obj
 0001:00018a8c       UnwindUp7                  10019a8c f   LIBCMT:memcpy.obj
 0001:00018ae8       TrailUp0                   10019ae8 f   LIBCMT:memcpy.obj
 0001:00018af0       TrailUp1                   10019af0 f   LIBCMT:memcpy.obj
 0001:00018afc       TrailUp2                   10019afc f   LIBCMT:memcpy.obj
 0001:00018b10       TrailUp3                   10019b10 f   LIBCMT:memcpy.obj
 0001:00018b88       LeadDown1                  10019b88 f   LIBCMT:memcpy.obj
 0001:00018ba8       LeadDown2                  10019ba8 f   LIBCMT:memcpy.obj
 0001:00018bd0       LeadDown3                  10019bd0 f   LIBCMT:memcpy.obj
 0001:00018c24       UnwindDown7                10019c24 f   LIBCMT:memcpy.obj
 0001:00018c2c       UnwindDown6                10019c2c f   LIBCMT:memcpy.obj
 0001:00018c34       UnwindDown5                10019c34 f   LIBCMT:memcpy.obj
 0001:00018c3c       UnwindDown4                10019c3c f   LIBCMT:memcpy.obj
 0001:00018c44       UnwindDown3                10019c44 f   LIBCMT:memcpy.obj
 0001:00018c4c       UnwindDown2                10019c4c f   LIBCMT:memcpy.obj
 0001:00018c54       UnwindDown1                10019c54 f   LIBCMT:memcpy.obj
 0001:00018c67       UnwindDown0                10019c67 f   LIBCMT:memcpy.obj
 0001:00018c80       TrailDown0                 10019c80 f   LIBCMT:memcpy.obj
 0001:00018c88       TrailDown1                 10019c88 f   LIBCMT:memcpy.obj
 0001:00018c98       TrailDown2                 10019c98 f   LIBCMT:memcpy.obj
 0001:00018cac       TrailDown3                 10019cac f   LIBCMT:memcpy.obj
 0001:000186b7       _strncnt                   100196b7 f   LIBCMT:a_map.obj
 0001:00018060       __setlocale_set_cat        10019060 f   LIBCMT:setlocal.obj
 0001:0001817b       __setlocale_get_all        1001917b f   LIBCMT:setlocal.obj
 0001:0001765b       _parse_cmdline             1001865b f   LIBCMT:stdargv.obj
 0001:00017032       __cftoe2                   10018032 f   LIBCMT:cvt.obj
 0001:00017149       __cftof2                   10018149 f   LIBCMT:cvt.obj
 0001:000172d4       __shift                    100182d4 f   LIBCMT:cvt.obj
 0001:00016d91       _write_char                10017d91 f   LIBCMT:output.obj
 0001:00016dc6       _write_multi_char          10017dc6 f   LIBCMT:output.obj
 0001:00016df7       _write_string              10017df7 f   LIBCMT:output.obj
 0001:00016e2f       _get_int_arg               10017e2f f   LIBCMT:output.obj
 0001:00016e3c       _get_int64_arg             10017e3c f   LIBCMT:output.obj
 0001:00016e4c       _get_short_arg             10017e4c f   LIBCMT:output.obj
 0001:000160d2       _xcptlookup                100170d2 f   LIBCMT:winxfltr.obj
 0001:00015ec3       _doexit                    10016ec3 f   LIBCMT:crt0dat.obj
 0001:00015f7a       __initterm                 10016f7a f   LIBCMT:crt0dat.obj
 0001:0001509d       ?FindHandler@@YAXPAUEHExceptionRecord@@PAUEHRegistrationNode@@PAU_CONTEXT@@PAXPBU_s_FuncInfo@@EH1@Z 1001609d f   LIBCMT:frame.obj
 0001:00015250       ?FindHandlerForForeignException@@YAXPAUEHExceptionRecord@@PAUEHRegistrationNode@@PAU_CONTEXT@@PAXPBU_s_FuncInfo@@HH1@Z 10016250 f   LIBCMT:frame.obj
 0001:000152fa       ?TypeMatch@@YAHPBU_s_HandlerType@@PBU_s_CatchableType@@PBU_s_ThrowInfo@@@Z 100162fa f   LIBCMT:frame.obj
 0001:000153f5       ?FrameUnwindFilter@@YAHPAU_EXCEPTION_POINTERS@@@Z 100163f5 f   LIBCMT:frame.obj
 0001:0001540b       ?CatchIt@@YAXPAUEHExceptionRecord@@PAUEHRegistrationNode@@PAU_CONTEXT@@PAXPBU_s_FuncInfo@@PBU_s_HandlerType@@PBU_s_CatchableType@@PBU_s_TryBlockMapEntry@@H1E@Z 1001640b f   LIBCMT:frame.obj
 0001:00015486       ?CallCatchBlock@@YAPAXPAUEHExceptionRecord@@PAUEHRegistrationNode@@PAU_CONTEXT@@PBU_s_FuncInfo@@PAXHK@Z 10016486 f   LIBCMT:frame.obj
 0001:000155a1       ?ExFilterRethrow@@YAHPAU_EXCEPTION_POINTERS@@@Z 100165a1 f   LIBCMT:frame.obj
 0001:000155cb       ?BuildCatchObject@@YAXPAUEHExceptionRecord@@PAUEHRegistrationNode@@PBU_s_HandlerType@@PBU_s_CatchableType@@@Z 100165cb f   LIBCMT:frame.obj
 0001:000157f6       ?AdjustPointer@@YAPAXPAXABUPMD@@@Z 100167f6 f   LIBCMT:frame.obj
 0001:00014e8a       _flsall                    10015e8a f   LIBCMT:fflush.obj
 0001:00013bf0       LeadUp1                    10014bf0 f   LIBCMT:memmove.obj
 0001:00013c1c       LeadUp2                    10014c1c f   LIBCMT:memmove.obj
 0001:00013c40       LeadUp3                    10014c40 f   LIBCMT:memmove.obj
 0001:00013cbf       UnwindUp0                  10014cbf f   LIBCMT:memmove.obj
 0001:00013cac       UnwindUp1                  10014cac f   LIBCMT:memmove.obj
 0001:00013ca4       UnwindUp2                  10014ca4 f   LIBCMT:memmove.obj
 0001:00013c9c       UnwindUp3                  10014c9c f   LIBCMT:memmove.obj
 0001:00013c94       UnwindUp4                  10014c94 f   LIBCMT:memmove.obj
 0001:00013c8c       UnwindUp5                  10014c8c f   LIBCMT:memmove.obj
 0001:00013c84       UnwindUp6                  10014c84 f   LIBCMT:memmove.obj
 0001:00013c7c       UnwindUp7                  10014c7c f   LIBCMT:memmove.obj
 0001:00013cd8       TrailUp0                   10014cd8 f   LIBCMT:memmove.obj
 0001:00013ce0       TrailUp1                   10014ce0 f   LIBCMT:memmove.obj
 0001:00013cec       TrailUp2                   10014cec f   LIBCMT:memmove.obj
 0001:00013d00       TrailUp3                   10014d00 f   LIBCMT:memmove.obj
 0001:00013d78       LeadDown1                  10014d78 f   LIBCMT:memmove.obj
 0001:00013d98       LeadDown2                  10014d98 f   LIBCMT:memmove.obj
 0001:00013dc0       LeadDown3                  10014dc0 f   LIBCMT:memmove.obj
 0001:00013e14       UnwindDown7                10014e14 f   LIBCMT:memmove.obj
 0001:00013e1c       UnwindDown6                10014e1c f   LIBCMT:memmove.obj
 0001:00013e24       UnwindDown5                10014e24 f   LIBCMT:memmove.obj
 0001:00013e2c       UnwindDown4                10014e2c f   LIBCMT:memmove.obj
 0001:00013e34       UnwindDown3                10014e34 f   LIBCMT:memmove.obj
 0001:00013e3c       UnwindDown2                10014e3c f   LIBCMT:memmove.obj
 0001:00013e44       UnwindDown1                10014e44 f   LIBCMT:memmove.obj
 0001:00013e57       UnwindDown0                10014e57 f   LIBCMT:memmove.obj
 0001:00013e70       TrailDown0                 10014e70 f   LIBCMT:memmove.obj
 0001:00013e78       TrailDown1                 10014e78 f   LIBCMT:memmove.obj
 0001:00013e88       TrailDown2                 10014e88 f   LIBCMT:memmove.obj
 0001:00013e9c       TrailDown3                 10014e9c f   LIBCMT:memmove.obj
 0001:00013a6d       __threadstartex@4          10014a6d f   LIBCMT:threadex.obj
 0001:00013798       _gu_return                 10014798 f   LIBCMT:exsup.obj
 0001:000137a0       __unwind_handler           100147a0 f   LIBCMT:exsup.obj
 0001:000135b5       ?CatchGuardHandler@@YA?AW4_EXCEPTION_DISPOSITION@@PAUEHExceptionRecord@@PAUCatchGuardRN@@PAX2@Z 100145b5 f   LIBCMT:trnsctrl.obj
 0001:00013690       ?TranslatorGuardHandler@@YA?AW4_EXCEPTION_DISPOSITION@@PAUEHExceptionRecord@@PAUTranslatorGuardRN@@PAX2@Z 10014690 f   LIBCMT:trnsctrl.obj
 0001:0002ef74       __Mbrtowc_lk               1002ff74 f   libcpmt:xmbtowc.obj
 0001:0002e840       _$E37                      1002f840 f   libcpmt:xlocale.obj
 0001:0002e855       _$E36                      1002f855 f   libcpmt:xlocale.obj
 0001:0002b977       _$E47                      1002c977 f   libcpmt:wlocale.obj
 0001:0002b98c       _$E46                      1002c98c f   libcpmt:wlocale.obj
 0001:00025789       _$E2                       10026789 f   libcpmt:nomemory.obj
 0001:00024802       _$E18                      10025802 f   libcpmt:wiostrea.obj
 0001:0002480c       _$E15                      1002580c f   libcpmt:wiostrea.obj
 0001:00024816       _$E17                      10025816 f   libcpmt:wiostrea.obj
 0001:00024822       _$E16                      10025822 f   libcpmt:wiostrea.obj
 0001:0002482c       _$E24                      1002582c f   libcpmt:wiostrea.obj
 0001:00024836       _$E21                      10025836 f   libcpmt:wiostrea.obj
 0001:00024840       _$E23                      10025840 f   libcpmt:wiostrea.obj
 0001:0002484c       _$E22                      1002584c f   libcpmt:wiostrea.obj
 0001:00024856       _$E29                      10025856 f   libcpmt:wiostrea.obj
 0001:00024860       _$E26                      10025860 f   libcpmt:wiostrea.obj
 0001:0002486d       _$E28                      1002586d f   libcpmt:wiostrea.obj
 0001:00024879       _$E27                      10025879 f   libcpmt:wiostrea.obj
 0001:00024883       _$E34                      10025883 f   libcpmt:wiostrea.obj
 0001:0002488d       _$E31                      1002588d f   libcpmt:wiostrea.obj
 0001:0002489a       _$E33                      1002589a f   libcpmt:wiostrea.obj
 0001:000248a6       _$E32                      100258a6 f   libcpmt:wiostrea.obj
 0001:000248b0       _$E39                      100258b0 f   libcpmt:wiostrea.obj
 0001:000248ba       _$E36                      100258ba f   libcpmt:wiostrea.obj
 0001:000248c7       _$E38                      100258c7 f   libcpmt:wiostrea.obj
 0001:000248d3       _$E37                      100258d3 f   libcpmt:wiostrea.obj
 0001:000248dd       _$E44                      100258dd f   libcpmt:wiostrea.obj
 0001:000248e7       _$E41                      100258e7 f   libcpmt:wiostrea.obj
 0001:000248f6       _$E43                      100258f6 f   libcpmt:wiostrea.obj
 0001:00024902       _$E42                      10025902 f   libcpmt:wiostrea.obj
 0001:00024921       _$E49                      10025921 f   libcpmt:wiostrea.obj
 0001:0002492b       _$E46                      1002592b f   libcpmt:wiostrea.obj
 0001:0002493a       _$E48                      1002593a f   libcpmt:wiostrea.obj
 0001:00024946       _$E47                      10025946 f   libcpmt:wiostrea.obj
 0001:00024965       _$E54                      10025965 f   libcpmt:wiostrea.obj
 0001:0002496f       _$E51                      1002596f f   libcpmt:wiostrea.obj
 0001:0002497e       _$E53                      1002597e f   libcpmt:wiostrea.obj
 0001:0002498a       _$E52                      1002598a f   libcpmt:wiostrea.obj
 0001:00024994       _$E59                      10025994 f   libcpmt:wiostrea.obj
 0001:0002499e       _$E56                      1002599e f   libcpmt:wiostrea.obj
 0001:000249ad       _$E58                      100259ad f   libcpmt:wiostrea.obj
 0001:000249b9       _$E57                      100259b9 f   libcpmt:wiostrea.obj
 0001:00025687       _$E70                      10026687 f   libcpmt:wiostrea.obj
 0001:000256b1       _$E66                      100266b1 f   libcpmt:wiostrea.obj
 0001:000256bd       _$E69                      100266bd f   libcpmt:wiostrea.obj
 0001:000242c3       _$E18                      100252c3 f   libcpmt:iostream.obj
 0001:000242cd       _$E15                      100252cd f   libcpmt:iostream.obj
 0001:000242da       _$E17                      100252da f   libcpmt:iostream.obj
 0001:000242e6       _$E16                      100252e6 f   libcpmt:iostream.obj
 0001:000242f0       _$E23                      100252f0 f   libcpmt:iostream.obj
 0001:000242fa       _$E20                      100252fa f   libcpmt:iostream.obj
 0001:00024307       _$E22                      10025307 f   libcpmt:iostream.obj
 0001:00024313       _$E21                      10025313 f   libcpmt:iostream.obj
 0001:0002431d       _$E28                      1002531d f   libcpmt:iostream.obj
 0001:00024327       _$E25                      10025327 f   libcpmt:iostream.obj
 0001:00024336       _$E27                      10025336 f   libcpmt:iostream.obj
 0001:00024342       _$E26                      10025342 f   libcpmt:iostream.obj
 0001:0002434c       _$E33                      1002534c f   libcpmt:iostream.obj
 0001:00024356       _$E30                      10025356 f   libcpmt:iostream.obj
 0001:00024365       _$E32                      10025365 f   libcpmt:iostream.obj
 0001:00024371       _$E31                      10025371 f   libcpmt:iostream.obj
 0001:0002437b       _$E38                      1002537b f   libcpmt:iostream.obj
 0001:00024385       _$E35                      10025385 f   libcpmt:iostream.obj
 0001:00024392       _$E37                      10025392 f   libcpmt:iostream.obj
 0001:0002439e       _$E36                      1002539e f   libcpmt:iostream.obj
 0001:000243a8       _$E43                      100253a8 f   libcpmt:iostream.obj
 0001:000243b2       _$E40                      100253b2 f   libcpmt:iostream.obj
 0001:000243c1       _$E42                      100253c1 f   libcpmt:iostream.obj
 0001:000243cd       _$E41                      100253cd f   libcpmt:iostream.obj
 0001:000243d7       _$E48                      100253d7 f   libcpmt:iostream.obj
 0001:000243e1       _$E45                      100253e1 f   libcpmt:iostream.obj
 0001:000243f0       _$E47                      100253f0 f   libcpmt:iostream.obj
 0001:000243fc       _$E46                      100253fc f   libcpmt:iostream.obj
 0001:000247c0       _$E60                      100257c0 f   libcpmt:iostream.obj
 0001:000247ea       _$E56                      100257ea f   libcpmt:iostream.obj
 0001:000247f6       _$E59                      100257f6 f   libcpmt:iostream.obj
 0001:00024281       _$E32                      10025281 f   libcpmt:locale.obj
 0001:000242ab       _$E28                      100252ab f   libcpmt:locale.obj
 0001:000242b7       _$E31                      100252b7 f   libcpmt:locale.obj
 0001:000217dd       _$E18                      100227dd f   libcpmt:locale0.obj
 0001:000217e7       _$E15                      100227e7 f   libcpmt:locale0.obj
 0001:000217e8       _$E17                      100227e8 f   libcpmt:locale0.obj
 0001:000217f4       _$E16                      100227f4 f   libcpmt:locale0.obj
 0001:00021cab       _$E29                      10022cab f   libcpmt:locale0.obj
 0001:00021cd5       _$E25                      10022cd5 f   libcpmt:locale0.obj
 0001:00021ce1       _$E28                      10022ce1 f   libcpmt:locale0.obj
 0001:00021798       _$E24                      10022798 f   libcpmt:strstrea.obj
 0001:000217c2       _$E20                      100227c2 f   libcpmt:strstrea.obj
 0001:000217ce       _$E23                      100227ce f   libcpmt:strstrea.obj
 0001:000208b3       _$E24                      100218b3 f   libcpmt:string.obj
 0001:000208dd       _$E20                      100218dd f   libcpmt:string.obj
 0001:000208e9       _$E23                      100218e9 f   libcpmt:string.obj
 0001:0002056c       ?_CleanUp@std@@YAXXZ       1002156c f   libcpmt:xlock.obj
