 S3Relay

 Timestamp is 68828c2d (Thu Jul 24 15:40:29 2025)

 Preferred load address is 00400000

 Start         Length     Name                   Class
 0001:00000000 000cc1daH .text                   CODE
 0001:000cc1e0 00003f02H .text$x                 CODE
 0002:00000000 000002f4H .idata$5                DATA
 0002:000002f8 00004c5dH .rdata                  DATA
 0002:00004f58 000001c4H .rdata$r                DATA
 0002:00005120 00005238H .xdata$x                DATA
 0002:0000a358 0000008cH .idata$2                DATA
 0002:0000a3e4 00000014H .idata$3                DATA
 0002:0000a3f8 000002f4H .idata$4                DATA
 0002:0000a6ec 00000caaH .idata$6                DATA
 0002:0000b396 00000000H .edata                  DATA
 0003:00000000 00000004H .CRT$XCA                DATA
 0003:00000004 00000150H .CRT$XCU                DATA
 0003:00000154 00000004H .CRT$XCZ                DATA
 0003:00000158 00000004H .CRT$XIA                DATA
 0003:0000015c 0000000cH .CRT$XIC                DATA
 0003:00000168 00000004H .CRT$XIY                DATA
 0003:0000016c 00000004H .CRT$XIZ                DATA
 0003:00000170 00000004H .CRT$XPA                DATA
 0003:00000174 00000004H .CRT$XPX                DATA
 0003:00000178 00000004H .CRT$XPZ                DATA
 0003:0000017c 00000004H .CRT$XTA                DATA
 0003:00000180 00000004H .CRT$XTB                DATA
 0003:00000184 00000004H .CRT$XTZ                DATA
 0003:00000190 0000b620H .data                   DATA
 0003:0000b7b0 00203085H .bss                    DATA
 0004:00000000 00000250H .rsrc$01                DATA
 0004:00000250 000008c8H .rsrc$02                DATA

  Address         Publics by Value              Rva+Base     Lib:Object

 0001:00000000       ??0CChannelMgr@@QAE@XZ     00401000 f   ChannelMgr.obj
 0001:00000250       ??_GCChannelMgr@@UAEPAXI@Z 00401250 f i ChannelMgr.obj
 0001:00000250       ??_ECChannelMgr@@UAEPAXI@Z 00401250 f i ChannelMgr.obj
 0001:00000270       ??1?$map@KUCHANNINFO@CChannelMgr@@U?$less@K@std@@V?$allocator@UCHANNINFO@CChannelMgr@@@4@@std@@QAE@XZ 00401270 f i ChannelMgr.obj
 0001:000002e0       ??1?$map@V?$basic_string@DU?$char_traits@D@std@@V?$allocator@D@2@@std@@KU_tstring_less@@V?$allocator@K@2@@std@@QAE@XZ 004012e0 f i ChannelMgr.obj
 0001:00000350       ??1?$map@KV?$list@PAU_BLOCKCHANNELOP@CChannelMgr@@V?$allocator@PAU_BLOCKCHANNELOP@CChannelMgr@@@std@@@std@@U?$less@K@2@V?$allocator@V?$list@PAU_BLOCKCHANNELOP@CChannelMgr@@V?$allocator@PAU_BLOCKCHANNELOP@CChannelMgr@@@std@@@std@@@2@@std@@QAE@XZ 00401350 f i ChannelMgr.obj
 0001:000003c0       ??1CChannelMgr@@UAE@XZ     004013c0 f   ChannelMgr.obj
 0001:00000550       ?Initialize@CChannelMgr@@QAEHXZ 00401550 f   ChannelMgr.obj
 0001:00000d00       ?Uninitialize@CChannelMgr@@QAEHXZ 00401d00 f   ChannelMgr.obj
 0001:00000d90       ?GenChannID@CChannelMgr@@AAEKXZ 00401d90 f   ChannelMgr.obj
 0001:00000de0       ?GetChannelName@CChannelMgr@@QAE?AV?$basic_string@DU?$char_traits@D@std@@V?$allocator@D@2@@std@@KH@Z 00401de0 f   ChannelMgr.obj
 0001:00000f80       ?GetChannelID@CChannelMgr@@QAEKABV?$basic_string@DU?$char_traits@D@std@@V?$allocator@D@2@@std@@K@Z 00401f80 f   ChannelMgr.obj
 0001:00001120       ??R_tstring_less@@QBE_NABV?$basic_string@DU?$char_traits@D@std@@V?$allocator@D@2@@std@@0@Z 00402120 f i ChannelMgr.obj
 0001:00001170       ?IsSubscribed@CChannelMgr@@QAEHKKK@Z 00402170 f   ChannelMgr.obj
 0001:00001240       ?GmSubscribe@CChannelMgr@@QAEHK@Z 00402240 f   ChannelMgr.obj
 0001:000012d0       ?GmUnsubscribe@CChannelMgr@@QAEHK@Z 004022d0 f   ChannelMgr.obj
 0001:00001360       ?IsGmSubscribed@CChannelMgr@@QAEHK@Z 00402360 f   ChannelMgr.obj
 0001:000013d0       ?GmQueryChannelID@CChannelMgr@@QAEHABV?$basic_string@DU?$char_traits@D@std@@V?$allocator@D@2@@std@@H@Z 004023d0 f   ChannelMgr.obj
 0001:00001580       ?GmFreeChannID@CChannelMgr@@QAEHK@Z 00402580 f   ChannelMgr.obj
 0001:00001670       ?IsUsed@CChannelMgr@@QAEHKKK@Z 00402670 f   ChannelMgr.obj
 0001:00001750       ?IsGmUsed@CChannelMgr@@QAEHK@Z 00402750 f   ChannelMgr.obj
 0001:000017b0       ?MakeChannelName@CChannelMgr@@QAE?AV?$basic_string@DU?$char_traits@D@std@@V?$allocator@D@2@@std@@ABV23@K@Z 004027b0 f   ChannelMgr.obj
 0001:00001d60       ?ReduceChannelName@CChannelMgr@@QAE?AV?$basic_string@DU?$char_traits@D@std@@V?$allocator@D@2@@std@@ABV23@@Z 00402d60 f   ChannelMgr.obj
 0001:000020a0       ?ParseChannelName@CChannelMgr@@QAEKABV?$basic_string@DU?$char_traits@D@std@@V?$allocator@D@2@@std@@PAK@Z 004030a0 f   ChannelMgr.obj
 0001:000024a0       ?GainPreCost@CChannelMgr@@QAEEABV?$basic_string@DU?$char_traits@D@std@@V?$allocator@D@2@@std@@@Z 004034a0 f   ChannelMgr.obj
 0001:000025a0       ?GetGMChannID@CChannelMgr@@QAEKXZ 004035a0 f   ChannelMgr.obj
 0001:000025b0       ?IsGodChannel@CChannelMgr@@QAEHK@Z 004035b0 f   ChannelMgr.obj
 0001:00002610       ?IsStockChannel@CChannelMgr@@QAEHK@Z 00403610 f   ChannelMgr.obj
 0001:00002670       ?PassToSpecMan@CChannelMgr@@AAEHKKKPBXI@Z 00403670 f   ChannelMgr.obj
 0001:00002740       ??1CNetConnectDup@@UAE@XZ  00403740 f i ChannelMgr.obj
 0001:00002760       ??_GCNetConnectDup@@UAEPAXI@Z 00403760 f i ChannelMgr.obj
 0001:00002760       ??_ECNetConnectDup@@UAEPAXI@Z 00403760 f i ChannelMgr.obj
 0001:000027a0       ?PassToGroupMan@CChannelMgr@@AAEHKHABV?$list@UtagPlusSrcInfo@@V?$allocator@UtagPlusSrcInfo@@@std@@@std@@PBXI@Z 004037a0 f   ChannelMgr.obj
 0001:00002940       ?PassToGM@CChannelMgr@@AAEHPBXI@Z 00403940 f   ChannelMgr.obj
 0001:000029b0       ?IsValidTeamID@CChannelMgr@@AAEHK@Z 004039b0 f   ChannelMgr.obj
 0001:000029e0       ?IsValidFacID@CChannelMgr@@AAEHK@Z 004039e0 f   ChannelMgr.obj
 0001:00002a10       ?IsValidTongID@CChannelMgr@@AAEHK@Z 00403a10 f   ChannelMgr.obj
 0001:00002a40       ?IsValidMsgrID@CChannelMgr@@AAEHK@Z 00403a40 f   ChannelMgr.obj
 0001:00002a70       ?IsValidCrID@CChannelMgr@@AAEHK@Z 00403a70 f   ChannelMgr.obj
 0001:00002aa0       ?SomeoneChat@CChannelMgr@@QAEHKABUtagPlusSrcInfo@@PBUCHAT_SOMEONECHAT_CMD@@@Z 00403aa0 f   ChannelMgr.obj
 0001:00002dd0       ?ChannelChat@CChannelMgr@@QAEHKABUtagPlusSrcInfo@@PBUCHAT_CHANNELCHAT_CMD@@@Z 00403dd0 f   ChannelMgr.obj
 0001:00003760       ?IsNeedRelegate@CChannelMgr@@AAEHABV?$basic_string@DU?$char_traits@D@std@@V?$allocator@D@2@@std@@H@Z 00404760 f   ChannelMgr.obj
 0001:000037b0       ?QueryChannelID@CChannelMgr@@QAEHABV?$basic_string@DU?$char_traits@D@std@@V?$allocator@D@2@@std@@KKK@Z 004047b0 f   ChannelMgr.obj
 0001:000037c0       ?Subscribe@CChannelMgr@@QAEHKKK@Z 004047c0 f   ChannelMgr.obj
 0001:000037d0       ?Unsubscribe@CChannelMgr@@QAEHKKK@Z 004047d0 f   ChannelMgr.obj
 0001:000037e0       ?FreeChannID@CChannelMgr@@QAEHKKK@Z 004047e0 f   ChannelMgr.obj
 0001:000037f0       ?ClearPlayer@CChannelMgr@@QAEHKK@Z 004047f0 f   ChannelMgr.obj
 0001:00003800       ?DoBlockOp@CChannelMgr@@QAEKK@Z 00404800 f   ChannelMgr.obj
 0001:00003810       ?Block_QueryChannelID@CChannelMgr@@AAEHABV?$basic_string@DU?$char_traits@D@std@@V?$allocator@D@2@@std@@KKK@Z 00404810 f   ChannelMgr.obj
 0001:00003d10       ?Block_Subscribe@CChannelMgr@@AAEHKKK@Z 00404d10 f   ChannelMgr.obj
 0001:00003e10       ?Block_Unsubscribe@CChannelMgr@@AAEHKKK@Z 00404e10 f   ChannelMgr.obj
 0001:00003f10       ?Block_FreeChannID@CChannelMgr@@AAEHKKK@Z 00404f10 f   ChannelMgr.obj
 0001:000040c0       ?Block_ClearPlayer@CChannelMgr@@AAEHKK@Z 004050c0 f   ChannelMgr.obj
 0001:00004240       ?B_QueryChannelID@CChannelMgr@@QAEHABV?$basic_string@DU?$char_traits@D@std@@V?$allocator@D@2@@std@@KKK@Z 00405240 f   ChannelMgr.obj
 0001:00004260       ?B_Subscribe@CChannelMgr@@QAEHKKK@Z 00405260 f   ChannelMgr.obj
 0001:00004280       ?B_Unsubscribe@CChannelMgr@@QAEHKKK@Z 00405280 f   ChannelMgr.obj
 0001:000042a0       ?B_FreeChannID@CChannelMgr@@QAEHKKK@Z 004052a0 f   ChannelMgr.obj
 0001:000042c0       ?B_ClearPlayer@CChannelMgr@@QAEHKK@Z 004052c0 f   ChannelMgr.obj
 0001:000042e0       ?GetChannelCount@CChannelMgr@@QAEIXZ 004052e0 f   ChannelMgr.obj
 0001:000042f0       ?SayOnSomeone@CChannelMgr@@QAEHKKKABV?$basic_string@DU?$char_traits@D@std@@V?$allocator@D@2@@std@@0@Z 004052f0 f   ChannelMgr.obj
 0001:00004450       ?SayOnChannel@CChannelMgr@@QAEHKHABV?$basic_string@DU?$char_traits@D@std@@V?$allocator@D@2@@std@@00@Z 00405450 f   ChannelMgr.obj
 0001:00004c60       ??0?$basic_string@DU?$char_traits@D@std@@V?$allocator@D@2@@std@@QAE@ABV?$allocator@D@1@@Z 00405c60 f i ChannelMgr.obj
 0001:00004c80       ??0?$basic_string@DU?$char_traits@D@std@@V?$allocator@D@2@@std@@QAE@ABV01@@Z 00405c80 f i ChannelMgr.obj
 0001:00004da0       ??1?$basic_string@DU?$char_traits@D@std@@V?$allocator@D@2@@std@@QAE@XZ 00405da0 f i ChannelMgr.obj
 0001:00004de0       ??A?$map@KV?$map@KUPLAYERINFO@CChannelMgr@@U?$less@K@std@@V?$allocator@UPLAYERINFO@CChannelMgr@@@4@@std@@U?$less@K@2@V?$allocator@V?$map@KUPLAYERINFO@CChannelMgr@@U?$less@K@std@@V?$allocator@UPLAYERINFO@CChannelMgr@@@4@@std@@@2@@std@@QAEAAV?$map@KUPLAYERINFO@CChannelMgr@@U?$less@K@std@@V?$allocator@UPLAYERINFO@CChannelMgr@@@4@@1@ABK@Z 00405de0 f i ChannelMgr.obj
 0001:00004f70       ??A?$map@KUCHANNINFO@CChannelMgr@@U?$less@K@std@@V?$allocator@UCHANNINFO@CChannelMgr@@@4@@std@@QAEAAUCHANNINFO@CChannelMgr@@ABK@Z 00405f70 f i ChannelMgr.obj
 0001:000050d0       ??A?$map@V?$basic_string@DU?$char_traits@D@std@@V?$allocator@D@2@@std@@KU_tstring_less@@V?$allocator@K@2@@std@@QAEAAKABV?$basic_string@DU?$char_traits@D@std@@V?$allocator@D@2@@1@@Z 004060d0 f i ChannelMgr.obj
 0001:00005180       ??1?$list@UtagPlusSrcInfo@@V?$allocator@UtagPlusSrcInfo@@@std@@@std@@QAE@XZ 00406180 f i ChannelMgr.obj
 0001:000051d0       ??1?$map@KUPLAYERINFO@CChannelMgr@@U?$less@K@std@@V?$allocator@UPLAYERINFO@CChannelMgr@@@4@@std@@QAE@XZ 004061d0 f i ChannelMgr.obj
 0001:00005240       ??1?$pair@$$CBKV?$map@KUPLAYERINFO@CChannelMgr@@U?$less@K@std@@V?$allocator@UPLAYERINFO@CChannelMgr@@@4@@std@@@std@@QAE@XZ 00406240 f i ChannelMgr.obj
 0001:000052b0       ??0CHANNINFO@CChannelMgr@@QAE@XZ 004062b0 f i ChannelMgr.obj
 0001:00005390       ??1CHANNINFO@CChannelMgr@@QAE@XZ 00406390 f i ChannelMgr.obj
 0001:00005460       ??1?$pair@$$CBKUCHANNINFO@CChannelMgr@@@std@@QAE@XZ 00406460 f i ChannelMgr.obj
 0001:00005530       ??1?$pair@$$CBV?$basic_string@DU?$char_traits@D@std@@V?$allocator@D@2@@std@@K@std@@QAE@XZ 00406530 f i ChannelMgr.obj
 0001:00005570       ?append@?$basic_string@DU?$char_traits@D@std@@V?$allocator@D@2@@std@@QAEAAV12@ID@Z 00406570 f i ChannelMgr.obj
 0001:00005640       ?assign@?$basic_string@DU?$char_traits@D@std@@V?$allocator@D@2@@std@@QAEAAV12@ABV12@II@Z 00406640 f i ChannelMgr.obj
 0001:00005840       ?assign@?$basic_string@DU?$char_traits@D@std@@V?$allocator@D@2@@std@@QAEAAV12@PBDI@Z 00406840 f i ChannelMgr.obj
 0001:000058e0       ?rfind@?$basic_string@DU?$char_traits@D@std@@V?$allocator@D@2@@std@@QBEIPBDII@Z 004068e0 f i ChannelMgr.obj
 0001:00005960       ?find_last_not_of@?$basic_string@DU?$char_traits@D@std@@V?$allocator@D@2@@std@@QBEIPBDII@Z 00406960 f i ChannelMgr.obj
 0001:000059d0       ?_Freeze@?$basic_string@DU?$char_traits@D@std@@V?$allocator@D@2@@std@@AAEXXZ 004069d0 f i ChannelMgr.obj
 0001:00005a50       ?_Tidy@?$basic_string@DU?$char_traits@D@std@@V?$allocator@D@2@@std@@AAEX_N@Z 00406a50 f i ChannelMgr.obj
 0001:00005aa0       ??0?$map@KV?$map@KUPLAYERINFO@CChannelMgr@@U?$less@K@std@@V?$allocator@UPLAYERINFO@CChannelMgr@@@4@@std@@U?$less@K@2@V?$allocator@V?$map@KUPLAYERINFO@CChannelMgr@@U?$less@K@std@@V?$allocator@UPLAYERINFO@CChannelMgr@@@4@@std@@@2@@std@@QAE@ABU?$less@K@1@ABV?$allocator@V?$map@KUPLAYERINFO@CChannelMgr@@U?$less@K@std@@V?$allocator@UPLAYERINFO@CChannelMgr@@@4@@std@@@1@@Z 00406aa0 f i ChannelMgr.obj
 0001:00005b70       ?insert@?$map@KV?$map@KUPLAYERINFO@CChannelMgr@@U?$less@K@std@@V?$allocator@UPLAYERINFO@CChannelMgr@@@4@@std@@U?$less@K@2@V?$allocator@V?$map@KUPLAYERINFO@CChannelMgr@@U?$less@K@std@@V?$allocator@UPLAYERINFO@CChannelMgr@@@4@@std@@@2@@std@@QAE?AU?$pair@Viterator@?$_Tree@KU?$pair@$$CBKV?$map@KUPLAYERINFO@CChannelMgr@@U?$less@K@std@@V?$allocator@UPLAYERINFO@CChannelMgr@@@4@@std@@@std@@U_Kfn@?$map@KV?$map@KUPLAYERINFO@CChannelMgr@@U?$less@K@std@@V?$allocator@UPLAYERINFO@CChannelMgr@@@4@@std@@U?$less@K@2@V?$allocator@V?$map@KUPLAYERINFO@CChannelMgr@@U?$less@K@std@@V?$allocator@UPLAYERINFO@CChannelMgr@@@4@@std@@@2@@2@U?$less@K@2@V?$allocator@V?$map@KUPLAYERINFO@CChannelMgr@@U?$less@K@std@@V?$allocator@UPLAYERINFO@CChannelMgr@@@4@@std@@@2@@std@@_N@2@ABU?$pair@$$CBKV?$map@KUPLAYERINFO@CChannelMgr@@U?$less@K@std@@V?$allocator@UPLAYERINFO@CChannelMgr@@@4@@std@@@2@@Z 00406b70 f i ChannelMgr.obj
 0001:00005ba0       ??1?$_Tree@KU?$pair@$$CBKV?$map@KUPLAYERINFO@CChannelMgr@@U?$less@K@std@@V?$allocator@UPLAYERINFO@CChannelMgr@@@4@@std@@@std@@U_Kfn@?$map@KV?$map@KUPLAYERINFO@CChannelMgr@@U?$less@K@std@@V?$allocator@UPLAYERINFO@CChannelMgr@@@4@@std@@U?$less@K@2@V?$allocator@V?$map@KUPLAYERINFO@CChannelMgr@@U?$less@K@std@@V?$allocator@UPLAYERINFO@CChannelMgr@@@4@@std@@@2@@2@U?$less@K@2@V?$allocator@V?$map@KUPLAYERINFO@CChannelMgr@@U?$less@K@std@@V?$allocator@UPLAYERINFO@CChannelMgr@@@4@@std@@@2@@std@@QAE@XZ 00406ba0 f i ChannelMgr.obj
 0001:00005c10       ?erase@?$_Tree@KU?$pair@$$CBKV?$map@KUPLAYERINFO@CChannelMgr@@U?$less@K@std@@V?$allocator@UPLAYERINFO@CChannelMgr@@@4@@std@@@std@@U_Kfn@?$map@KV?$map@KUPLAYERINFO@CChannelMgr@@U?$less@K@std@@V?$allocator@UPLAYERINFO@CChannelMgr@@@4@@std@@U?$less@K@2@V?$allocator@V?$map@KUPLAYERINFO@CChannelMgr@@U?$less@K@std@@V?$allocator@UPLAYERINFO@CChannelMgr@@@4@@std@@@2@@2@U?$less@K@2@V?$allocator@V?$map@KUPLAYERINFO@CChannelMgr@@U?$less@K@std@@V?$allocator@UPLAYERINFO@CChannelMgr@@@4@@std@@@2@@std@@QAE?AViterator@12@V312@@Z 00406c10 f i ChannelMgr.obj
 0001:00006190       ?find@?$_Tree@KU?$pair@$$CBKV?$map@KUPLAYERINFO@CChannelMgr@@U?$less@K@std@@V?$allocator@UPLAYERINFO@CChannelMgr@@@4@@std@@@std@@U_Kfn@?$map@KV?$map@KUPLAYERINFO@CChannelMgr@@U?$less@K@std@@V?$allocator@UPLAYERINFO@CChannelMgr@@@4@@std@@U?$less@K@2@V?$allocator@V?$map@KUPLAYERINFO@CChannelMgr@@U?$less@K@std@@V?$allocator@UPLAYERINFO@CChannelMgr@@@4@@std@@@2@@2@U?$less@K@2@V?$allocator@V?$map@KUPLAYERINFO@CChannelMgr@@U?$less@K@std@@V?$allocator@UPLAYERINFO@CChannelMgr@@@4@@std@@@2@@std@@QAE?AViterator@12@ABK@Z 00407190 f i ChannelMgr.obj
 0001:000061e0       ??0?$pair@$$CBKV?$map@KUPLAYERINFO@CChannelMgr@@U?$less@K@std@@V?$allocator@UPLAYERINFO@CChannelMgr@@@4@@std@@@std@@QAE@ABKABV?$map@KUPLAYERINFO@CChannelMgr@@U?$less@K@std@@V?$allocator@UPLAYERINFO@CChannelMgr@@@4@@1@@Z 004071e0 f i ChannelMgr.obj
 0001:000063f0       ??1?$_Tree@KU?$pair@$$CBKUPLAYERINFO@CChannelMgr@@@std@@U_Kfn@?$map@KUPLAYERINFO@CChannelMgr@@U?$less@K@std@@V?$allocator@UPLAYERINFO@CChannelMgr@@@4@@2@U?$less@K@2@V?$allocator@UPLAYERINFO@CChannelMgr@@@2@@std@@QAE@XZ 004073f0 f i ChannelMgr.obj
 0001:00006460       ?begin@?$_Tree@KU?$pair@$$CBKUPLAYERINFO@CChannelMgr@@@std@@U_Kfn@?$map@KUPLAYERINFO@CChannelMgr@@U?$less@K@std@@V?$allocator@UPLAYERINFO@CChannelMgr@@@4@@2@U?$less@K@2@V?$allocator@UPLAYERINFO@CChannelMgr@@@2@@std@@QAE?AViterator@12@XZ 00407460 f i ChannelMgr.obj
 0001:00006470       ?insert@?$map@KUCHANNINFO@CChannelMgr@@U?$less@K@std@@V?$allocator@UCHANNINFO@CChannelMgr@@@4@@std@@QAE?AU?$pair@Viterator@?$_Tree@KU?$pair@$$CBKUCHANNINFO@CChannelMgr@@@std@@U_Kfn@?$map@KUCHANNINFO@CChannelMgr@@U?$less@K@std@@V?$allocator@UCHANNINFO@CChannelMgr@@@4@@2@U?$less@K@2@V?$allocator@UCHANNINFO@CChannelMgr@@@2@@std@@_N@2@ABU?$pair@$$CBKUCHANNINFO@CChannelMgr@@@2@@Z 00407470 f i ChannelMgr.obj
 0001:000064a0       ?erase@?$_Tree@KU?$pair@$$CBKUCHANNINFO@CChannelMgr@@@std@@U_Kfn@?$map@KUCHANNINFO@CChannelMgr@@U?$less@K@std@@V?$allocator@UCHANNINFO@CChannelMgr@@@4@@2@U?$less@K@2@V?$allocator@UCHANNINFO@CChannelMgr@@@2@@std@@QAE?AViterator@12@V312@@Z 004074a0 f i ChannelMgr.obj
 0001:00006a90       ?erase@?$_Tree@KU?$pair@$$CBKUCHANNINFO@CChannelMgr@@@std@@U_Kfn@?$map@KUCHANNINFO@CChannelMgr@@U?$less@K@std@@V?$allocator@UCHANNINFO@CChannelMgr@@@4@@2@U?$less@K@2@V?$allocator@UCHANNINFO@CChannelMgr@@@2@@std@@QAE?AViterator@12@V312@0@Z 00407a90 f i ChannelMgr.obj
 0001:00006bd0       ?find@?$_Tree@KU?$pair@$$CBKUCHANNINFO@CChannelMgr@@@std@@U_Kfn@?$map@KUCHANNINFO@CChannelMgr@@U?$less@K@std@@V?$allocator@UCHANNINFO@CChannelMgr@@@4@@2@U?$less@K@2@V?$allocator@UCHANNINFO@CChannelMgr@@@2@@std@@QAE?AViterator@12@ABK@Z 00407bd0 f i ChannelMgr.obj
 0001:00006c20       ??0?$pair@$$CBKUCHANNINFO@CChannelMgr@@@std@@QAE@ABKABUCHANNINFO@CChannelMgr@@@Z 00407c20 f i ChannelMgr.obj
 0001:00006dc0       ?insert@?$map@V?$basic_string@DU?$char_traits@D@std@@V?$allocator@D@2@@std@@KU_tstring_less@@V?$allocator@K@2@@std@@QAE?AU?$pair@Viterator@?$_Tree@V?$basic_string@DU?$char_traits@D@std@@V?$allocator@D@2@@std@@U?$pair@$$CBV?$basic_string@DU?$char_traits@D@std@@V?$allocator@D@2@@std@@K@2@U_Kfn@?$map@V?$basic_string@DU?$char_traits@D@std@@V?$allocator@D@2@@std@@KU_tstring_less@@V?$allocator@K@2@@2@U_tstring_less@@V?$allocator@K@2@@std@@_N@2@ABU?$pair@$$CBV?$basic_string@DU?$char_traits@D@std@@V?$allocator@D@2@@std@@K@2@@Z 00407dc0 f i ChannelMgr.obj
 0001:00006df0       ?erase@?$_Tree@V?$basic_string@DU?$char_traits@D@std@@V?$allocator@D@2@@std@@U?$pair@$$CBV?$basic_string@DU?$char_traits@D@std@@V?$allocator@D@2@@std@@K@2@U_Kfn@?$map@V?$basic_string@DU?$char_traits@D@std@@V?$allocator@D@2@@std@@KU_tstring_less@@V?$allocator@K@2@@2@U_tstring_less@@V?$allocator@K@2@@std@@QAE?AViterator@12@V312@0@Z 00407df0 f i ChannelMgr.obj
 0001:00006f30       ?find@?$_Tree@V?$basic_string@DU?$char_traits@D@std@@V?$allocator@D@2@@std@@U?$pair@$$CBV?$basic_string@DU?$char_traits@D@std@@V?$allocator@D@2@@std@@K@2@U_Kfn@?$map@V?$basic_string@DU?$char_traits@D@std@@V?$allocator@D@2@@std@@KU_tstring_less@@V?$allocator@K@2@@2@U_tstring_less@@V?$allocator@K@2@@std@@QAE?AViterator@12@ABV?$basic_string@DU?$char_traits@D@std@@V?$allocator@D@2@@2@@Z 00407f30 f i ChannelMgr.obj
 0001:00006fb0       ?erase@?$_Tree@KU?$pair@$$CBKV?$list@PAU_BLOCKCHANNELOP@CChannelMgr@@V?$allocator@PAU_BLOCKCHANNELOP@CChannelMgr@@@std@@@std@@@std@@U_Kfn@?$map@KV?$list@PAU_BLOCKCHANNELOP@CChannelMgr@@V?$allocator@PAU_BLOCKCHANNELOP@CChannelMgr@@@std@@@std@@U?$less@K@2@V?$allocator@V?$list@PAU_BLOCKCHANNELOP@CChannelMgr@@V?$allocator@PAU_BLOCKCHANNELOP@CChannelMgr@@@std@@@std@@@2@@2@U?$less@K@2@V?$allocator@V?$list@PAU_BLOCKCHANNELOP@CChannelMgr@@V?$allocator@PAU_BLOCKCHANNELOP@CChannelMgr@@@std@@@std@@@2@@std@@QAE?AViterator@12@V312@0@Z 00407fb0 f i ChannelMgr.obj
 0001:000070f0       ??1?$list@PAU_BLOCKCHANNELOP@CChannelMgr@@V?$allocator@PAU_BLOCKCHANNELOP@CChannelMgr@@@std@@@std@@QAE@XZ 004080f0 f i ChannelMgr.obj
 0001:00007140       ??0CHANNINFO@CChannelMgr@@QAE@ABU01@@Z 00408140 f i ChannelMgr.obj
 0001:00007310       ??0?$map@KV?$map@KUPLAYERINFO@CChannelMgr@@U?$less@K@std@@V?$allocator@UPLAYERINFO@CChannelMgr@@@4@@std@@U?$less@K@2@V?$allocator@V?$map@KUPLAYERINFO@CChannelMgr@@U?$less@K@std@@V?$allocator@UPLAYERINFO@CChannelMgr@@@4@@std@@@2@@std@@QAE@ABV01@@Z 00408310 f i ChannelMgr.obj
 0001:00007510       ?append@?$basic_string@DU?$char_traits@D@std@@V?$allocator@D@2@@std@@QAEAAV12@PBDI@Z 00408510 f i ChannelMgr.obj
 0001:000075d0       ?erase@?$basic_string@DU?$char_traits@D@std@@V?$allocator@D@2@@std@@QAEAAV12@II@Z 004085d0 f i ChannelMgr.obj
 0001:000076f0       ?_Eos@?$basic_string@DU?$char_traits@D@std@@V?$allocator@D@2@@std@@AAEXI@Z 004086f0 f i ChannelMgr.obj
 0001:00007710       ?_Grow@?$basic_string@DU?$char_traits@D@std@@V?$allocator@D@2@@std@@AAE_NI_N@Z 00408710 f i ChannelMgr.obj
 0001:00007830       ??0?$_Tree@KU?$pair@$$CBKV?$map@KUPLAYERINFO@CChannelMgr@@U?$less@K@std@@V?$allocator@UPLAYERINFO@CChannelMgr@@@4@@std@@@std@@U_Kfn@?$map@KV?$map@KUPLAYERINFO@CChannelMgr@@U?$less@K@std@@V?$allocator@UPLAYERINFO@CChannelMgr@@@4@@std@@U?$less@K@2@V?$allocator@V?$map@KUPLAYERINFO@CChannelMgr@@U?$less@K@std@@V?$allocator@UPLAYERINFO@CChannelMgr@@@4@@std@@@2@@2@U?$less@K@2@V?$allocator@V?$map@KUPLAYERINFO@CChannelMgr@@U?$less@K@std@@V?$allocator@UPLAYERINFO@CChannelMgr@@@4@@std@@@2@@std@@QAE@ABU?$less@K@1@_NABV?$allocator@V?$map@KUPLAYERINFO@CChannelMgr@@U?$less@K@std@@V?$allocator@UPLAYERINFO@CChannelMgr@@@4@@std@@@1@@Z 00408830 f i ChannelMgr.obj
 0001:00007860       ?insert@?$_Tree@KU?$pair@$$CBKV?$map@KUPLAYERINFO@CChannelMgr@@U?$less@K@std@@V?$allocator@UPLAYERINFO@CChannelMgr@@@4@@std@@@std@@U_Kfn@?$map@KV?$map@KUPLAYERINFO@CChannelMgr@@U?$less@K@std@@V?$allocator@UPLAYERINFO@CChannelMgr@@@4@@std@@U?$less@K@2@V?$allocator@V?$map@KUPLAYERINFO@CChannelMgr@@U?$less@K@std@@V?$allocator@UPLAYERINFO@CChannelMgr@@@4@@std@@@2@@2@U?$less@K@2@V?$allocator@V?$map@KUPLAYERINFO@CChannelMgr@@U?$less@K@std@@V?$allocator@UPLAYERINFO@CChannelMgr@@@4@@std@@@2@@std@@QAE?AU?$pair@Viterator@?$_Tree@KU?$pair@$$CBKV?$map@KUPLAYERINFO@CChannelMgr@@U?$less@K@std@@V?$allocator@UPLAYERINFO@CChannelMgr@@@4@@std@@@std@@U_Kfn@?$map@KV?$map@KUPLAYERINFO@CChannelMgr@@U?$less@K@std@@V?$allocator@UPLAYERINFO@CChannelMgr@@@4@@std@@U?$less@K@2@V?$allocator@V?$map@KUPLAYERINFO@CChannelMgr@@U?$less@K@std@@V?$allocator@UPLAYERINFO@CChannelMgr@@@4@@std@@@2@@2@U?$less@K@2@V?$allocator@V?$map@KUPLAYERINFO@CChannelMgr@@U?$less@K@std@@V?$allocator@UPLAYERINFO@CChannelMgr@@@4@@std@@@2@@std@@_N@2@ABU?$pair@$$CBKV?$map@KUPLAYERINFO@CChannelMgr@@U?$less@K@std@@V?$allocator@UPLAYERINFO@CChannelMgr@@@4@@std@@@2@@Z 00408860 f i ChannelMgr.obj
 0001:00007990       ?erase@?$_Tree@KU?$pair@$$CBKV?$map@KUPLAYERINFO@CChannelMgr@@U?$less@K@std@@V?$allocator@UPLAYERINFO@CChannelMgr@@@4@@std@@@std@@U_Kfn@?$map@KV?$map@KUPLAYERINFO@CChannelMgr@@U?$less@K@std@@V?$allocator@UPLAYERINFO@CChannelMgr@@@4@@std@@U?$less@K@2@V?$allocator@V?$map@KUPLAYERINFO@CChannelMgr@@U?$less@K@std@@V?$allocator@UPLAYERINFO@CChannelMgr@@@4@@std@@@2@@2@U?$less@K@2@V?$allocator@V?$map@KUPLAYERINFO@CChannelMgr@@U?$less@K@std@@V?$allocator@UPLAYERINFO@CChannelMgr@@@4@@std@@@2@@std@@QAE?AViterator@12@V312@0@Z 00408990 f i ChannelMgr.obj
 0001:00007ad0       ?lower_bound@?$_Tree@KU?$pair@$$CBKV?$map@KUPLAYERINFO@CChannelMgr@@U?$less@K@std@@V?$allocator@UPLAYERINFO@CChannelMgr@@@4@@std@@@std@@U_Kfn@?$map@KV?$map@KUPLAYERINFO@CChannelMgr@@U?$less@K@std@@V?$allocator@UPLAYERINFO@CChannelMgr@@@4@@std@@U?$less@K@2@V?$allocator@V?$map@KUPLAYERINFO@CChannelMgr@@U?$less@K@std@@V?$allocator@UPLAYERINFO@CChannelMgr@@@4@@std@@@2@@2@U?$less@K@2@V?$allocator@V?$map@KUPLAYERINFO@CChannelMgr@@U?$less@K@std@@V?$allocator@UPLAYERINFO@CChannelMgr@@@4@@std@@@2@@std@@QAE?AViterator@12@ABK@Z 00408ad0 f i ChannelMgr.obj
 0001:00007af0       ?_Lmost@?$_Tree@KU?$pair@$$CBKV?$map@KUPLAYERINFO@CChannelMgr@@U?$less@K@std@@V?$allocator@UPLAYERINFO@CChannelMgr@@@4@@std@@@std@@U_Kfn@?$map@KV?$map@KUPLAYERINFO@CChannelMgr@@U?$less@K@std@@V?$allocator@UPLAYERINFO@CChannelMgr@@@4@@std@@U?$less@K@2@V?$allocator@V?$map@KUPLAYERINFO@CChannelMgr@@U?$less@K@std@@V?$allocator@UPLAYERINFO@CChannelMgr@@@4@@std@@@2@@2@U?$less@K@2@V?$allocator@V?$map@KUPLAYERINFO@CChannelMgr@@U?$less@K@std@@V?$allocator@UPLAYERINFO@CChannelMgr@@@4@@std@@@2@@std@@IAEAAPAU_Node@12@XZ 00408af0 f i ChannelMgr.obj
 0001:00007b00       ?_Max@?$_Tree@KU?$pair@$$CBKV?$map@KUPLAYERINFO@CChannelMgr@@U?$less@K@std@@V?$allocator@UPLAYERINFO@CChannelMgr@@@4@@std@@@std@@U_Kfn@?$map@KV?$map@KUPLAYERINFO@CChannelMgr@@U?$less@K@std@@V?$allocator@UPLAYERINFO@CChannelMgr@@@4@@std@@U?$less@K@2@V?$allocator@V?$map@KUPLAYERINFO@CChannelMgr@@U?$less@K@std@@V?$allocator@UPLAYERINFO@CChannelMgr@@@4@@std@@@2@@2@U?$less@K@2@V?$allocator@V?$map@KUPLAYERINFO@CChannelMgr@@U?$less@K@std@@V?$allocator@UPLAYERINFO@CChannelMgr@@@4@@std@@@2@@std@@KAPAU_Node@12@PAU312@@Z 00408b00 f i ChannelMgr.obj
 0001:00007b40       ?_Min@?$_Tree@KU?$pair@$$CBKV?$map@KUPLAYERINFO@CChannelMgr@@U?$less@K@std@@V?$allocator@UPLAYERINFO@CChannelMgr@@@4@@std@@@std@@U_Kfn@?$map@KV?$map@KUPLAYERINFO@CChannelMgr@@U?$less@K@std@@V?$allocator@UPLAYERINFO@CChannelMgr@@@4@@std@@U?$less@K@2@V?$allocator@V?$map@KUPLAYERINFO@CChannelMgr@@U?$less@K@std@@V?$allocator@UPLAYERINFO@CChannelMgr@@@4@@std@@@2@@2@U?$less@K@2@V?$allocator@V?$map@KUPLAYERINFO@CChannelMgr@@U?$less@K@std@@V?$allocator@UPLAYERINFO@CChannelMgr@@@4@@std@@@2@@std@@KAPAU_Node@12@PAU312@@Z 00408b40 f i ChannelMgr.obj
 0001:00007b80       ??0?$_Tree@KU?$pair@$$CBKUPLAYERINFO@CChannelMgr@@@std@@U_Kfn@?$map@KUPLAYERINFO@CChannelMgr@@U?$less@K@std@@V?$allocator@UPLAYERINFO@CChannelMgr@@@4@@2@U?$less@K@2@V?$allocator@UPLAYERINFO@CChannelMgr@@@2@@std@@QAE@ABU?$less@K@1@_NABV?$allocator@UPLAYERINFO@CChannelMgr@@@1@@Z 00408b80 f i ChannelMgr.obj
 0001:00007bb0       ?insert@?$_Tree@KU?$pair@$$CBKUPLAYERINFO@CChannelMgr@@@std@@U_Kfn@?$map@KUPLAYERINFO@CChannelMgr@@U?$less@K@std@@V?$allocator@UPLAYERINFO@CChannelMgr@@@4@@2@U?$less@K@2@V?$allocator@UPLAYERINFO@CChannelMgr@@@2@@std@@QAE?AU?$pair@Viterator@?$_Tree@KU?$pair@$$CBKUPLAYERINFO@CChannelMgr@@@std@@U_Kfn@?$map@KUPLAYERINFO@CChannelMgr@@U?$less@K@std@@V?$allocator@UPLAYERINFO@CChannelMgr@@@4@@2@U?$less@K@2@V?$allocator@UPLAYERINFO@CChannelMgr@@@2@@std@@_N@2@ABU?$pair@$$CBKUPLAYERINFO@CChannelMgr@@@2@@Z 00408bb0 f i ChannelMgr.obj
 0001:00007ce0       ?erase@?$_Tree@KU?$pair@$$CBKUPLAYERINFO@CChannelMgr@@@std@@U_Kfn@?$map@KUPLAYERINFO@CChannelMgr@@U?$less@K@std@@V?$allocator@UPLAYERINFO@CChannelMgr@@@4@@2@U?$less@K@2@V?$allocator@UPLAYERINFO@CChannelMgr@@@2@@std@@QAE?AViterator@12@V312@0@Z 00408ce0 f i ChannelMgr.obj
 0001:00007e10       ?equal_range@?$_Tree@KU?$pair@$$CBKUPLAYERINFO@CChannelMgr@@@std@@U_Kfn@?$map@KUPLAYERINFO@CChannelMgr@@U?$less@K@std@@V?$allocator@UPLAYERINFO@CChannelMgr@@@4@@2@U?$less@K@2@V?$allocator@UPLAYERINFO@CChannelMgr@@@2@@std@@QAE?AU?$pair@Viterator@?$_Tree@KU?$pair@$$CBKUPLAYERINFO@CChannelMgr@@@std@@U_Kfn@?$map@KUPLAYERINFO@CChannelMgr@@U?$less@K@std@@V?$allocator@UPLAYERINFO@CChannelMgr@@@4@@2@U?$less@K@2@V?$allocator@UPLAYERINFO@CChannelMgr@@@2@@std@@V123@@2@ABK@Z 00408e10 f i ChannelMgr.obj
 0001:00007e40       ?_Inc@const_iterator@?$_Tree@KU?$pair@$$CBKUPLAYERINFO@CChannelMgr@@@std@@U_Kfn@?$map@KUPLAYERINFO@CChannelMgr@@U?$less@K@std@@V?$allocator@UPLAYERINFO@CChannelMgr@@@4@@2@U?$less@K@2@V?$allocator@UPLAYERINFO@CChannelMgr@@@2@@std@@QAEXXZ 00408e40 f i ChannelMgr.obj
 0001:00007ef0       ?_Inc@const_iterator@?$_Tree@KU?$pair@$$CBKV?$map@KUPLAYERINFO@CChannelMgr@@U?$less@K@std@@V?$allocator@UPLAYERINFO@CChannelMgr@@@4@@std@@@std@@U_Kfn@?$map@KV?$map@KUPLAYERINFO@CChannelMgr@@U?$less@K@std@@V?$allocator@UPLAYERINFO@CChannelMgr@@@4@@std@@U?$less@K@2@V?$allocator@V?$map@KUPLAYERINFO@CChannelMgr@@U?$less@K@std@@V?$allocator@UPLAYERINFO@CChannelMgr@@@4@@std@@@2@@2@U?$less@K@2@V?$allocator@V?$map@KUPLAYERINFO@CChannelMgr@@U?$less@K@std@@V?$allocator@UPLAYERINFO@CChannelMgr@@@4@@std@@@2@@std@@QAEXXZ 00408ef0 f i ChannelMgr.obj
 0001:00007fa0       ??0iterator@?$_Tree@KU?$pair@$$CBKV?$map@KUPLAYERINFO@CChannelMgr@@U?$less@K@std@@V?$allocator@UPLAYERINFO@CChannelMgr@@@4@@std@@@std@@U_Kfn@?$map@KV?$map@KUPLAYERINFO@CChannelMgr@@U?$less@K@std@@V?$allocator@UPLAYERINFO@CChannelMgr@@@4@@std@@U?$less@K@2@V?$allocator@V?$map@KUPLAYERINFO@CChannelMgr@@U?$less@K@std@@V?$allocator@UPLAYERINFO@CChannelMgr@@@4@@std@@@2@@2@U?$less@K@2@V?$allocator@V?$map@KUPLAYERINFO@CChannelMgr@@U?$less@K@std@@V?$allocator@UPLAYERINFO@CChannelMgr@@@4@@std@@@2@@std@@QAE@PAU_Node@12@@Z 00408fa0 f i ChannelMgr.obj
 0001:00007fb0       ?insert@?$_Tree@KU?$pair@$$CBKUCHANNINFO@CChannelMgr@@@std@@U_Kfn@?$map@KUCHANNINFO@CChannelMgr@@U?$less@K@std@@V?$allocator@UCHANNINFO@CChannelMgr@@@4@@2@U?$less@K@2@V?$allocator@UCHANNINFO@CChannelMgr@@@2@@std@@QAE?AU?$pair@Viterator@?$_Tree@KU?$pair@$$CBKUCHANNINFO@CChannelMgr@@@std@@U_Kfn@?$map@KUCHANNINFO@CChannelMgr@@U?$less@K@std@@V?$allocator@UCHANNINFO@CChannelMgr@@@4@@2@U?$less@K@2@V?$allocator@UCHANNINFO@CChannelMgr@@@2@@std@@_N@2@ABU?$pair@$$CBKUCHANNINFO@CChannelMgr@@@2@@Z 00408fb0 f i ChannelMgr.obj
 0001:000080e0       ?lower_bound@?$_Tree@KU?$pair@$$CBKUCHANNINFO@CChannelMgr@@@std@@U_Kfn@?$map@KUCHANNINFO@CChannelMgr@@U?$less@K@std@@V?$allocator@UCHANNINFO@CChannelMgr@@@4@@2@U?$less@K@2@V?$allocator@UCHANNINFO@CChannelMgr@@@2@@std@@QAE?AViterator@12@ABK@Z 004090e0 f i ChannelMgr.obj
 0001:00008100       ?_Erase@?$_Tree@KU?$pair@$$CBKUCHANNINFO@CChannelMgr@@@std@@U_Kfn@?$map@KUCHANNINFO@CChannelMgr@@U?$less@K@std@@V?$allocator@UCHANNINFO@CChannelMgr@@@4@@2@U?$less@K@2@V?$allocator@UCHANNINFO@CChannelMgr@@@2@@std@@IAEXPAU_Node@12@@Z 00409100 f i ChannelMgr.obj
 0001:00008270       ?_Inc@const_iterator@?$_Tree@KU?$pair@$$CBKUCHANNINFO@CChannelMgr@@@std@@U_Kfn@?$map@KUCHANNINFO@CChannelMgr@@U?$less@K@std@@V?$allocator@UCHANNINFO@CChannelMgr@@@4@@2@U?$less@K@2@V?$allocator@UCHANNINFO@CChannelMgr@@@2@@std@@QAEXXZ 00409270 f i ChannelMgr.obj
 0001:00008320       ?insert@?$_Tree@V?$basic_string@DU?$char_traits@D@std@@V?$allocator@D@2@@std@@U?$pair@$$CBV?$basic_string@DU?$char_traits@D@std@@V?$allocator@D@2@@std@@K@2@U_Kfn@?$map@V?$basic_string@DU?$char_traits@D@std@@V?$allocator@D@2@@std@@KU_tstring_less@@V?$allocator@K@2@@2@U_tstring_less@@V?$allocator@K@2@@std@@QAE?AU?$pair@Viterator@?$_Tree@V?$basic_string@DU?$char_traits@D@std@@V?$allocator@D@2@@std@@U?$pair@$$CBV?$basic_string@DU?$char_traits@D@std@@V?$allocator@D@2@@std@@K@2@U_Kfn@?$map@V?$basic_string@DU?$char_traits@D@std@@V?$allocator@D@2@@std@@KU_tstring_less@@V?$allocator@K@2@@2@U_tstring_less@@V?$allocator@K@2@@std@@_N@2@ABU?$pair@$$CBV?$basic_string@DU?$char_traits@D@std@@V?$allocator@D@2@@std@@K@2@@Z 00409320 f i ChannelMgr.obj
 0001:000084a0       ?erase@?$_Tree@V?$basic_string@DU?$char_traits@D@std@@V?$allocator@D@2@@std@@U?$pair@$$CBV?$basic_string@DU?$char_traits@D@std@@V?$allocator@D@2@@std@@K@2@U_Kfn@?$map@V?$basic_string@DU?$char_traits@D@std@@V?$allocator@D@2@@std@@KU_tstring_less@@V?$allocator@K@2@@2@U_tstring_less@@V?$allocator@K@2@@std@@QAE?AViterator@12@V312@@Z 004094a0 f i ChannelMgr.obj
 0001:000089d0       ?lower_bound@?$_Tree@V?$basic_string@DU?$char_traits@D@std@@V?$allocator@D@2@@std@@U?$pair@$$CBV?$basic_string@DU?$char_traits@D@std@@V?$allocator@D@2@@std@@K@2@U_Kfn@?$map@V?$basic_string@DU?$char_traits@D@std@@V?$allocator@D@2@@std@@KU_tstring_less@@V?$allocator@K@2@@2@U_tstring_less@@V?$allocator@K@2@@std@@QAE?AViterator@12@ABV?$basic_string@DU?$char_traits@D@std@@V?$allocator@D@2@@2@@Z 004099d0 f i ChannelMgr.obj
 0001:000089f0       ?_Erase@?$_Tree@V?$basic_string@DU?$char_traits@D@std@@V?$allocator@D@2@@std@@U?$pair@$$CBV?$basic_string@DU?$char_traits@D@std@@V?$allocator@D@2@@std@@K@2@U_Kfn@?$map@V?$basic_string@DU?$char_traits@D@std@@V?$allocator@D@2@@std@@KU_tstring_less@@V?$allocator@K@2@@2@U_tstring_less@@V?$allocator@K@2@@std@@IAEXPAU_Node@12@@Z 004099f0 f i ChannelMgr.obj
 0001:00008aa0       ?erase@?$_Tree@KU?$pair@$$CBKV?$list@PAU_BLOCKCHANNELOP@CChannelMgr@@V?$allocator@PAU_BLOCKCHANNELOP@CChannelMgr@@@std@@@std@@@std@@U_Kfn@?$map@KV?$list@PAU_BLOCKCHANNELOP@CChannelMgr@@V?$allocator@PAU_BLOCKCHANNELOP@CChannelMgr@@@std@@@std@@U?$less@K@2@V?$allocator@V?$list@PAU_BLOCKCHANNELOP@CChannelMgr@@V?$allocator@PAU_BLOCKCHANNELOP@CChannelMgr@@@std@@@std@@@2@@2@U?$less@K@2@V?$allocator@V?$list@PAU_BLOCKCHANNELOP@CChannelMgr@@V?$allocator@PAU_BLOCKCHANNELOP@CChannelMgr@@@std@@@std@@@2@@std@@QAE?AViterator@12@V312@@Z 00409aa0 f i ChannelMgr.obj
 0001:00008fe0       ?_Next@_Acc@?$list@PAU_BLOCKCHANNELOP@CChannelMgr@@V?$allocator@PAU_BLOCKCHANNELOP@CChannelMgr@@@std@@@std@@SAAAPAU_Node@23@PAU423@@Z 00409fe0 f i ChannelMgr.obj
 0001:00008ff0       ?_Erase@?$_Tree@KU?$pair@$$CBKV?$list@PAU_BLOCKCHANNELOP@CChannelMgr@@V?$allocator@PAU_BLOCKCHANNELOP@CChannelMgr@@@std@@@std@@@std@@U_Kfn@?$map@KV?$list@PAU_BLOCKCHANNELOP@CChannelMgr@@V?$allocator@PAU_BLOCKCHANNELOP@CChannelMgr@@@std@@@std@@U?$less@K@2@V?$allocator@V?$list@PAU_BLOCKCHANNELOP@CChannelMgr@@V?$allocator@PAU_BLOCKCHANNELOP@CChannelMgr@@@std@@@std@@@2@@2@U?$less@K@2@V?$allocator@V?$list@PAU_BLOCKCHANNELOP@CChannelMgr@@V?$allocator@PAU_BLOCKCHANNELOP@CChannelMgr@@@std@@@std@@@2@@std@@IAEXPAU_Node@12@@Z 00409ff0 f i ChannelMgr.obj
 0001:000090d0       ?_Inc@const_iterator@?$_Tree@KU?$pair@$$CBKV?$list@PAU_BLOCKCHANNELOP@CChannelMgr@@V?$allocator@PAU_BLOCKCHANNELOP@CChannelMgr@@@std@@@std@@@std@@U_Kfn@?$map@KV?$list@PAU_BLOCKCHANNELOP@CChannelMgr@@V?$allocator@PAU_BLOCKCHANNELOP@CChannelMgr@@@std@@@std@@U?$less@K@2@V?$allocator@V?$list@PAU_BLOCKCHANNELOP@CChannelMgr@@V?$allocator@PAU_BLOCKCHANNELOP@CChannelMgr@@@std@@@std@@@2@@2@U?$less@K@2@V?$allocator@V?$list@PAU_BLOCKCHANNELOP@CChannelMgr@@V?$allocator@PAU_BLOCKCHANNELOP@CChannelMgr@@@std@@@std@@@2@@std@@QAEXXZ 0040a0d0 f i ChannelMgr.obj
 0001:00009180       ??0?$pair@Viterator@?$_Tree@KU?$pair@$$CBKUPLAYERINFO@CChannelMgr@@@std@@U_Kfn@?$map@KUPLAYERINFO@CChannelMgr@@U?$less@K@std@@V?$allocator@UPLAYERINFO@CChannelMgr@@@4@@2@U?$less@K@2@V?$allocator@UPLAYERINFO@CChannelMgr@@@2@@std@@_N@std@@QAE@ABViterator@?$_Tree@KU?$pair@$$CBKUPLAYERINFO@CChannelMgr@@@std@@U_Kfn@?$map@KUPLAYERINFO@CChannelMgr@@U?$less@K@std@@V?$allocator@UPLAYERINFO@CChannelMgr@@@4@@2@U?$less@K@2@V?$allocator@UPLAYERINFO@CChannelMgr@@@2@@1@AB_N@Z 0040a180 f i ChannelMgr.obj
 0001:000091a0       ??0?$pair@Viterator@?$_Tree@V?$basic_string@DU?$char_traits@D@std@@V?$allocator@D@2@@std@@U?$pair@$$CBV?$basic_string@DU?$char_traits@D@std@@V?$allocator@D@2@@std@@K@2@U_Kfn@?$map@V?$basic_string@DU?$char_traits@D@std@@V?$allocator@D@2@@std@@KU_tstring_less@@V?$allocator@K@2@@2@U_tstring_less@@V?$allocator@K@2@@std@@_N@std@@QAE@ABViterator@?$_Tree@V?$basic_string@DU?$char_traits@D@std@@V?$allocator@D@2@@std@@U?$pair@$$CBV?$basic_string@DU?$char_traits@D@std@@V?$allocator@D@2@@std@@K@2@U_Kfn@?$map@V?$basic_string@DU?$char_traits@D@std@@V?$allocator@D@2@@std@@KU_tstring_less@@V?$allocator@K@2@@2@U_tstring_less@@V?$allocator@K@2@@1@AB_N@Z 0040a1a0 f i ChannelMgr.obj
 0001:000091c0       ?max_size@?$basic_string@DU?$char_traits@D@std@@V?$allocator@D@2@@std@@QBEIXZ 0040a1c0 f i ChannelMgr.obj
 0001:000091d0       ?_Copy@?$basic_string@DU?$char_traits@D@std@@V?$allocator@D@2@@std@@AAEXI@Z 0040a1d0 f i ChannelMgr.obj
 0001:000092e0       ?_Split@?$basic_string@DU?$char_traits@D@std@@V?$allocator@D@2@@std@@AAEXXZ 0040a2e0 f i ChannelMgr.obj
 0001:000093b0       ?deallocate@?$allocator@V?$map@KUPLAYERINFO@CChannelMgr@@U?$less@K@std@@V?$allocator@UPLAYERINFO@CChannelMgr@@@4@@std@@@std@@QAEXPAXI@Z 0040a3b0 f i ChannelMgr.obj
 0001:000093c0       ?_Copy@?$_Tree@KU?$pair@$$CBKV?$map@KUPLAYERINFO@CChannelMgr@@U?$less@K@std@@V?$allocator@UPLAYERINFO@CChannelMgr@@@4@@std@@@std@@U_Kfn@?$map@KV?$map@KUPLAYERINFO@CChannelMgr@@U?$less@K@std@@V?$allocator@UPLAYERINFO@CChannelMgr@@@4@@std@@U?$less@K@2@V?$allocator@V?$map@KUPLAYERINFO@CChannelMgr@@U?$less@K@std@@V?$allocator@UPLAYERINFO@CChannelMgr@@@4@@std@@@2@@2@U?$less@K@2@V?$allocator@V?$map@KUPLAYERINFO@CChannelMgr@@U?$less@K@std@@V?$allocator@UPLAYERINFO@CChannelMgr@@@4@@std@@@2@@std@@IAEXABV12@@Z 0040a3c0 f i ChannelMgr.obj
 0001:00009540       ?_Erase@?$_Tree@KU?$pair@$$CBKV?$map@KUPLAYERINFO@CChannelMgr@@U?$less@K@std@@V?$allocator@UPLAYERINFO@CChannelMgr@@@4@@std@@@std@@U_Kfn@?$map@KV?$map@KUPLAYERINFO@CChannelMgr@@U?$less@K@std@@V?$allocator@UPLAYERINFO@CChannelMgr@@@4@@std@@U?$less@K@2@V?$allocator@V?$map@KUPLAYERINFO@CChannelMgr@@U?$less@K@std@@V?$allocator@UPLAYERINFO@CChannelMgr@@@4@@std@@@2@@2@U?$less@K@2@V?$allocator@V?$map@KUPLAYERINFO@CChannelMgr@@U?$less@K@std@@V?$allocator@UPLAYERINFO@CChannelMgr@@@4@@std@@@2@@std@@IAEXPAU_Node@12@@Z 0040a540 f i ChannelMgr.obj
 0001:00009660       ?_Init@?$_Tree@KU?$pair@$$CBKV?$map@KUPLAYERINFO@CChannelMgr@@U?$less@K@std@@V?$allocator@UPLAYERINFO@CChannelMgr@@@4@@std@@@std@@U_Kfn@?$map@KV?$map@KUPLAYERINFO@CChannelMgr@@U?$less@K@std@@V?$allocator@UPLAYERINFO@CChannelMgr@@@4@@std@@U?$less@K@2@V?$allocator@V?$map@KUPLAYERINFO@CChannelMgr@@U?$less@K@std@@V?$allocator@UPLAYERINFO@CChannelMgr@@@4@@std@@@2@@2@U?$less@K@2@V?$allocator@V?$map@KUPLAYERINFO@CChannelMgr@@U?$less@K@std@@V?$allocator@UPLAYERINFO@CChannelMgr@@@4@@std@@@2@@std@@IAEXXZ 0040a660 f i ChannelMgr.obj
 0001:00009710       ?_Insert@?$_Tree@KU?$pair@$$CBKV?$map@KUPLAYERINFO@CChannelMgr@@U?$less@K@std@@V?$allocator@UPLAYERINFO@CChannelMgr@@@4@@std@@@std@@U_Kfn@?$map@KV?$map@KUPLAYERINFO@CChannelMgr@@U?$less@K@std@@V?$allocator@UPLAYERINFO@CChannelMgr@@@4@@std@@U?$less@K@2@V?$allocator@V?$map@KUPLAYERINFO@CChannelMgr@@U?$less@K@std@@V?$allocator@UPLAYERINFO@CChannelMgr@@@4@@std@@@2@@2@U?$less@K@2@V?$allocator@V?$map@KUPLAYERINFO@CChannelMgr@@U?$less@K@std@@V?$allocator@UPLAYERINFO@CChannelMgr@@@4@@std@@@2@@std@@IAE?AViterator@12@PAU_Node@12@0ABU?$pair@$$CBKV?$map@KUPLAYERINFO@CChannelMgr@@U?$less@K@std@@V?$allocator@UPLAYERINFO@CChannelMgr@@@4@@std@@@2@@Z 0040a710 f i ChannelMgr.obj
 0001:00009a10       ?_Lbound@?$_Tree@KU?$pair@$$CBKV?$map@KUPLAYERINFO@CChannelMgr@@U?$less@K@std@@V?$allocator@UPLAYERINFO@CChannelMgr@@@4@@std@@@std@@U_Kfn@?$map@KV?$map@KUPLAYERINFO@CChannelMgr@@U?$less@K@std@@V?$allocator@UPLAYERINFO@CChannelMgr@@@4@@std@@U?$less@K@2@V?$allocator@V?$map@KUPLAYERINFO@CChannelMgr@@U?$less@K@std@@V?$allocator@UPLAYERINFO@CChannelMgr@@@4@@std@@@2@@2@U?$less@K@2@V?$allocator@V?$map@KUPLAYERINFO@CChannelMgr@@U?$less@K@std@@V?$allocator@UPLAYERINFO@CChannelMgr@@@4@@std@@@2@@std@@IBEPAU_Node@12@ABK@Z 0040aa10 f i ChannelMgr.obj
 0001:00009a60       ?_Left@?$_Tree@KU?$pair@$$CBKUPLAYERINFO@CChannelMgr@@@std@@U_Kfn@?$map@KUPLAYERINFO@CChannelMgr@@U?$less@K@std@@V?$allocator@UPLAYERINFO@CChannelMgr@@@4@@2@U?$less@K@2@V?$allocator@UPLAYERINFO@CChannelMgr@@@2@@std@@KAAAPAU_Node@12@PAU312@@Z 0040aa60 f i ChannelMgr.obj
 0001:00009a70       ?erase@?$_Tree@KU?$pair@$$CBKUPLAYERINFO@CChannelMgr@@@std@@U_Kfn@?$map@KUPLAYERINFO@CChannelMgr@@U?$less@K@std@@V?$allocator@UPLAYERINFO@CChannelMgr@@@4@@2@U?$less@K@2@V?$allocator@UPLAYERINFO@CChannelMgr@@@2@@std@@QAE?AViterator@12@V312@@Z 0040aa70 f i ChannelMgr.obj
 0001:00009f90       ?_Copy@?$_Tree@KU?$pair@$$CBKUPLAYERINFO@CChannelMgr@@@std@@U_Kfn@?$map@KUPLAYERINFO@CChannelMgr@@U?$less@K@std@@V?$allocator@UPLAYERINFO@CChannelMgr@@@4@@2@U?$less@K@2@V?$allocator@UPLAYERINFO@CChannelMgr@@@2@@std@@IAEXABV12@@Z 0040af90 f i ChannelMgr.obj
 0001:0000a110       ?_Erase@?$_Tree@KU?$pair@$$CBKUPLAYERINFO@CChannelMgr@@@std@@U_Kfn@?$map@KUPLAYERINFO@CChannelMgr@@U?$less@K@std@@V?$allocator@UPLAYERINFO@CChannelMgr@@@4@@2@U?$less@K@2@V?$allocator@UPLAYERINFO@CChannelMgr@@@2@@std@@IAEXPAU_Node@12@@Z 0040b110 f i ChannelMgr.obj
 0001:0000a1a0       ?_Init@?$_Tree@KU?$pair@$$CBKUPLAYERINFO@CChannelMgr@@@std@@U_Kfn@?$map@KUPLAYERINFO@CChannelMgr@@U?$less@K@std@@V?$allocator@UPLAYERINFO@CChannelMgr@@@4@@2@U?$less@K@2@V?$allocator@UPLAYERINFO@CChannelMgr@@@2@@std@@IAEXXZ 0040b1a0 f i ChannelMgr.obj
 0001:0000a250       ?_Insert@?$_Tree@KU?$pair@$$CBKUPLAYERINFO@CChannelMgr@@@std@@U_Kfn@?$map@KUPLAYERINFO@CChannelMgr@@U?$less@K@std@@V?$allocator@UPLAYERINFO@CChannelMgr@@@4@@2@U?$less@K@2@V?$allocator@UPLAYERINFO@CChannelMgr@@@2@@std@@IAE?AViterator@12@PAU_Node@12@0ABU?$pair@$$CBKUPLAYERINFO@CChannelMgr@@@2@@Z 0040b250 f i ChannelMgr.obj
 0001:0000a550       ?_Lbound@?$_Tree@KU?$pair@$$CBKUPLAYERINFO@CChannelMgr@@@std@@U_Kfn@?$map@KUPLAYERINFO@CChannelMgr@@U?$less@K@std@@V?$allocator@UPLAYERINFO@CChannelMgr@@@4@@2@U?$less@K@2@V?$allocator@UPLAYERINFO@CChannelMgr@@@2@@std@@IBEPAU_Node@12@ABK@Z 0040b550 f i ChannelMgr.obj
 0001:0000a5a0       ??0const_iterator@?$_Tree@KU?$pair@$$CBKUPLAYERINFO@CChannelMgr@@@std@@U_Kfn@?$map@KUPLAYERINFO@CChannelMgr@@U?$less@K@std@@V?$allocator@UPLAYERINFO@CChannelMgr@@@4@@2@U?$less@K@2@V?$allocator@UPLAYERINFO@CChannelMgr@@@2@@std@@QAE@PAU_Node@12@@Z 0040b5a0 f i ChannelMgr.obj
 0001:0000a5b0       ?_Insert@?$_Tree@KU?$pair@$$CBKUCHANNINFO@CChannelMgr@@@std@@U_Kfn@?$map@KUCHANNINFO@CChannelMgr@@U?$less@K@std@@V?$allocator@UCHANNINFO@CChannelMgr@@@4@@2@U?$less@K@2@V?$allocator@UCHANNINFO@CChannelMgr@@@2@@std@@IAE?AViterator@12@PAU_Node@12@0ABU?$pair@$$CBKUCHANNINFO@CChannelMgr@@@2@@Z 0040b5b0 f i ChannelMgr.obj
 0001:0000a8b0       ?_Lbound@?$_Tree@KU?$pair@$$CBKUCHANNINFO@CChannelMgr@@@std@@U_Kfn@?$map@KUCHANNINFO@CChannelMgr@@U?$less@K@std@@V?$allocator@UCHANNINFO@CChannelMgr@@@4@@2@U?$less@K@2@V?$allocator@UCHANNINFO@CChannelMgr@@@2@@std@@IBEPAU_Node@12@ABK@Z 0040b8b0 f i ChannelMgr.obj
 0001:0000a900       ?_Buynode@?$_Tree@KU?$pair@$$CBKUCHANNINFO@CChannelMgr@@@std@@U_Kfn@?$map@KUCHANNINFO@CChannelMgr@@U?$less@K@std@@V?$allocator@UCHANNINFO@CChannelMgr@@@4@@2@U?$less@K@2@V?$allocator@UCHANNINFO@CChannelMgr@@@2@@std@@IAEPAU_Node@12@PAU312@W4_Redbl@12@@Z 0040b900 f i ChannelMgr.obj
 0001:0000a920       ?_Insert@?$_Tree@V?$basic_string@DU?$char_traits@D@std@@V?$allocator@D@2@@std@@U?$pair@$$CBV?$basic_string@DU?$char_traits@D@std@@V?$allocator@D@2@@std@@K@2@U_Kfn@?$map@V?$basic_string@DU?$char_traits@D@std@@V?$allocator@D@2@@std@@KU_tstring_less@@V?$allocator@K@2@@2@U_tstring_less@@V?$allocator@K@2@@std@@IAE?AViterator@12@PAU_Node@12@0ABU?$pair@$$CBV?$basic_string@DU?$char_traits@D@std@@V?$allocator@D@2@@std@@K@2@@Z 0040b920 f i ChannelMgr.obj
 0001:0000ac50       ?_Lbound@?$_Tree@V?$basic_string@DU?$char_traits@D@std@@V?$allocator@D@2@@std@@U?$pair@$$CBV?$basic_string@DU?$char_traits@D@std@@V?$allocator@D@2@@std@@K@2@U_Kfn@?$map@V?$basic_string@DU?$char_traits@D@std@@V?$allocator@D@2@@std@@KU_tstring_less@@V?$allocator@K@2@@2@U_tstring_less@@V?$allocator@K@2@@std@@IBEPAU_Node@12@ABV?$basic_string@DU?$char_traits@D@std@@V?$allocator@D@2@@2@@Z 0040bc50 f i ChannelMgr.obj
 0001:0000acd0       ?_Buynode@?$_Tree@V?$basic_string@DU?$char_traits@D@std@@V?$allocator@D@2@@std@@U?$pair@$$CBV?$basic_string@DU?$char_traits@D@std@@V?$allocator@D@2@@std@@K@2@U_Kfn@?$map@V?$basic_string@DU?$char_traits@D@std@@V?$allocator@D@2@@std@@KU_tstring_less@@V?$allocator@K@2@@2@U_tstring_less@@V?$allocator@K@2@@std@@IAEPAU_Node@12@PAU312@W4_Redbl@12@@Z 0040bcd0 f i ChannelMgr.obj
 0001:0000acf0       ?_Buynode@?$_Tree@KU?$pair@$$CBKV?$list@PAU_BLOCKCHANNELOP@CChannelMgr@@V?$allocator@PAU_BLOCKCHANNELOP@CChannelMgr@@@std@@@std@@@std@@U_Kfn@?$map@KV?$list@PAU_BLOCKCHANNELOP@CChannelMgr@@V?$allocator@PAU_BLOCKCHANNELOP@CChannelMgr@@@std@@@std@@U?$less@K@2@V?$allocator@V?$list@PAU_BLOCKCHANNELOP@CChannelMgr@@V?$allocator@PAU_BLOCKCHANNELOP@CChannelMgr@@@std@@@std@@@2@@2@U?$less@K@2@V?$allocator@V?$list@PAU_BLOCKCHANNELOP@CChannelMgr@@V?$allocator@PAU_BLOCKCHANNELOP@CChannelMgr@@@std@@@std@@@2@@std@@IAEPAU_Node@12@PAU312@W4_Redbl@12@@Z 0040bcf0 f i ChannelMgr.obj
 0001:0000ad10       ?erase@?$list@PAU_BLOCKCHANNELOP@CChannelMgr@@V?$allocator@PAU_BLOCKCHANNELOP@CChannelMgr@@@std@@@std@@QAE?AViterator@12@V312@@Z 0040bd10 f i ChannelMgr.obj
 0001:0000ad50       ?_Copy@?$_Tree@KU?$pair@$$CBKV?$map@KUPLAYERINFO@CChannelMgr@@U?$less@K@std@@V?$allocator@UPLAYERINFO@CChannelMgr@@@4@@std@@@std@@U_Kfn@?$map@KV?$map@KUPLAYERINFO@CChannelMgr@@U?$less@K@std@@V?$allocator@UPLAYERINFO@CChannelMgr@@@4@@std@@U?$less@K@2@V?$allocator@V?$map@KUPLAYERINFO@CChannelMgr@@U?$less@K@std@@V?$allocator@UPLAYERINFO@CChannelMgr@@@4@@std@@@2@@2@U?$less@K@2@V?$allocator@V?$map@KUPLAYERINFO@CChannelMgr@@U?$less@K@std@@V?$allocator@UPLAYERINFO@CChannelMgr@@@4@@std@@@2@@std@@IAEPAU_Node@12@PAU312@0@Z 0040bd50 f i ChannelMgr.obj
 0001:0000ae60       ??3@YAXPAX0@Z              0040be60 f i ChannelMgr.obj
 0001:0000ae70       ?_Buynode@?$_Tree@KU?$pair@$$CBKV?$map@KUPLAYERINFO@CChannelMgr@@U?$less@K@std@@V?$allocator@UPLAYERINFO@CChannelMgr@@@4@@std@@@std@@U_Kfn@?$map@KV?$map@KUPLAYERINFO@CChannelMgr@@U?$less@K@std@@V?$allocator@UPLAYERINFO@CChannelMgr@@@4@@std@@U?$less@K@2@V?$allocator@V?$map@KUPLAYERINFO@CChannelMgr@@U?$less@K@std@@V?$allocator@UPLAYERINFO@CChannelMgr@@@4@@std@@@2@@2@U?$less@K@2@V?$allocator@V?$map@KUPLAYERINFO@CChannelMgr@@U?$less@K@std@@V?$allocator@UPLAYERINFO@CChannelMgr@@@4@@std@@@2@@std@@IAEPAU_Node@12@PAU312@W4_Redbl@12@@Z 0040be70 f i ChannelMgr.obj
 0001:0000ae90       ?_Copy@?$_Tree@KU?$pair@$$CBKUPLAYERINFO@CChannelMgr@@@std@@U_Kfn@?$map@KUPLAYERINFO@CChannelMgr@@U?$less@K@std@@V?$allocator@UPLAYERINFO@CChannelMgr@@@4@@2@U?$less@K@2@V?$allocator@UPLAYERINFO@CChannelMgr@@@2@@std@@IAEPAU_Node@12@PAU312@0@Z 0040be90 f i ChannelMgr.obj
 0001:0000af70       ?_Ubound@?$_Tree@KU?$pair@$$CBKUPLAYERINFO@CChannelMgr@@@std@@U_Kfn@?$map@KUPLAYERINFO@CChannelMgr@@U?$less@K@std@@V?$allocator@UPLAYERINFO@CChannelMgr@@@4@@2@U?$less@K@2@V?$allocator@UPLAYERINFO@CChannelMgr@@@2@@std@@IBEPAU_Node@12@ABK@Z 0040bf70 f i ChannelMgr.obj
 0001:0000afc0       ?_Buynode@?$_Tree@KU?$pair@$$CBKUPLAYERINFO@CChannelMgr@@@std@@U_Kfn@?$map@KUPLAYERINFO@CChannelMgr@@U?$less@K@std@@V?$allocator@UPLAYERINFO@CChannelMgr@@@4@@2@U?$less@K@2@V?$allocator@UPLAYERINFO@CChannelMgr@@@2@@std@@IAEPAU_Node@12@PAU312@W4_Redbl@12@@Z 0040bfc0 f i ChannelMgr.obj
 0001:0000afe0       ?_Dec@const_iterator@?$_Tree@KU?$pair@$$CBKUPLAYERINFO@CChannelMgr@@@std@@U_Kfn@?$map@KUPLAYERINFO@CChannelMgr@@U?$less@K@std@@V?$allocator@UPLAYERINFO@CChannelMgr@@@4@@2@U?$less@K@2@V?$allocator@UPLAYERINFO@CChannelMgr@@@2@@std@@QAEXXZ 0040bfe0 f i ChannelMgr.obj
 0001:0000b0a0       ?_Dec@const_iterator@?$_Tree@KU?$pair@$$CBKV?$map@KUPLAYERINFO@CChannelMgr@@U?$less@K@std@@V?$allocator@UPLAYERINFO@CChannelMgr@@@4@@std@@@std@@U_Kfn@?$map@KV?$map@KUPLAYERINFO@CChannelMgr@@U?$less@K@std@@V?$allocator@UPLAYERINFO@CChannelMgr@@@4@@std@@U?$less@K@2@V?$allocator@V?$map@KUPLAYERINFO@CChannelMgr@@U?$less@K@std@@V?$allocator@UPLAYERINFO@CChannelMgr@@@4@@std@@@2@@2@U?$less@K@2@V?$allocator@V?$map@KUPLAYERINFO@CChannelMgr@@U?$less@K@std@@V?$allocator@UPLAYERINFO@CChannelMgr@@@4@@std@@@2@@std@@QAEXXZ 0040c0a0 f i ChannelMgr.obj
 0001:0000b160       ?_Dec@const_iterator@?$_Tree@KU?$pair@$$CBKUCHANNINFO@CChannelMgr@@@std@@U_Kfn@?$map@KUCHANNINFO@CChannelMgr@@U?$less@K@std@@V?$allocator@UCHANNINFO@CChannelMgr@@@4@@2@U?$less@K@2@V?$allocator@UCHANNINFO@CChannelMgr@@@2@@std@@QAEXXZ 0040c160 f i ChannelMgr.obj
 0001:0000b220       ?_Ubound@?$_Tree@V?$basic_string@DU?$char_traits@D@std@@V?$allocator@D@2@@std@@U?$pair@$$CBV?$basic_string@DU?$char_traits@D@std@@V?$allocator@D@2@@std@@K@2@U_Kfn@?$map@V?$basic_string@DU?$char_traits@D@std@@V?$allocator@D@2@@std@@KU_tstring_less@@V?$allocator@K@2@@2@U_tstring_less@@V?$allocator@K@2@@std@@IBEPAU_Node@12@ABV?$basic_string@DU?$char_traits@D@std@@V?$allocator@D@2@@2@@Z 0040c220 f i ChannelMgr.obj
 0001:0000b2a0       ?_Dec@const_iterator@?$_Tree@V?$basic_string@DU?$char_traits@D@std@@V?$allocator@D@2@@std@@U?$pair@$$CBV?$basic_string@DU?$char_traits@D@std@@V?$allocator@D@2@@std@@K@2@U_Kfn@?$map@V?$basic_string@DU?$char_traits@D@std@@V?$allocator@D@2@@std@@KU_tstring_less@@V?$allocator@K@2@@2@U_tstring_less@@V?$allocator@K@2@@std@@QAEXXZ 0040c2a0 f i ChannelMgr.obj
 0001:0000b360       ?_Inc@const_iterator@?$_Tree@V?$basic_string@DU?$char_traits@D@std@@V?$allocator@D@2@@std@@U?$pair@$$CBV?$basic_string@DU?$char_traits@D@std@@V?$allocator@D@2@@std@@K@2@U_Kfn@?$map@V?$basic_string@DU?$char_traits@D@std@@V?$allocator@D@2@@std@@KU_tstring_less@@V?$allocator@K@2@@2@U_tstring_less@@V?$allocator@K@2@@std@@QAEXXZ 0040c360 f i ChannelMgr.obj
 0001:0000b410       ?_Distance@std@@YAXViterator@?$_Tree@KU?$pair@$$CBKUPLAYERINFO@CChannelMgr@@@std@@U_Kfn@?$map@KUPLAYERINFO@CChannelMgr@@U?$less@K@std@@V?$allocator@UPLAYERINFO@CChannelMgr@@@4@@2@U?$less@K@2@V?$allocator@UPLAYERINFO@CChannelMgr@@@2@@1@0AAI@Z 0040c410 f i ChannelMgr.obj
 0001:0000b440       ?_Construct@std@@YAXPAU?$pair@$$CBKV?$map@KUPLAYERINFO@CChannelMgr@@U?$less@K@std@@V?$allocator@UPLAYERINFO@CChannelMgr@@@4@@std@@@1@ABU21@@Z 0040c440 f i ChannelMgr.obj
 0001:0000b650       ?_Construct@std@@YAXPAU?$pair@$$CBKUPLAYERINFO@CChannelMgr@@@1@ABU21@@Z 0040c650 f i ChannelMgr.obj
 0001:0000b670       ?_Construct@std@@YAXPAU?$pair@$$CBKUCHANNINFO@CChannelMgr@@@1@ABU21@@Z 0040c670 f i ChannelMgr.obj
 0001:0000b7b0       ?_Construct@std@@YAXPAU?$pair@$$CBV?$basic_string@DU?$char_traits@D@std@@V?$allocator@D@2@@std@@K@1@ABU21@@Z 0040c7b0 f i ChannelMgr.obj
 0001:0000b900       ?_Distance@std@@YAXViterator@?$_Tree@KU?$pair@$$CBKUPLAYERINFO@CChannelMgr@@@std@@U_Kfn@?$map@KUPLAYERINFO@CChannelMgr@@U?$less@K@std@@V?$allocator@UPLAYERINFO@CChannelMgr@@@4@@2@U?$less@K@2@V?$allocator@UPLAYERINFO@CChannelMgr@@@2@@1@0AAIUbidirectional_iterator_tag@1@@Z 0040c900 f i ChannelMgr.obj
 0001:0000b960       ?id@?$ctype@G@std@@$E      0040c960 f i ChannelMgr.obj
 0001:0000b970       ??0CChatConnect@@QAE@PAVCChatServer@@K@Z 0040c970 f   ChatConnect.obj
 0001:0000b9a0       ?BeginRoute@CNetConnect@@MAEXXZ 0040c9a0 f i ChatConnect.obj
 0001:0000b9b0       ?EndRoute@CNetConnect@@MAEXXZ 0040c9b0 f i ChatConnect.obj
 0001:0000b9c0       ??_GCChatConnect@@UAEPAXI@Z 0040c9c0 f i ChatConnect.obj
 0001:0000b9c0       ??_ECChatConnect@@UAEPAXI@Z 0040c9c0 f i ChatConnect.obj
 0001:0000b9e0       ??1CChatConnect@@UAE@XZ    0040c9e0 f   ChatConnect.obj
 0001:0000ba00       ?OnClientConnectCreate@CChatConnect@@MAEXXZ 0040ca00 f   ChatConnect.obj
 0001:0000ba20       ?OnClientConnectClose@CChatConnect@@MAEXXZ 0040ca20 f   ChatConnect.obj
 0001:0000ba40       ?RecvPackage@CChatConnect@@MAEXPBXI@Z 0040ca40 f   ChatConnect.obj
 0001:0000ba80       ?Proc0_SomeoneChat@CChatConnect@@AAEXPBXI@Z 0040ca80 f   ChatConnect.obj
 0001:0000baa0       ?Proc0_ChannelChat@CChatConnect@@AAEXPBXI@Z 0040caa0 f   ChatConnect.obj
 0001:0000bac0       ?Proc0_GroupMan@CChatConnect@@AAEXPBXI@Z 0040cac0 f   ChatConnect.obj
 0001:0000bc10       ??0CChatServer@@QAE@XZ     0040cc10 f   ChatServer.obj
 0001:0000bcf0       ??_ECChatServer@@UAEPAXI@Z 0040ccf0 f i ChatServer.obj
 0001:0000bcf0       ??_GCChatServer@@UAEPAXI@Z 0040ccf0 f i ChatServer.obj
 0001:0000bd10       ??1?$map@KPAVCChatConnect@@U?$less@K@std@@V?$allocator@PAVCChatConnect@@@3@@std@@QAE@XZ 0040cd10 f i ChatServer.obj
 0001:0000bd80       ??1CChatServer@@UAE@XZ     0040cd80 f   ChatServer.obj
 0001:0000be40       ?CreateConnect@CChatServer@@MAEPAVCNetConnect@@PAVCNetServer@@K@Z 0040ce40 f   ChatServer.obj
 0001:0000beb0       ?DestroyConnect@CChatServer@@MAEXPAVCNetConnect@@@Z 0040ceb0 f   ChatServer.obj
 0001:0000bed0       ?OnBuildup@CChatServer@@MAEXXZ 0040ced0 f   ChatServer.obj
 0001:0000bf30       ?OnClearup@CChatServer@@MAEXXZ 0040cf30 f   ChatServer.obj
 0001:0000bfb0       ?OnClientConnectCreate@CChatServer@@MAEXPAVCNetConnect@@@Z 0040cfb0 f   ChatServer.obj
 0001:0000c040       ??1KAutoLockWrite@@QAE@XZ  0040d040 f i ChatServer.obj
 0001:0000c050       ?OnClientConnectClose@CChatServer@@MAEXPAVCNetConnect@@@Z 0040d050 f   ChatServer.obj
 0001:0000c100       ?FindChatConnectByIP@CChatServer@@QAE?AVCNetConnectDup@@K@Z 0040d100 f   ChatServer.obj
 0001:0000c1e0       ??1KAutoLockRead@@QAE@XZ   0040d1e0 f i ChatServer.obj
 0001:0000c1f0       ?TraceInfo@CChatServer@@QAEHXZ 0040d1f0 f   ChatServer.obj
 0001:0000c440       ?erase@?$_Tree@KU?$pair@$$CBKPAVCChatConnect@@@std@@U_Kfn@?$map@KPAVCChatConnect@@U?$less@K@std@@V?$allocator@PAVCChatConnect@@@3@@2@U?$less@K@2@V?$allocator@PAVCChatConnect@@@2@@std@@QAE?AViterator@12@V312@0@Z 0040d440 f i ChatServer.obj
 0001:0000c570       ?find@?$_Tree@KU?$pair@$$CBKPAVCChatConnect@@@std@@U_Kfn@?$map@KPAVCChatConnect@@U?$less@K@std@@V?$allocator@PAVCChatConnect@@@3@@2@U?$less@K@2@V?$allocator@PAVCChatConnect@@@2@@std@@QAE?AViterator@12@ABK@Z 0040d570 f i ChatServer.obj
 0001:0000c5c0       ?insert@?$_Tree@KU?$pair@$$CBKPAVCChatConnect@@@std@@U_Kfn@?$map@KPAVCChatConnect@@U?$less@K@std@@V?$allocator@PAVCChatConnect@@@3@@2@U?$less@K@2@V?$allocator@PAVCChatConnect@@@2@@std@@QAE?AU?$pair@Viterator@?$_Tree@KU?$pair@$$CBKPAVCChatConnect@@@std@@U_Kfn@?$map@KPAVCChatConnect@@U?$less@K@std@@V?$allocator@PAVCChatConnect@@@3@@2@U?$less@K@2@V?$allocator@PAVCChatConnect@@@2@@std@@_N@2@ABU?$pair@$$CBKPAVCChatConnect@@@2@@Z 0040d5c0 f i ChatServer.obj
 0001:0000c6f0       ?erase@?$_Tree@KU?$pair@$$CBKPAVCChatConnect@@@std@@U_Kfn@?$map@KPAVCChatConnect@@U?$less@K@std@@V?$allocator@PAVCChatConnect@@@3@@2@U?$less@K@2@V?$allocator@PAVCChatConnect@@@2@@std@@QAE?AViterator@12@V312@@Z 0040d6f0 f i ChatServer.obj
 0001:0000cc10       ?_Erase@?$_Tree@KU?$pair@$$CBKPAVCChatConnect@@@std@@U_Kfn@?$map@KPAVCChatConnect@@U?$less@K@std@@V?$allocator@PAVCChatConnect@@@3@@2@U?$less@K@2@V?$allocator@PAVCChatConnect@@@2@@std@@IAEXPAU_Node@12@@Z 0040dc10 f i ChatServer.obj
 0001:0000cca0       ?_Inc@const_iterator@?$_Tree@KU?$pair@$$CBKPAVCChatConnect@@@std@@U_Kfn@?$map@KPAVCChatConnect@@U?$less@K@std@@V?$allocator@PAVCChatConnect@@@3@@2@U?$less@K@2@V?$allocator@PAVCChatConnect@@@2@@std@@QAEXXZ 0040dca0 f i ChatServer.obj
 0001:0000cd50       ?_Insert@?$_Tree@KU?$pair@$$CBKPAVCChatConnect@@@std@@U_Kfn@?$map@KPAVCChatConnect@@U?$less@K@std@@V?$allocator@PAVCChatConnect@@@3@@2@U?$less@K@2@V?$allocator@PAVCChatConnect@@@2@@std@@IAE?AViterator@12@PAU_Node@12@0ABU?$pair@$$CBKPAVCChatConnect@@@2@@Z 0040dd50 f i ChatServer.obj
 0001:0000d050       ?_Lbound@?$_Tree@KU?$pair@$$CBKPAVCChatConnect@@@std@@U_Kfn@?$map@KPAVCChatConnect@@U?$less@K@std@@V?$allocator@PAVCChatConnect@@@3@@2@U?$less@K@2@V?$allocator@PAVCChatConnect@@@2@@std@@IBEPAU_Node@12@ABK@Z 0040e050 f i ChatServer.obj
 0001:0000d0a0       ?_Ubound@?$_Tree@KU?$pair@$$CBKPAVCChatConnect@@@std@@U_Kfn@?$map@KPAVCChatConnect@@U?$less@K@std@@V?$allocator@PAVCChatConnect@@@3@@2@U?$less@K@2@V?$allocator@PAVCChatConnect@@@2@@std@@IBEPAU_Node@12@ABK@Z 0040e0a0 f i ChatServer.obj
 0001:0000d0f0       ?_Dec@const_iterator@?$_Tree@KU?$pair@$$CBKPAVCChatConnect@@@std@@U_Kfn@?$map@KPAVCChatConnect@@U?$less@K@std@@V?$allocator@PAVCChatConnect@@@3@@2@U?$less@K@2@V?$allocator@PAVCChatConnect@@@2@@std@@QAEXXZ 0040e0f0 f i ChatServer.obj
 0001:0000d1b0       ?_Construct@std@@YAXPAU?$pair@$$CBKPAVCChatConnect@@@1@ABU21@@Z 0040e1b0 f i ChatServer.obj
 0001:0000d200       ??0CDBCenter@@QAE@XZ       0040e200 f   DBConnect.obj
 0001:0000d220       ?OnBuildup@CNetCenter@@MAEXXZ 0040e220 f i DBConnect.obj
 0001:0000d230       ?OnClearup@CNetCenter@@MAEXXZ 0040e230 f i DBConnect.obj
 0001:0000d240       ?OnServerEventCreate@CNetCenter@@MAEXPAVCNetClient@@@Z 0040e240 f i DBConnect.obj
 0001:0000d250       ?OnServerEventClose@CNetCenter@@MAEXPAVCNetClient@@@Z 0040e250 f i DBConnect.obj
 0001:0000d260       ??_GCDBCenter@@UAEPAXI@Z   0040e260 f i DBConnect.obj
 0001:0000d260       ??_ECDBCenter@@UAEPAXI@Z   0040e260 f i DBConnect.obj
 0001:0000d280       ??1CDBCenter@@UAE@XZ       0040e280 f   DBConnect.obj
 0001:0000d290       ?TraceInfo@CDBCenter@@QAEHXZ 0040e290 f   DBConnect.obj
 0001:0000d490       ??0CDBClient@@QAE@PAVCDBCenter@@H@Z 0040e490 f   DBConnect.obj
 0001:0000d4b0       ?OnStartupFail@CNetClient@@MAEXXZ 0040e4b0 f i DBConnect.obj
 0001:0000d4c0       ?OnShutdownFail@CNetClient@@MAEXXZ 0040e4c0 f i DBConnect.obj
 0001:0000d4d0       ?BeginRoute@CNetClient@@MAEXXZ 0040e4d0 f i DBConnect.obj
 0001:0000d4e0       ?EndRoute@CNetClient@@MAEXXZ 0040e4e0 f i DBConnect.obj
 0001:0000d4f0       ?DeleteThis@CNetClient@@MAEXXZ 0040e4f0 f i DBConnect.obj
 0001:0000d500       ??_GCDBClient@@UAEPAXI@Z   0040e500 f i DBConnect.obj
 0001:0000d500       ??_ECDBClient@@UAEPAXI@Z   0040e500 f i DBConnect.obj
 0001:0000d520       ??1CDBClient@@UAE@XZ       0040e520 f   DBConnect.obj
 0001:0000d530       ?OnServerEventCreate@CDBClient@@MAEXXZ 0040e530 f   DBConnect.obj
 0001:0000d560       ?OnServerEventClose@CDBClient@@MAEXXZ 0040e560 f   DBConnect.obj
 0001:0000d580       ?RecvPackage@CDBClient@@MAEXPBXI@Z 0040e580 f   DBConnect.obj
 0001:0000d6a0       ??0ZDBTable@@QAE@PBD0@Z    0040e6a0 f   DBTable.obj
 0001:0000d7b0       ??_GZDBTable@@UAEPAXI@Z    0040e7b0 f i DBTable.obj
 0001:0000d7b0       ??_EZDBTable@@UAEPAXI@Z    0040e7b0 f i DBTable.obj
 0001:0000d7d0       ??1ZDBTable@@UAE@XZ        0040e7d0 f   DBTable.obj
 0001:0000d7f0       ?addIndex@ZDBTable@@QAEHP6AHPAU__db@@PBU__db_dbt@@1PAU3@@Z_N@Z 0040e7f0 f   DBTable.obj
 0001:0000d840       ?open@ZDBTable@@QAE_NXZ    0040e840 f   DBTable.obj
 0001:0000d9c0       ?close@ZDBTable@@QAEXXZ    0040e9c0 f   DBTable.obj
 0001:0000da10       ?commit@ZDBTable@@QAE_NXZ  0040ea10 f   DBTable.obj
 0001:0000da20       ?add@ZDBTable@@QAE_NPBDH0H@Z 0040ea20 f   DBTable.obj
 0001:0000da90       ?remove@ZDBTable@@QAE_NPBDHH@Z 0040ea90 f   DBTable.obj
 0001:0000dae0       ?_search@ZDBTable@@IAEPAD_NPBDHAAHH@Z 0040eae0 f   DBTable.obj
 0001:0000dcb0       ?_next@ZDBTable@@IAEPAD_NAAH@Z 0040ecb0 f   DBTable.obj
 0001:0000ddc0       ?GetRecord@ZDBTable@@QAEPADAAHW4CursorPointer@1@H@Z 0040edc0 f   DBTable.obj
 0001:0000de90       ?GetRecord_key@ZDBTable@@QAEPADAAHW4CursorPointer@1@H@Z 0040ee90 f   DBTable.obj
 0001:0000df60       ?GetRecordEx@ZDBTable@@QAE_NPADAAH01W4CursorPointer@1@H@Z 0040ef60 f   DBTable.obj
 0001:0000e040       ??0CDBTableReadOnly@@QAE@PBD0@Z 0040f040 f   DBTable.obj
 0001:0000e140       ??_ECDBTableReadOnly@@UAEPAXI@Z 0040f140 f i DBTable.obj
 0001:0000e140       ??_GCDBTableReadOnly@@UAEPAXI@Z 0040f140 f i DBTable.obj
 0001:0000e160       ??1CDBTableReadOnly@@UAE@XZ 0040f160 f   DBTable.obj
 0001:0000e180       ?open@CDBTableReadOnly@@QAE_NXZ 0040f180 f   DBTable.obj
 0001:0000e1d0       ?close@CDBTableReadOnly@@QAEXXZ 0040f1d0 f   DBTable.obj
 0001:0000e1f0       ?_search@CDBTableReadOnly@@IAEPAD_NPBDHAAH@Z 0040f1f0 f   DBTable.obj
 0001:0000e2c0       ?_next@CDBTableReadOnly@@IAEPAD_NAAH@Z 0040f2c0 f   DBTable.obj
 0001:0000e3e0       ?GetRecord@CDBTableReadOnly@@QAEPADAAHW4CursorPointer@1@@Z 0040f3e0 f   DBTable.obj
 0001:0000e4a0       ?GetRecord_key@CDBTableReadOnly@@QAEPADAAHW4CursorPointer@1@@Z 0040f4a0 f   DBTable.obj
 0001:0000e560       ?GetRecordEx@CDBTableReadOnly@@QAE_NPADAAH01W4CursorPointer@1@@Z 0040f560 f   DBTable.obj
 0001:0000e660       ?_Proc2_Relay_AskWay_AccountRoleID@dealrelay@@YAXABVCNetSockDupEx@@PBXI@Z 0040f660 f   DealRelay.obj
 0001:0000e820       ?_Proc1_Relay_Data@dealrelay@@YAXABVCNetSockDupEx@@PBXI@Z 0040f820 f   DealRelay.obj
 0001:0000e920       ?_Proc1_Relay_AskWay@dealrelay@@YAXABVCNetSockDupEx@@PBXI@Z 0040f920 f   DealRelay.obj
 0001:0000e940       ?_Proc1_Relay_LoseWay@dealrelay@@YAXABVCNetSockDupEx@@PBXI@Z 0040f940 f   DealRelay.obj
 0001:0000ea20       ?_Proc0_Relay@dealrelay@@YAXABVCNetSockDupEx@@PBXI@Z 0040fa20 f   DealRelay.obj
 0001:0000ea70       ?_RecvPackage@dealrelay@@YAXABVCNetSockDupEx@@PBXI@Z 0040fa70 f   DealRelay.obj
 0001:0000ea90       ?DoRecvPackage@dealrelay@@YAXPAVCRelayConnect@@PBXI@Z 0040fa90 f   DealRelay.obj
 0001:0000eb20       ?DoRecvPackage@dealrelay@@YAXPAVCRelayClient@@PBXI@Z 0040fb20 f   DealRelay.obj
 0001:0000ebb0       ??1CNetClientDup@@UAE@XZ   0040fbb0 f i DealRelay.obj
 0001:0000ebd0       ??_GCNetClientDup@@UAEPAXI@Z 0040fbd0 f i DealRelay.obj
 0001:0000ebd0       ??_ECNetClientDup@@UAEPAXI@Z 0040fbd0 f i DealRelay.obj
 0001:0000ec10       ?FindRelaySockByIP@dealrelay@@YA?AVCNetSockDupEx@@K@Z 0040fc10 f   DealRelay.obj
 0001:0000ed70       ?BroadPackage@dealrelay@@YAHPBXI@Z 0040fd70 f   DealRelay.obj
 0001:0000edd0       ?BroadGlobal@@YAXPBXIKK@Z  0040fdd0 f   DoScript.obj
 0001:0000ee60       ?BroadGame@@YAXKPBXIKK@Z   0040fe60 f   DoScript.obj
 0001:0000ef50       ?RootSend@@YAXKKPBXI@Z     0040ff50 f   DoScript.obj
 0001:0000f020       ?LuaGlobalExecute@@YAHPAUlua_State@@@Z 00410020 f   DoScript.obj
 0001:0000f100       ?LuaGameExecute@@YAHPAUlua_State@@@Z 00410100 f   DoScript.obj
 0001:0000f1f0       ?LuaMsg2IP@@YAHPAUlua_State@@@Z 004101f0 f   DoScript.obj
 0001:0000f350       ?LuaGetIP@@YAHPAUlua_State@@@Z 00410350 f   DoScript.obj
 0001:0000f400       ?g_GetGameScriptFunNum@@YAHXZ 00410400 f   DoScript.obj
 0001:0000f410       ?InitScript@@YAHXZ         00410410 f   DoScript.obj
 0001:0000f450       ?ExcuteScript@@YAHKKPBD@Z  00410450 f   DoScript.obj
 0001:0000f4a0       ?UninitScript@@YAHXZ       004104a0 f   DoScript.obj
 0001:0000f620       ??0CFriendMgr@@QAE@XZ      00410620 f   FriendMgr.obj
 0001:0000f730       ??_GCFriendMgr@@UAEPAXI@Z  00410730 f i FriendMgr.obj
 0001:0000f730       ??_ECFriendMgr@@UAEPAXI@Z  00410730 f i FriendMgr.obj
 0001:0000f750       ??1?$map@V?$basic_string@DU?$char_traits@D@std@@V?$allocator@D@2@@std@@UPLAYERINFO@CFriendMgr@@U_tstring_less@@V?$allocator@UPLAYERINFO@CFriendMgr@@@2@@std@@QAE@XZ 00410750 f i FriendMgr.obj
 0001:0000f7c0       ??1?$map@UADDFRIENDKEY@CFriendMgr@@UADDFRIENDVALUE@2@U?$less@UADDFRIENDKEY@CFriendMgr@@@std@@V?$allocator@UADDFRIENDVALUE@CFriendMgr@@@5@@std@@QAE@XZ 004107c0 f i FriendMgr.obj
 0001:0000f830       ??1CFriendMgr@@UAE@XZ      00410830 f   FriendMgr.obj
 0001:0000f980       ?Initialize@CFriendMgr@@QAEHXZ 00410980 f   FriendMgr.obj
 0001:0000fad0       ?Uninitialize@CFriendMgr@@QAEHXZ 00410ad0 f   FriendMgr.obj
 0001:0000fc40       ?SomeoneLogin@CFriendMgr@@QAEHABV?$basic_string@DU?$char_traits@D@std@@V?$allocator@D@2@@std@@@Z 00410c40 f   FriendMgr.obj
 0001:00010130       ??1?$map@KV?$list@UtagPlusSrcInfo@@V?$allocator@UtagPlusSrcInfo@@@std@@@std@@U?$less@K@2@V?$allocator@V?$list@UtagPlusSrcInfo@@V?$allocator@UtagPlusSrcInfo@@@std@@@std@@@2@@std@@QAE@XZ 00411130 f i FriendMgr.obj
 0001:000101a0       ?SomeoneLogout@CFriendMgr@@QAEHABV?$basic_string@DU?$char_traits@D@std@@V?$allocator@D@2@@std@@@Z 004111a0 f   FriendMgr.obj
 0001:00010400       ?SomeoneSyncFriends@CFriendMgr@@QAEHABV?$basic_string@DU?$char_traits@D@std@@V?$allocator@D@2@@std@@KKABVCNetConnectDup@@HE@Z 00411400 f   FriendMgr.obj
 0001:000109c0       ??1?$map@V?$basic_string@DU?$char_traits@D@std@@V?$allocator@D@2@@std@@V?$list@U?$pair@EV?$basic_string@DU?$char_traits@D@std@@V?$allocator@D@2@@std@@@std@@V?$allocator@U?$pair@EV?$basic_string@DU?$char_traits@D@std@@V?$allocator@D@2@@std@@@std@@@2@@2@U_tstring_less@@V?$allocator@V?$list@U?$pair@EV?$basic_string@DU?$char_traits@D@std@@V?$allocator@D@2@@std@@@std@@V?$allocator@U?$pair@EV?$basic_string@DU?$char_traits@D@std@@V?$allocator@D@2@@std@@@std@@@2@@std@@@2@@std@@QAE@XZ 004119c0 f i FriendMgr.obj
 0001:00010a30       ??1?$pair@EV?$basic_string@DU?$char_traits@D@std@@V?$allocator@D@2@@std@@@std@@QAE@XZ 00411a30 f i FriendMgr.obj
 0001:00010a70       ?PlayerAddFriend@CFriendMgr@@QAEHABV?$basic_string@DU?$char_traits@D@std@@V?$allocator@D@2@@std@@0@Z 00411a70 f   FriendMgr.obj
 0001:00010d70       ??0FRIENDINFO@CFriendMgr@@QAE@XZ 00411d70 f i FriendMgr.obj
 0001:00010da0       ?PlayerDelFriend@CFriendMgr@@QAEHABV?$basic_string@DU?$char_traits@D@std@@V?$allocator@D@2@@std@@0@Z 00411da0 f   FriendMgr.obj
 0001:00010f60       ?PlayerIsFriend@CFriendMgr@@QAEHABV?$basic_string@DU?$char_traits@D@std@@V?$allocator@D@2@@std@@0H@Z 00411f60 f   FriendMgr.obj
 0001:00011090       ?SetFriendGroup@CFriendMgr@@QAEHABV?$basic_string@DU?$char_traits@D@std@@V?$allocator@D@2@@std@@00@Z 00412090 f   FriendMgr.obj
 0001:000111d0       ?GetFriendGroup@CFriendMgr@@QAE?AV?$basic_string@DU?$char_traits@D@std@@V?$allocator@D@2@@std@@ABV23@0@Z 004121d0 f   FriendMgr.obj
 0001:00011450       ?TrackAddFriend@CFriendMgr@@QAEHABV?$basic_string@DU?$char_traits@D@std@@V?$allocator@D@2@@std@@0E@Z 00412450 f   FriendMgr.obj
 0001:000115c0       ??1ADDFRIENDKEY@CFriendMgr@@QAE@XZ 004125c0 f i FriendMgr.obj
 0001:00011600       ?ExtractAddFriend@CFriendMgr@@QAEHABV?$basic_string@DU?$char_traits@D@std@@V?$allocator@D@2@@std@@0E@Z 00412600 f   FriendMgr.obj
 0001:00011730       ?TidyAddFriend@CFriendMgr@@QAEHXZ 00412730 f   FriendMgr.obj
 0001:00011740       ?_LoadSomeone@CFriendMgr@@AAE?AViterator@?$_Tree@V?$basic_string@DU?$char_traits@D@std@@V?$allocator@D@2@@std@@U?$pair@$$CBV?$basic_string@DU?$char_traits@D@std@@V?$allocator@D@2@@std@@UPLAYERINFO@CFriendMgr@@@2@U_Kfn@?$map@V?$basic_string@DU?$char_traits@D@std@@V?$allocator@D@2@@std@@UPLAYERINFO@CFriendMgr@@U_tstring_less@@V?$allocator@UPLAYERINFO@CFriendMgr@@@2@@2@U_tstring_less@@V?$allocator@UPLAYERINFO@CFriendMgr@@@2@@std@@ABV?$basic_string@DU?$char_traits@D@std@@V?$allocator@D@2@@4@@Z 00412740 f   FriendMgr.obj
 0001:00011c40       ??0PLAYERINFO@CFriendMgr@@QAE@XZ 00412c40 f i FriendMgr.obj
 0001:00011d10       ??1PLAYERINFO@CFriendMgr@@QAE@XZ 00412d10 f i FriendMgr.obj
 0001:00011d80       ??1?$pair@$$CBV?$basic_string@DU?$char_traits@D@std@@V?$allocator@D@2@@std@@UPLAYERINFO@CFriendMgr@@@std@@QAE@XZ 00412d80 f i FriendMgr.obj
 0001:00011e50       ??1FRIENDINFO@CFriendMgr@@QAE@XZ 00412e50 f i FriendMgr.obj
 0001:00011e90       ??1?$pair@$$CBV?$basic_string@DU?$char_traits@D@std@@V?$allocator@D@2@@std@@UFRIENDINFO@CFriendMgr@@@std@@QAE@XZ 00412e90 f i FriendMgr.obj
 0001:00011f00       ?_StoreSomeone@CFriendMgr@@AAEHViterator@?$_Tree@V?$basic_string@DU?$char_traits@D@std@@V?$allocator@D@2@@std@@U?$pair@$$CBV?$basic_string@DU?$char_traits@D@std@@V?$allocator@D@2@@std@@UPLAYERINFO@CFriendMgr@@@2@U_Kfn@?$map@V?$basic_string@DU?$char_traits@D@std@@V?$allocator@D@2@@std@@UPLAYERINFO@CFriendMgr@@U_tstring_less@@V?$allocator@UPLAYERINFO@CFriendMgr@@@2@@2@U_tstring_less@@V?$allocator@UPLAYERINFO@CFriendMgr@@@2@@std@@@Z 00412f00 f   FriendMgr.obj
 0001:00012270       ??1MEM_FRIENDRECORD@CFriendMgr@@QAE@XZ 00413270 f i FriendMgr.obj
 0001:000122e0       ?NameToDBKey@CFriendMgr@@AAE?AV?$basic_string@DU?$char_traits@D@std@@V?$allocator@D@2@@std@@ABV23@@Z 004132e0 f   FriendMgr.obj
 0001:00012410       ?DB_AddSomeone@CFriendMgr@@AAEHABV?$basic_string@DU?$char_traits@D@std@@V?$allocator@D@2@@std@@ABV?$list@UMEM_FRIENDRECORD@CFriendMgr@@V?$allocator@UMEM_FRIENDRECORD@CFriendMgr@@@std@@@3@@Z 00413410 f   FriendMgr.obj
 0001:00012430       ?DB_DeleteSomeone@CFriendMgr@@AAEHABV?$basic_string@DU?$char_traits@D@std@@V?$allocator@D@2@@std@@@Z 00413430 f   FriendMgr.obj
 0001:000124f0       ?DB_LoadSomeone@CFriendMgr@@AAEHABV?$basic_string@DU?$char_traits@D@std@@V?$allocator@D@2@@std@@PAV?$list@UMEM_FRIENDRECORD@CFriendMgr@@V?$allocator@UMEM_FRIENDRECORD@CFriendMgr@@@std@@@3@@Z 004134f0 f   FriendMgr.obj
 0001:00012730       ?DB_StoreSomeone@CFriendMgr@@AAEHABV?$basic_string@DU?$char_traits@D@std@@V?$allocator@D@2@@std@@ABV?$list@UMEM_FRIENDRECORD@CFriendMgr@@V?$allocator@UMEM_FRIENDRECORD@CFriendMgr@@@std@@@3@@Z 00413730 f   FriendMgr.obj
 0001:000128b0       ?BkgrndUpdateDB@CFriendMgr@@QAEHXZ 004138b0 f   FriendMgr.obj
 0001:00013220       ??1ONEPLAYER@CFriendMgr@@QAE@XZ 00414220 f i FriendMgr.obj
 0001:000132c0       ?GetPlayerCount@CFriendMgr@@QAEIXZ 004142c0 f   FriendMgr.obj
 0001:000132e0       ?GetAFQSize@CFriendMgr@@QAEIXZ 004142e0 f   FriendMgr.obj
 0001:00013300       ?PlayerAssociate@CFriendMgr@@QAEHABV?$basic_string@DU?$char_traits@D@std@@V?$allocator@D@2@@std@@00E@Z 00414300 f   FriendMgr.obj
 0001:00013610       ?PlayerAssociateBevy@CFriendMgr@@QAEHABV?$vector@V?$basic_string@DU?$char_traits@D@std@@V?$allocator@D@2@@std@@V?$allocator@V?$basic_string@DU?$char_traits@D@std@@V?$allocator@D@2@@std@@@2@@std@@ABV?$basic_string@DU?$char_traits@D@std@@V?$allocator@D@2@@3@@Z 00414610 f   FriendMgr.obj
 0001:00013b10       ??0?$map@V?$basic_string@DU?$char_traits@D@std@@V?$allocator@D@2@@std@@UFRIENDINFO@CFriendMgr@@U_tstring_less@@V?$allocator@UFRIENDINFO@CFriendMgr@@@2@@std@@QAE@ABU_tstring_less@@ABV?$allocator@UFRIENDINFO@CFriendMgr@@@1@@Z 00414b10 f i FriendMgr.obj
 0001:00013be0       ?insert@?$map@V?$basic_string@DU?$char_traits@D@std@@V?$allocator@D@2@@std@@UFRIENDINFO@CFriendMgr@@U_tstring_less@@V?$allocator@UFRIENDINFO@CFriendMgr@@@2@@std@@QAE?AU?$pair@Viterator@?$_Tree@V?$basic_string@DU?$char_traits@D@std@@V?$allocator@D@2@@std@@U?$pair@$$CBV?$basic_string@DU?$char_traits@D@std@@V?$allocator@D@2@@std@@UFRIENDINFO@CFriendMgr@@@2@U_Kfn@?$map@V?$basic_string@DU?$char_traits@D@std@@V?$allocator@D@2@@std@@UFRIENDINFO@CFriendMgr@@U_tstring_less@@V?$allocator@UFRIENDINFO@CFriendMgr@@@2@@2@U_tstring_less@@V?$allocator@UFRIENDINFO@CFriendMgr@@@2@@std@@_N@2@ABU?$pair@$$CBV?$basic_string@DU?$char_traits@D@std@@V?$allocator@D@2@@std@@UFRIENDINFO@CFriendMgr@@@2@@Z 00414be0 f i FriendMgr.obj
 0001:00013c10       ??1?$_Tree@V?$basic_string@DU?$char_traits@D@std@@V?$allocator@D@2@@std@@U?$pair@$$CBV?$basic_string@DU?$char_traits@D@std@@V?$allocator@D@2@@std@@UFRIENDINFO@CFriendMgr@@@2@U_Kfn@?$map@V?$basic_string@DU?$char_traits@D@std@@V?$allocator@D@2@@std@@UFRIENDINFO@CFriendMgr@@U_tstring_less@@V?$allocator@UFRIENDINFO@CFriendMgr@@@2@@2@U_tstring_less@@V?$allocator@UFRIENDINFO@CFriendMgr@@@2@@std@@QAE@XZ 00414c10 f i FriendMgr.obj
 0001:00013c80       ??0?$pair@$$CBV?$basic_string@DU?$char_traits@D@std@@V?$allocator@D@2@@std@@UFRIENDINFO@CFriendMgr@@@std@@QAE@ABV?$basic_string@DU?$char_traits@D@std@@V?$allocator@D@2@@1@ABUFRIENDINFO@CFriendMgr@@@Z 00414c80 f i FriendMgr.obj
 0001:00013dc0       ?insert@?$map@V?$basic_string@DU?$char_traits@D@std@@V?$allocator@D@2@@std@@UPLAYERINFO@CFriendMgr@@U_tstring_less@@V?$allocator@UPLAYERINFO@CFriendMgr@@@2@@std@@QAE?AU?$pair@Viterator@?$_Tree@V?$basic_string@DU?$char_traits@D@std@@V?$allocator@D@2@@std@@U?$pair@$$CBV?$basic_string@DU?$char_traits@D@std@@V?$allocator@D@2@@std@@UPLAYERINFO@CFriendMgr@@@2@U_Kfn@?$map@V?$basic_string@DU?$char_traits@D@std@@V?$allocator@D@2@@std@@UPLAYERINFO@CFriendMgr@@U_tstring_less@@V?$allocator@UPLAYERINFO@CFriendMgr@@@2@@2@U_tstring_less@@V?$allocator@UPLAYERINFO@CFriendMgr@@@2@@std@@_N@2@ABU?$pair@$$CBV?$basic_string@DU?$char_traits@D@std@@V?$allocator@D@2@@std@@UPLAYERINFO@CFriendMgr@@@2@@Z 00414dc0 f i FriendMgr.obj
 0001:00013df0       ??0?$pair@$$CBV?$basic_string@DU?$char_traits@D@std@@V?$allocator@D@2@@std@@UPLAYERINFO@CFriendMgr@@@std@@QAE@ABV?$basic_string@DU?$char_traits@D@std@@V?$allocator@D@2@@1@ABUPLAYERINFO@CFriendMgr@@@Z 00414df0 f i FriendMgr.obj
 0001:00013f90       ??0?$list@UMEM_FRIENDRECORD@CFriendMgr@@V?$allocator@UMEM_FRIENDRECORD@CFriendMgr@@@std@@@std@@QAE@ABV?$allocator@UMEM_FRIENDRECORD@CFriendMgr@@@1@@Z 00414f90 f i FriendMgr.obj
 0001:00013fc0       ??1?$list@UMEM_FRIENDRECORD@CFriendMgr@@V?$allocator@UMEM_FRIENDRECORD@CFriendMgr@@@std@@@std@@QAE@XZ 00414fc0 f i FriendMgr.obj
 0001:00014020       ?begin@?$list@UMEM_FRIENDRECORD@CFriendMgr@@V?$allocator@UMEM_FRIENDRECORD@CFriendMgr@@@std@@@std@@QAE?AViterator@12@XZ 00415020 f i FriendMgr.obj
 0001:00014030       ??Eiterator@?$list@UMEM_FRIENDRECORD@CFriendMgr@@V?$allocator@UMEM_FRIENDRECORD@CFriendMgr@@@std@@@std@@QAE?AV012@H@Z 00415030 f i FriendMgr.obj
 0001:00014040       ??1?$_Tree@KU?$pair@$$CBKV?$list@UtagPlusSrcInfo@@V?$allocator@UtagPlusSrcInfo@@@std@@@std@@@std@@U_Kfn@?$map@KV?$list@UtagPlusSrcInfo@@V?$allocator@UtagPlusSrcInfo@@@std@@@std@@U?$less@K@2@V?$allocator@V?$list@UtagPlusSrcInfo@@V?$allocator@UtagPlusSrcInfo@@@std@@@std@@@2@@2@U?$less@K@2@V?$allocator@V?$list@UtagPlusSrcInfo@@V?$allocator@UtagPlusSrcInfo@@@std@@@std@@@2@@std@@QAE@XZ 00415040 f i FriendMgr.obj
 0001:000140b0       ??1?$_Tree@V?$basic_string@DU?$char_traits@D@std@@V?$allocator@D@2@@std@@U?$pair@$$CBV?$basic_string@DU?$char_traits@D@std@@V?$allocator@D@2@@std@@V?$list@U?$pair@EV?$basic_string@DU?$char_traits@D@std@@V?$allocator@D@2@@std@@@std@@V?$allocator@U?$pair@EV?$basic_string@DU?$char_traits@D@std@@V?$allocator@D@2@@std@@@std@@@2@@2@@2@U_Kfn@?$map@V?$basic_string@DU?$char_traits@D@std@@V?$allocator@D@2@@std@@V?$list@U?$pair@EV?$basic_string@DU?$char_traits@D@std@@V?$allocator@D@2@@std@@@std@@V?$allocator@U?$pair@EV?$basic_string@DU?$char_traits@D@std@@V?$allocator@D@2@@std@@@std@@@2@@2@U_tstring_less@@V?$allocator@V?$list@U?$pair@EV?$basic_string@DU?$char_traits@D@std@@V?$allocator@D@2@@std@@@std@@V?$allocator@U?$pair@EV?$basic_string@DU?$char_traits@D@std@@V?$allocator@D@2@@std@@@std@@@2@@std@@@2@@2@U_tstring_less@@V?$allocator@V?$list@U?$pair@EV?$basic_string@DU?$char_traits@D@std@@V?$allocator@D@2@@std@@@std@@V?$allocator@U?$pair@EV?$basic_string@DU?$char_traits@D@std@@V?$allocator@D@2@@std@@@std@@@2@@std@@@2@@std@@QAE@XZ 004150b0 f i FriendMgr.obj
 0001:00014120       ??1?$list@UONEPLAYER@CFriendMgr@@V?$allocator@UONEPLAYER@CFriendMgr@@@std@@@std@@QAE@XZ 00415120 f i FriendMgr.obj
 0001:00014180       ?begin@?$list@UONEPLAYER@CFriendMgr@@V?$allocator@UONEPLAYER@CFriendMgr@@@std@@@std@@QAE?AViterator@12@XZ 00415180 f i FriendMgr.obj
 0001:00014190       ??1?$list@V?$basic_string@DU?$char_traits@D@std@@V?$allocator@D@2@@std@@V?$allocator@V?$basic_string@DU?$char_traits@D@std@@V?$allocator@D@2@@std@@@2@@std@@QAE@XZ 00415190 f i FriendMgr.obj
 0001:000141f0       ?begin@?$list@V?$basic_string@DU?$char_traits@D@std@@V?$allocator@D@2@@std@@V?$allocator@V?$basic_string@DU?$char_traits@D@std@@V?$allocator@D@2@@std@@@2@@std@@QAE?AViterator@12@XZ 004151f0 f i FriendMgr.obj
 0001:00014200       ??Eiterator@?$list@V?$basic_string@DU?$char_traits@D@std@@V?$allocator@D@2@@std@@V?$allocator@V?$basic_string@DU?$char_traits@D@std@@V?$allocator@D@2@@std@@@2@@std@@QAE?AV012@H@Z 00415200 f i FriendMgr.obj
 0001:00014210       ??1?$vector@Viterator@?$_Tree@V?$basic_string@DU?$char_traits@D@std@@V?$allocator@D@2@@std@@U?$pair@$$CBV?$basic_string@DU?$char_traits@D@std@@V?$allocator@D@2@@std@@UPLAYERINFO@CFriendMgr@@@2@U_Kfn@?$map@V?$basic_string@DU?$char_traits@D@std@@V?$allocator@D@2@@std@@UPLAYERINFO@CFriendMgr@@U_tstring_less@@V?$allocator@UPLAYERINFO@CFriendMgr@@@2@@2@U_tstring_less@@V?$allocator@UPLAYERINFO@CFriendMgr@@@2@@std@@V?$allocator@Viterator@?$_Tree@V?$basic_string@DU?$char_traits@D@std@@V?$allocator@D@2@@std@@U?$pair@$$CBV?$basic_string@DU?$char_traits@D@std@@V?$allocator@D@2@@std@@UPLAYERINFO@CFriendMgr@@@2@U_Kfn@?$map@V?$basic_string@DU?$char_traits@D@std@@V?$allocator@D@2@@std@@UPLAYERINFO@CFriendMgr@@U_tstring_less@@V?$allocator@UPLAYERINFO@CFriendMgr@@@2@@2@U_tstring_less@@V?$allocator@UPLAYERINFO@CFriendMgr@@@2@@std@@@3@@std@@QAE@XZ 00415210 f i FriendMgr.obj
 0001:00014240       ??0FRIENDINFO@CFriendMgr@@QAE@ABU01@@Z 00415240 f i FriendMgr.obj
 0001:00014370       ??0PLAYERINFO@CFriendMgr@@QAE@ABU01@@Z 00415370 f i FriendMgr.obj
 0001:00014580       ??1ADDFRIENDVALUE@CFriendMgr@@QAE@XZ 00415580 f i FriendMgr.obj
 0001:000145c0       ??1?$pair@$$CBUADDFRIENDKEY@CFriendMgr@@UADDFRIENDVALUE@2@@std@@QAE@XZ 004155c0 f i FriendMgr.obj
 0001:00014630       ??1?$pair@$$CBKV?$list@UtagPlusSrcInfo@@V?$allocator@UtagPlusSrcInfo@@@std@@@std@@@std@@QAE@XZ 00415630 f i FriendMgr.obj
 0001:00014680       ??1?$pair@$$CBV?$basic_string@DU?$char_traits@D@std@@V?$allocator@D@2@@std@@V?$list@U?$pair@EV?$basic_string@DU?$char_traits@D@std@@V?$allocator@D@2@@std@@@std@@V?$allocator@U?$pair@EV?$basic_string@DU?$char_traits@D@std@@V?$allocator@D@2@@std@@@std@@@2@@2@@std@@QAE@XZ 00415680 f i FriendMgr.obj
 0001:00014720       ?begin@?$_Tree@V?$basic_string@DU?$char_traits@D@std@@V?$allocator@D@2@@std@@U?$pair@$$CBV?$basic_string@DU?$char_traits@D@std@@V?$allocator@D@2@@std@@UFRIENDINFO@CFriendMgr@@@2@U_Kfn@?$map@V?$basic_string@DU?$char_traits@D@std@@V?$allocator@D@2@@std@@UFRIENDINFO@CFriendMgr@@U_tstring_less@@V?$allocator@UFRIENDINFO@CFriendMgr@@@2@@2@U_tstring_less@@V?$allocator@UFRIENDINFO@CFriendMgr@@@2@@std@@QAE?AViterator@12@XZ 00415720 f i FriendMgr.obj
 0001:00014730       ?insert@?$_Tree@V?$basic_string@DU?$char_traits@D@std@@V?$allocator@D@2@@std@@U?$pair@$$CBV?$basic_string@DU?$char_traits@D@std@@V?$allocator@D@2@@std@@UFRIENDINFO@CFriendMgr@@@2@U_Kfn@?$map@V?$basic_string@DU?$char_traits@D@std@@V?$allocator@D@2@@std@@UFRIENDINFO@CFriendMgr@@U_tstring_less@@V?$allocator@UFRIENDINFO@CFriendMgr@@@2@@2@U_tstring_less@@V?$allocator@UFRIENDINFO@CFriendMgr@@@2@@std@@QAE?AU?$pair@Viterator@?$_Tree@V?$basic_string@DU?$char_traits@D@std@@V?$allocator@D@2@@std@@U?$pair@$$CBV?$basic_string@DU?$char_traits@D@std@@V?$allocator@D@2@@std@@UFRIENDINFO@CFriendMgr@@@2@U_Kfn@?$map@V?$basic_string@DU?$char_traits@D@std@@V?$allocator@D@2@@std@@UFRIENDINFO@CFriendMgr@@U_tstring_less@@V?$allocator@UFRIENDINFO@CFriendMgr@@@2@@2@U_tstring_less@@V?$allocator@UFRIENDINFO@CFriendMgr@@@2@@std@@_N@2@ABU?$pair@$$CBV?$basic_string@DU?$char_traits@D@std@@V?$allocator@D@2@@std@@UFRIENDINFO@CFriendMgr@@@2@@Z 00415730 f i FriendMgr.obj
 0001:000148b0       ?erase@?$_Tree@V?$basic_string@DU?$char_traits@D@std@@V?$allocator@D@2@@std@@U?$pair@$$CBV?$basic_string@DU?$char_traits@D@std@@V?$allocator@D@2@@std@@UFRIENDINFO@CFriendMgr@@@2@U_Kfn@?$map@V?$basic_string@DU?$char_traits@D@std@@V?$allocator@D@2@@std@@UFRIENDINFO@CFriendMgr@@U_tstring_less@@V?$allocator@UFRIENDINFO@CFriendMgr@@@2@@2@U_tstring_less@@V?$allocator@UFRIENDINFO@CFriendMgr@@@2@@std@@QAE?AViterator@12@V312@@Z 004158b0 f i FriendMgr.obj
 0001:00014e20       ?erase@?$_Tree@V?$basic_string@DU?$char_traits@D@std@@V?$allocator@D@2@@std@@U?$pair@$$CBV?$basic_string@DU?$char_traits@D@std@@V?$allocator@D@2@@std@@UFRIENDINFO@CFriendMgr@@@2@U_Kfn@?$map@V?$basic_string@DU?$char_traits@D@std@@V?$allocator@D@2@@std@@UFRIENDINFO@CFriendMgr@@U_tstring_less@@V?$allocator@UFRIENDINFO@CFriendMgr@@@2@@2@U_tstring_less@@V?$allocator@UFRIENDINFO@CFriendMgr@@@2@@std@@QAE?AViterator@12@V312@0@Z 00415e20 f i FriendMgr.obj
 0001:00014f60       ?find@?$_Tree@V?$basic_string@DU?$char_traits@D@std@@V?$allocator@D@2@@std@@U?$pair@$$CBV?$basic_string@DU?$char_traits@D@std@@V?$allocator@D@2@@std@@UFRIENDINFO@CFriendMgr@@@2@U_Kfn@?$map@V?$basic_string@DU?$char_traits@D@std@@V?$allocator@D@2@@std@@UFRIENDINFO@CFriendMgr@@U_tstring_less@@V?$allocator@UFRIENDINFO@CFriendMgr@@@2@@2@U_tstring_less@@V?$allocator@UFRIENDINFO@CFriendMgr@@@2@@std@@QAE?AViterator@12@ABV?$basic_string@DU?$char_traits@D@std@@V?$allocator@D@2@@2@@Z 00415f60 f i FriendMgr.obj
 0001:00014fe0       ?begin@?$_Tree@V?$basic_string@DU?$char_traits@D@std@@V?$allocator@D@2@@std@@U?$pair@$$CBV?$basic_string@DU?$char_traits@D@std@@V?$allocator@D@2@@std@@UPLAYERINFO@CFriendMgr@@@2@U_Kfn@?$map@V?$basic_string@DU?$char_traits@D@std@@V?$allocator@D@2@@std@@UPLAYERINFO@CFriendMgr@@U_tstring_less@@V?$allocator@UPLAYERINFO@CFriendMgr@@@2@@2@U_tstring_less@@V?$allocator@UPLAYERINFO@CFriendMgr@@@2@@std@@QAE?AViterator@12@XZ 00415fe0 f i FriendMgr.obj
 0001:00014ff0       ?insert@?$_Tree@V?$basic_string@DU?$char_traits@D@std@@V?$allocator@D@2@@std@@U?$pair@$$CBV?$basic_string@DU?$char_traits@D@std@@V?$allocator@D@2@@std@@UPLAYERINFO@CFriendMgr@@@2@U_Kfn@?$map@V?$basic_string@DU?$char_traits@D@std@@V?$allocator@D@2@@std@@UPLAYERINFO@CFriendMgr@@U_tstring_less@@V?$allocator@UPLAYERINFO@CFriendMgr@@@2@@2@U_tstring_less@@V?$allocator@UPLAYERINFO@CFriendMgr@@@2@@std@@QAE?AU?$pair@Viterator@?$_Tree@V?$basic_string@DU?$char_traits@D@std@@V?$allocator@D@2@@std@@U?$pair@$$CBV?$basic_string@DU?$char_traits@D@std@@V?$allocator@D@2@@std@@UPLAYERINFO@CFriendMgr@@@2@U_Kfn@?$map@V?$basic_string@DU?$char_traits@D@std@@V?$allocator@D@2@@std@@UPLAYERINFO@CFriendMgr@@U_tstring_less@@V?$allocator@UPLAYERINFO@CFriendMgr@@@2@@2@U_tstring_less@@V?$allocator@UPLAYERINFO@CFriendMgr@@@2@@std@@_N@2@ABU?$pair@$$CBV?$basic_string@DU?$char_traits@D@std@@V?$allocator@D@2@@std@@UPLAYERINFO@CFriendMgr@@@2@@Z 00415ff0 f i FriendMgr.obj
 0001:00015170       ?erase@?$_Tree@V?$basic_string@DU?$char_traits@D@std@@V?$allocator@D@2@@std@@U?$pair@$$CBV?$basic_string@DU?$char_traits@D@std@@V?$allocator@D@2@@std@@UPLAYERINFO@CFriendMgr@@@2@U_Kfn@?$map@V?$basic_string@DU?$char_traits@D@std@@V?$allocator@D@2@@std@@UPLAYERINFO@CFriendMgr@@U_tstring_less@@V?$allocator@UPLAYERINFO@CFriendMgr@@@2@@2@U_tstring_less@@V?$allocator@UPLAYERINFO@CFriendMgr@@@2@@std@@QAE?AViterator@12@V312@0@Z 00416170 f i FriendMgr.obj
 0001:000152b0       ?find@?$_Tree@V?$basic_string@DU?$char_traits@D@std@@V?$allocator@D@2@@std@@U?$pair@$$CBV?$basic_string@DU?$char_traits@D@std@@V?$allocator@D@2@@std@@UPLAYERINFO@CFriendMgr@@@2@U_Kfn@?$map@V?$basic_string@DU?$char_traits@D@std@@V?$allocator@D@2@@std@@UPLAYERINFO@CFriendMgr@@U_tstring_less@@V?$allocator@UPLAYERINFO@CFriendMgr@@@2@@2@U_tstring_less@@V?$allocator@UPLAYERINFO@CFriendMgr@@@2@@std@@QAE?AViterator@12@ABV?$basic_string@DU?$char_traits@D@std@@V?$allocator@D@2@@2@@Z 004162b0 f i FriendMgr.obj
 0001:00015330       ?_Dec@const_iterator@?$_Tree@V?$basic_string@DU?$char_traits@D@std@@V?$allocator@D@2@@std@@U?$pair@$$CBV?$basic_string@DU?$char_traits@D@std@@V?$allocator@D@2@@std@@UPLAYERINFO@CFriendMgr@@@2@U_Kfn@?$map@V?$basic_string@DU?$char_traits@D@std@@V?$allocator@D@2@@std@@UPLAYERINFO@CFriendMgr@@U_tstring_less@@V?$allocator@UPLAYERINFO@CFriendMgr@@@2@@2@U_tstring_less@@V?$allocator@UPLAYERINFO@CFriendMgr@@@2@@std@@QAEXXZ 00416330 f i FriendMgr.obj
 0001:000153f0       ?_Inc@const_iterator@?$_Tree@V?$basic_string@DU?$char_traits@D@std@@V?$allocator@D@2@@std@@U?$pair@$$CBV?$basic_string@DU?$char_traits@D@std@@V?$allocator@D@2@@std@@UPLAYERINFO@CFriendMgr@@@2@U_Kfn@?$map@V?$basic_string@DU?$char_traits@D@std@@V?$allocator@D@2@@std@@UPLAYERINFO@CFriendMgr@@U_tstring_less@@V?$allocator@UPLAYERINFO@CFriendMgr@@@2@@2@U_tstring_less@@V?$allocator@UPLAYERINFO@CFriendMgr@@@2@@std@@QAEXXZ 004163f0 f i FriendMgr.obj
 0001:000154a0       ?insert@?$map@UADDFRIENDKEY@CFriendMgr@@UADDFRIENDVALUE@2@U?$less@UADDFRIENDKEY@CFriendMgr@@@std@@V?$allocator@UADDFRIENDVALUE@CFriendMgr@@@5@@std@@QAE?AU?$pair@Viterator@?$_Tree@UADDFRIENDKEY@CFriendMgr@@U?$pair@$$CBUADDFRIENDKEY@CFriendMgr@@UADDFRIENDVALUE@2@@std@@U_Kfn@?$map@UADDFRIENDKEY@CFriendMgr@@UADDFRIENDVALUE@2@U?$less@UADDFRIENDKEY@CFriendMgr@@@std@@V?$allocator@UADDFRIENDVALUE@CFriendMgr@@@5@@4@U?$less@UADDFRIENDKEY@CFriendMgr@@@4@V?$allocator@UADDFRIENDVALUE@CFriendMgr@@@4@@std@@_N@2@ABU?$pair@$$CBUADDFRIENDKEY@CFriendMgr@@UADDFRIENDVALUE@2@@2@@Z 004164a0 f i FriendMgr.obj
 0001:000154d0       ?erase@?$_Tree@UADDFRIENDKEY@CFriendMgr@@U?$pair@$$CBUADDFRIENDKEY@CFriendMgr@@UADDFRIENDVALUE@2@@std@@U_Kfn@?$map@UADDFRIENDKEY@CFriendMgr@@UADDFRIENDVALUE@2@U?$less@UADDFRIENDKEY@CFriendMgr@@@std@@V?$allocator@UADDFRIENDVALUE@CFriendMgr@@@5@@4@U?$less@UADDFRIENDKEY@CFriendMgr@@@4@V?$allocator@UADDFRIENDVALUE@CFriendMgr@@@4@@std@@QAE?AViterator@12@V312@@Z 004164d0 f i FriendMgr.obj
 0001:00015a40       ?erase@?$_Tree@UADDFRIENDKEY@CFriendMgr@@U?$pair@$$CBUADDFRIENDKEY@CFriendMgr@@UADDFRIENDVALUE@2@@std@@U_Kfn@?$map@UADDFRIENDKEY@CFriendMgr@@UADDFRIENDVALUE@2@U?$less@UADDFRIENDKEY@CFriendMgr@@@std@@V?$allocator@UADDFRIENDVALUE@CFriendMgr@@@5@@4@U?$less@UADDFRIENDKEY@CFriendMgr@@@4@V?$allocator@UADDFRIENDVALUE@CFriendMgr@@@4@@std@@QAE?AViterator@12@V312@0@Z 00416a40 f i FriendMgr.obj
 0001:00015b80       ?find@?$_Tree@UADDFRIENDKEY@CFriendMgr@@U?$pair@$$CBUADDFRIENDKEY@CFriendMgr@@UADDFRIENDVALUE@2@@std@@U_Kfn@?$map@UADDFRIENDKEY@CFriendMgr@@UADDFRIENDVALUE@2@U?$less@UADDFRIENDKEY@CFriendMgr@@@std@@V?$allocator@UADDFRIENDVALUE@CFriendMgr@@@5@@4@U?$less@UADDFRIENDKEY@CFriendMgr@@@4@V?$allocator@UADDFRIENDVALUE@CFriendMgr@@@4@@std@@QAE?AViterator@12@ABUADDFRIENDKEY@CFriendMgr@@@Z 00416b80 f i FriendMgr.obj
 0001:00015c10       ?insert@?$list@UMEM_FRIENDRECORD@CFriendMgr@@V?$allocator@UMEM_FRIENDRECORD@CFriendMgr@@@std@@@std@@QAE?AViterator@12@V312@ABUMEM_FRIENDRECORD@CFriendMgr@@@Z 00416c10 f i FriendMgr.obj
 0001:00015c70       ?erase@?$list@UMEM_FRIENDRECORD@CFriendMgr@@V?$allocator@UMEM_FRIENDRECORD@CFriendMgr@@@std@@@std@@QAE?AViterator@12@V312@0@Z 00416c70 f i FriendMgr.obj
 0001:00015cd0       ?_Buynode@?$list@UMEM_FRIENDRECORD@CFriendMgr@@V?$allocator@UMEM_FRIENDRECORD@CFriendMgr@@@std@@@std@@IAEPAU_Node@12@PAU312@0@Z 00416cd0 f i FriendMgr.obj
 0001:00015d00       ?insert@?$map@KV?$list@UtagPlusSrcInfo@@V?$allocator@UtagPlusSrcInfo@@@std@@@std@@U?$less@K@2@V?$allocator@V?$list@UtagPlusSrcInfo@@V?$allocator@UtagPlusSrcInfo@@@std@@@std@@@2@@std@@QAE?AU?$pair@Viterator@?$_Tree@KU?$pair@$$CBKV?$list@UtagPlusSrcInfo@@V?$allocator@UtagPlusSrcInfo@@@std@@@std@@@std@@U_Kfn@?$map@KV?$list@UtagPlusSrcInfo@@V?$allocator@UtagPlusSrcInfo@@@std@@@std@@U?$less@K@2@V?$allocator@V?$list@UtagPlusSrcInfo@@V?$allocator@UtagPlusSrcInfo@@@std@@@std@@@2@@2@U?$less@K@2@V?$allocator@V?$list@UtagPlusSrcInfo@@V?$allocator@UtagPlusSrcInfo@@@std@@@std@@@2@@std@@_N@2@ABU?$pair@$$CBKV?$list@UtagPlusSrcInfo@@V?$allocator@UtagPlusSrcInfo@@@std@@@std@@@2@@Z 00416d00 f i FriendMgr.obj
 0001:00015d30       ??0?$_Tree@KU?$pair@$$CBKV?$list@UtagPlusSrcInfo@@V?$allocator@UtagPlusSrcInfo@@@std@@@std@@@std@@U_Kfn@?$map@KV?$list@UtagPlusSrcInfo@@V?$allocator@UtagPlusSrcInfo@@@std@@@std@@U?$less@K@2@V?$allocator@V?$list@UtagPlusSrcInfo@@V?$allocator@UtagPlusSrcInfo@@@std@@@std@@@2@@2@U?$less@K@2@V?$allocator@V?$list@UtagPlusSrcInfo@@V?$allocator@UtagPlusSrcInfo@@@std@@@std@@@2@@std@@QAE@ABU?$less@K@1@_NABV?$allocator@V?$list@UtagPlusSrcInfo@@V?$allocator@UtagPlusSrcInfo@@@std@@@std@@@1@@Z 00416d30 f i FriendMgr.obj
 0001:00015d60       ?erase@?$_Tree@KU?$pair@$$CBKV?$list@UtagPlusSrcInfo@@V?$allocator@UtagPlusSrcInfo@@@std@@@std@@@std@@U_Kfn@?$map@KV?$list@UtagPlusSrcInfo@@V?$allocator@UtagPlusSrcInfo@@@std@@@std@@U?$less@K@2@V?$allocator@V?$list@UtagPlusSrcInfo@@V?$allocator@UtagPlusSrcInfo@@@std@@@std@@@2@@2@U?$less@K@2@V?$allocator@V?$list@UtagPlusSrcInfo@@V?$allocator@UtagPlusSrcInfo@@@std@@@std@@@2@@std@@QAE?AViterator@12@V312@0@Z 00416d60 f i FriendMgr.obj
 0001:00015ea0       ??0?$pair@$$CBKV?$list@UtagPlusSrcInfo@@V?$allocator@UtagPlusSrcInfo@@@std@@@std@@@std@@QAE@ABKABV?$list@UtagPlusSrcInfo@@V?$allocator@UtagPlusSrcInfo@@@std@@@1@@Z 00416ea0 f i FriendMgr.obj
 0001:00015f40       ??0?$list@UtagPlusSrcInfo@@V?$allocator@UtagPlusSrcInfo@@@std@@@std@@QAE@ABV?$allocator@UtagPlusSrcInfo@@@1@@Z 00416f40 f i FriendMgr.obj
 0001:00015f70       ?insert@?$list@UtagPlusSrcInfo@@V?$allocator@UtagPlusSrcInfo@@@std@@@std@@QAE?AViterator@12@V312@ABUtagPlusSrcInfo@@@Z 00416f70 f i FriendMgr.obj
 0001:00015fd0       ?insert@?$map@V?$basic_string@DU?$char_traits@D@std@@V?$allocator@D@2@@std@@V?$list@U?$pair@EV?$basic_string@DU?$char_traits@D@std@@V?$allocator@D@2@@std@@@std@@V?$allocator@U?$pair@EV?$basic_string@DU?$char_traits@D@std@@V?$allocator@D@2@@std@@@std@@@2@@2@U_tstring_less@@V?$allocator@V?$list@U?$pair@EV?$basic_string@DU?$char_traits@D@std@@V?$allocator@D@2@@std@@@std@@V?$allocator@U?$pair@EV?$basic_string@DU?$char_traits@D@std@@V?$allocator@D@2@@std@@@std@@@2@@std@@@2@@std@@QAE?AU?$pair@Viterator@?$_Tree@V?$basic_string@DU?$char_traits@D@std@@V?$allocator@D@2@@std@@U?$pair@$$CBV?$basic_string@DU?$char_traits@D@std@@V?$allocator@D@2@@std@@V?$list@U?$pair@EV?$basic_string@DU?$char_traits@D@std@@V?$allocator@D@2@@std@@@std@@V?$allocator@U?$pair@EV?$basic_string@DU?$char_traits@D@std@@V?$allocator@D@2@@std@@@std@@@2@@2@@2@U_Kfn@?$map@V?$basic_string@DU?$char_traits@D@std@@V?$allocator@D@2@@std@@V?$list@U?$pair@EV?$basic_string@DU?$char_traits@D@std@@V?$allocator@D@2@@std@@@std@@V?$allocator@U?$pair@EV?$basic_string@DU?$char_traits@D@std@@V?$allocator@D@2@@std@@@std@@@2@@2@U_tstring_less@@V?$allocator@V?$list@U?$pair@EV?$basic_string@DU?$char_traits@D@std@@V?$allocator@D@2@@std@@@std@@V?$allocator@U?$pair@EV?$basic_string@DU?$char_traits@D@std@@V?$allocator@D@2@@std@@@std@@@2@@std@@@2@@2@U_tstring_less@@V?$allocator@V?$list@U?$pair@EV?$basic_string@DU?$char_traits@D@std@@V?$allocator@D@2@@std@@@std@@V?$allocator@U?$pair@EV?$basic_string@DU?$char_traits@D@std@@V?$allocator@D@2@@std@@@std@@@2@@std@@@2@@std@@_N@2@ABU?$pair@$$CBV?$basic_string@DU?$char_traits@D@std@@V?$allocator@D@2@@std@@V?$list@U?$pair@EV?$basic_string@DU?$char_traits@D@std@@V?$allocator@D@2@@std@@@std@@V?$allocator@U?$pair@EV?$basic_string@DU?$char_traits@D@std@@V?$allocator@D@2@@std@@@std@@@2@@2@@2@@Z 00416fd0 f i FriendMgr.obj
 0001:00016000       ??0?$_Tree@V?$basic_string@DU?$char_traits@D@std@@V?$allocator@D@2@@std@@U?$pair@$$CBV?$basic_string@DU?$char_traits@D@std@@V?$allocator@D@2@@std@@V?$list@U?$pair@EV?$basic_string@DU?$char_traits@D@std@@V?$allocator@D@2@@std@@@std@@V?$allocator@U?$pair@EV?$basic_string@DU?$char_traits@D@std@@V?$allocator@D@2@@std@@@std@@@2@@2@@2@U_Kfn@?$map@V?$basic_string@DU?$char_traits@D@std@@V?$allocator@D@2@@std@@V?$list@U?$pair@EV?$basic_string@DU?$char_traits@D@std@@V?$allocator@D@2@@std@@@std@@V?$allocator@U?$pair@EV?$basic_string@DU?$char_traits@D@std@@V?$allocator@D@2@@std@@@std@@@2@@2@U_tstring_less@@V?$allocator@V?$list@U?$pair@EV?$basic_string@DU?$char_traits@D@std@@V?$allocator@D@2@@std@@@std@@V?$allocator@U?$pair@EV?$basic_string@DU?$char_traits@D@std@@V?$allocator@D@2@@std@@@std@@@2@@std@@@2@@2@U_tstring_less@@V?$allocator@V?$list@U?$pair@EV?$basic_string@DU?$char_traits@D@std@@V?$allocator@D@2@@std@@@std@@V?$allocator@U?$pair@EV?$basic_string@DU?$char_traits@D@std@@V?$allocator@D@2@@std@@@std@@@2@@std@@@2@@std@@QAE@ABU_tstring_less@@_NABV?$allocator@V?$list@U?$pair@EV?$basic_string@DU?$char_traits@D@std@@V?$allocator@D@2@@std@@@std@@V?$allocator@U?$pair@EV?$basic_string@DU?$char_traits@D@std@@V?$allocator@D@2@@std@@@std@@@2@@std@@@1@@Z 00417000 f i FriendMgr.obj
 0001:00016030       ?erase@?$_Tree@V?$basic_string@DU?$char_traits@D@std@@V?$allocator@D@2@@std@@U?$pair@$$CBV?$basic_string@DU?$char_traits@D@std@@V?$allocator@D@2@@std@@V?$list@U?$pair@EV?$basic_string@DU?$char_traits@D@std@@V?$allocator@D@2@@std@@@std@@V?$allocator@U?$pair@EV?$basic_string@DU?$char_traits@D@std@@V?$allocator@D@2@@std@@@std@@@2@@2@@2@U_Kfn@?$map@V?$basic_string@DU?$char_traits@D@std@@V?$allocator@D@2@@std@@V?$list@U?$pair@EV?$basic_string@DU?$char_traits@D@std@@V?$allocator@D@2@@std@@@std@@V?$allocator@U?$pair@EV?$basic_string@DU?$char_traits@D@std@@V?$allocator@D@2@@std@@@std@@@2@@2@U_tstring_less@@V?$allocator@V?$list@U?$pair@EV?$basic_string@DU?$char_traits@D@std@@V?$allocator@D@2@@std@@@std@@V?$allocator@U?$pair@EV?$basic_string@DU?$char_traits@D@std@@V?$allocator@D@2@@std@@@std@@@2@@std@@@2@@2@U_tstring_less@@V?$allocator@V?$list@U?$pair@EV?$basic_string@DU?$char_traits@D@std@@V?$allocator@D@2@@std@@@std@@V?$allocator@U?$pair@EV?$basic_string@DU?$char_traits@D@std@@V?$allocator@D@2@@std@@@std@@@2@@std@@@2@@std@@QAE?AViterator@12@V312@0@Z 00417030 f i FriendMgr.obj
 0001:00016170       ??0?$pair@$$CBV?$basic_string@DU?$char_traits@D@std@@V?$allocator@D@2@@std@@V?$list@U?$pair@EV?$basic_string@DU?$char_traits@D@std@@V?$allocator@D@2@@std@@@std@@V?$allocator@U?$pair@EV?$basic_string@DU?$char_traits@D@std@@V?$allocator@D@2@@std@@@std@@@2@@2@@std@@QAE@ABV?$basic_string@DU?$char_traits@D@std@@V?$allocator@D@2@@1@ABV?$list@U?$pair@EV?$basic_string@DU?$char_traits@D@std@@V?$allocator@D@2@@std@@@std@@V?$allocator@U?$pair@EV?$basic_string@DU?$char_traits@D@std@@V?$allocator@D@2@@std@@@std@@@2@@1@@Z 00417170 f i FriendMgr.obj
 0001:000162c0       ??0?$list@U?$pair@EV?$basic_string@DU?$char_traits@D@std@@V?$allocator@D@2@@std@@@std@@V?$allocator@U?$pair@EV?$basic_string@DU?$char_traits@D@std@@V?$allocator@D@2@@std@@@std@@@2@@std@@QAE@ABV?$allocator@U?$pair@EV?$basic_string@DU?$char_traits@D@std@@V?$allocator@D@2@@std@@@std@@@1@@Z 004172c0 f i FriendMgr.obj
 0001:000162f0       ??1?$list@U?$pair@EV?$basic_string@DU?$char_traits@D@std@@V?$allocator@D@2@@std@@@std@@V?$allocator@U?$pair@EV?$basic_string@DU?$char_traits@D@std@@V?$allocator@D@2@@std@@@std@@@2@@std@@QAE@XZ 004172f0 f i FriendMgr.obj
 0001:00016350       ?insert@?$list@U?$pair@EV?$basic_string@DU?$char_traits@D@std@@V?$allocator@D@2@@std@@@std@@V?$allocator@U?$pair@EV?$basic_string@DU?$char_traits@D@std@@V?$allocator@D@2@@std@@@std@@@2@@std@@QAE?AViterator@12@V312@ABU?$pair@EV?$basic_string@DU?$char_traits@D@std@@V?$allocator@D@2@@std@@@2@@Z 00417350 f i FriendMgr.obj
 0001:000163b0       ??0?$pair@Viterator@?$_Tree@V?$basic_string@DU?$char_traits@D@std@@V?$allocator@D@2@@std@@U?$pair@$$CBV?$basic_string@DU?$char_traits@D@std@@V?$allocator@D@2@@std@@UPLAYERINFO@CFriendMgr@@@2@U_Kfn@?$map@V?$basic_string@DU?$char_traits@D@std@@V?$allocator@D@2@@std@@UPLAYERINFO@CFriendMgr@@U_tstring_less@@V?$allocator@UPLAYERINFO@CFriendMgr@@@2@@2@U_tstring_less@@V?$allocator@UPLAYERINFO@CFriendMgr@@@2@@std@@_N@std@@QAE@ABViterator@?$_Tree@V?$basic_string@DU?$char_traits@D@std@@V?$allocator@D@2@@std@@U?$pair@$$CBV?$basic_string@DU?$char_traits@D@std@@V?$allocator@D@2@@std@@UPLAYERINFO@CFriendMgr@@@2@U_Kfn@?$map@V?$basic_string@DU?$char_traits@D@std@@V?$allocator@D@2@@std@@UPLAYERINFO@CFriendMgr@@U_tstring_less@@V?$allocator@UPLAYERINFO@CFriendMgr@@@2@@2@U_tstring_less@@V?$allocator@UPLAYERINFO@CFriendMgr@@@2@@1@AB_N@Z 004173b0 f i FriendMgr.obj
 0001:000163d0       ??0?$pair@Viterator@?$_Tree@V?$basic_string@DU?$char_traits@D@std@@V?$allocator@D@2@@std@@U?$pair@$$CBV?$basic_string@DU?$char_traits@D@std@@V?$allocator@D@2@@std@@UFRIENDINFO@CFriendMgr@@@2@U_Kfn@?$map@V?$basic_string@DU?$char_traits@D@std@@V?$allocator@D@2@@std@@UFRIENDINFO@CFriendMgr@@U_tstring_less@@V?$allocator@UFRIENDINFO@CFriendMgr@@@2@@2@U_tstring_less@@V?$allocator@UFRIENDINFO@CFriendMgr@@@2@@std@@_N@std@@QAE@ABViterator@?$_Tree@V?$basic_string@DU?$char_traits@D@std@@V?$allocator@D@2@@std@@U?$pair@$$CBV?$basic_string@DU?$char_traits@D@std@@V?$allocator@D@2@@std@@UFRIENDINFO@CFriendMgr@@@2@U_Kfn@?$map@V?$basic_string@DU?$char_traits@D@std@@V?$allocator@D@2@@std@@UFRIENDINFO@CFriendMgr@@U_tstring_less@@V?$allocator@UFRIENDINFO@CFriendMgr@@@2@@2@U_tstring_less@@V?$allocator@UFRIENDINFO@CFriendMgr@@@2@@1@AB_N@Z 004173d0 f i FriendMgr.obj
 0001:000163f0       ?insert@?$list@UONEPLAYER@CFriendMgr@@V?$allocator@UONEPLAYER@CFriendMgr@@@std@@@std@@QAE?AViterator@12@V312@ABUONEPLAYER@CFriendMgr@@@Z 004173f0 f i FriendMgr.obj
 0001:00016450       ?erase@?$list@UONEPLAYER@CFriendMgr@@V?$allocator@UONEPLAYER@CFriendMgr@@@std@@@std@@QAE?AViterator@12@V312@@Z 00417450 f i FriendMgr.obj
 0001:00016490       ?erase@?$list@UONEPLAYER@CFriendMgr@@V?$allocator@UONEPLAYER@CFriendMgr@@@std@@@std@@QAE?AViterator@12@V312@0@Z 00417490 f i FriendMgr.obj
 0001:000164f0       ?_Buynode@?$list@UONEPLAYER@CFriendMgr@@V?$allocator@UONEPLAYER@CFriendMgr@@@std@@@std@@IAEPAU_Node@12@PAU312@0@Z 004174f0 f i FriendMgr.obj
 0001:00016520       ?insert@?$list@V?$basic_string@DU?$char_traits@D@std@@V?$allocator@D@2@@std@@V?$allocator@V?$basic_string@DU?$char_traits@D@std@@V?$allocator@D@2@@std@@@2@@std@@QAE?AViterator@12@V312@ABV?$basic_string@DU?$char_traits@D@std@@V?$allocator@D@2@@2@@Z 00417520 f i FriendMgr.obj
 0001:00016580       ?erase@?$list@V?$basic_string@DU?$char_traits@D@std@@V?$allocator@D@2@@std@@V?$allocator@V?$basic_string@DU?$char_traits@D@std@@V?$allocator@D@2@@std@@@2@@std@@QAE?AViterator@12@V312@0@Z 00417580 f i FriendMgr.obj
 0001:00016610       ?_Buynode@?$list@V?$basic_string@DU?$char_traits@D@std@@V?$allocator@D@2@@std@@V?$allocator@V?$basic_string@DU?$char_traits@D@std@@V?$allocator@D@2@@std@@@2@@std@@IAEPAU_Node@12@PAU312@0@Z 00417610 f i FriendMgr.obj
 0001:00016640       ?insert@?$vector@Viterator@?$_Tree@V?$basic_string@DU?$char_traits@D@std@@V?$allocator@D@2@@std@@U?$pair@$$CBV?$basic_string@DU?$char_traits@D@std@@V?$allocator@D@2@@std@@UPLAYERINFO@CFriendMgr@@@2@U_Kfn@?$map@V?$basic_string@DU?$char_traits@D@std@@V?$allocator@D@2@@std@@UPLAYERINFO@CFriendMgr@@U_tstring_less@@V?$allocator@UPLAYERINFO@CFriendMgr@@@2@@2@U_tstring_less@@V?$allocator@UPLAYERINFO@CFriendMgr@@@2@@std@@V?$allocator@Viterator@?$_Tree@V?$basic_string@DU?$char_traits@D@std@@V?$allocator@D@2@@std@@U?$pair@$$CBV?$basic_string@DU?$char_traits@D@std@@V?$allocator@D@2@@std@@UPLAYERINFO@CFriendMgr@@@2@U_Kfn@?$map@V?$basic_string@DU?$char_traits@D@std@@V?$allocator@D@2@@std@@UPLAYERINFO@CFriendMgr@@U_tstring_less@@V?$allocator@UPLAYERINFO@CFriendMgr@@@2@@2@U_tstring_less@@V?$allocator@UPLAYERINFO@CFriendMgr@@@2@@std@@@3@@std@@QAEPAViterator@?$_Tree@V?$basic_string@DU?$char_traits@D@std@@V?$allocator@D@2@@std@@U?$pair@$$CBV?$basic_string@DU?$char_traits@D@std@@V?$allocator@D@2@@std@@UPLAYERINFO@CFriendMgr@@@2@U_Kfn@?$map@V?$basic_string@DU?$char_traits@D@std@@V?$allocator@D@2@@std@@UPLAYERINFO@CFriendMgr@@U_tstring_less@@V?$allocator@UPLAYERINFO@CFriendMgr@@@2@@2@U_tstring_less@@V?$allocator@UPLAYERINFO@CFriendMgr@@@2@@2@PAV342@ABV342@@Z 00417640 f i FriendMgr.obj
 0001:000167e0       ?size@?$vector@Viterator@?$_Tree@V?$basic_string@DU?$char_traits@D@std@@V?$allocator@D@2@@std@@U?$pair@$$CBV?$basic_string@DU?$char_traits@D@std@@V?$allocator@D@2@@std@@UPLAYERINFO@CFriendMgr@@@2@U_Kfn@?$map@V?$basic_string@DU?$char_traits@D@std@@V?$allocator@D@2@@std@@UPLAYERINFO@CFriendMgr@@U_tstring_less@@V?$allocator@UPLAYERINFO@CFriendMgr@@@2@@2@U_tstring_less@@V?$allocator@UPLAYERINFO@CFriendMgr@@@2@@std@@V?$allocator@Viterator@?$_Tree@V?$basic_string@DU?$char_traits@D@std@@V?$allocator@D@2@@std@@U?$pair@$$CBV?$basic_string@DU?$char_traits@D@std@@V?$allocator@D@2@@std@@UPLAYERINFO@CFriendMgr@@@2@U_Kfn@?$map@V?$basic_string@DU?$char_traits@D@std@@V?$allocator@D@2@@std@@UPLAYERINFO@CFriendMgr@@U_tstring_less@@V?$allocator@UPLAYERINFO@CFriendMgr@@@2@@2@U_tstring_less@@V?$allocator@UPLAYERINFO@CFriendMgr@@@2@@std@@@3@@std@@QBEIXZ 004177e0 f i FriendMgr.obj
 0001:00016800       ?_Destroy@?$vector@Viterator@?$_Tree@V?$basic_string@DU?$char_traits@D@std@@V?$allocator@D@2@@std@@U?$pair@$$CBV?$basic_string@DU?$char_traits@D@std@@V?$allocator@D@2@@std@@UPLAYERINFO@CFriendMgr@@@2@U_Kfn@?$map@V?$basic_string@DU?$char_traits@D@std@@V?$allocator@D@2@@std@@UPLAYERINFO@CFriendMgr@@U_tstring_less@@V?$allocator@UPLAYERINFO@CFriendMgr@@@2@@2@U_tstring_less@@V?$allocator@UPLAYERINFO@CFriendMgr@@@2@@std@@V?$allocator@Viterator@?$_Tree@V?$basic_string@DU?$char_traits@D@std@@V?$allocator@D@2@@std@@U?$pair@$$CBV?$basic_string@DU?$char_traits@D@std@@V?$allocator@D@2@@std@@UPLAYERINFO@CFriendMgr@@@2@U_Kfn@?$map@V?$basic_string@DU?$char_traits@D@std@@V?$allocator@D@2@@std@@UPLAYERINFO@CFriendMgr@@U_tstring_less@@V?$allocator@UPLAYERINFO@CFriendMgr@@@2@@2@U_tstring_less@@V?$allocator@UPLAYERINFO@CFriendMgr@@@2@@std@@@3@@std@@IAEXPAViterator@?$_Tree@V?$basic_string@DU?$char_traits@D@std@@V?$allocator@D@2@@std@@U?$pair@$$CBV?$basic_string@DU?$char_traits@D@std@@V?$allocator@D@2@@std@@UPLAYERINFO@CFriendMgr@@@2@U_Kfn@?$map@V?$basic_string@DU?$char_traits@D@std@@V?$allocator@D@2@@std@@UPLAYERINFO@CFriendMgr@@U_tstring_less@@V?$allocator@UPLAYERINFO@CFriendMgr@@@2@@2@U_tstring_less@@V?$allocator@UPLAYERINFO@CFriendMgr@@@2@@2@0@Z 00417800 f i FriendMgr.obj
 0001:00016810       ??0ADDFRIENDKEY@CFriendMgr@@QAE@ABU01@@Z 00417810 f i FriendMgr.obj
 0001:00016950       ??0ADDFRIENDVALUE@CFriendMgr@@QAE@ABU01@@Z 00417950 f i FriendMgr.obj
 0001:00016a90       ?lower_bound@?$_Tree@V?$basic_string@DU?$char_traits@D@std@@V?$allocator@D@2@@std@@U?$pair@$$CBV?$basic_string@DU?$char_traits@D@std@@V?$allocator@D@2@@std@@UFRIENDINFO@CFriendMgr@@@2@U_Kfn@?$map@V?$basic_string@DU?$char_traits@D@std@@V?$allocator@D@2@@std@@UFRIENDINFO@CFriendMgr@@U_tstring_less@@V?$allocator@UFRIENDINFO@CFriendMgr@@@2@@2@U_tstring_less@@V?$allocator@UFRIENDINFO@CFriendMgr@@@2@@std@@QAE?AViterator@12@ABV?$basic_string@DU?$char_traits@D@std@@V?$allocator@D@2@@2@@Z 00417a90 f i FriendMgr.obj
 0001:00016ab0       ?equal_range@?$_Tree@V?$basic_string@DU?$char_traits@D@std@@V?$allocator@D@2@@std@@U?$pair@$$CBV?$basic_string@DU?$char_traits@D@std@@V?$allocator@D@2@@std@@UFRIENDINFO@CFriendMgr@@@2@U_Kfn@?$map@V?$basic_string@DU?$char_traits@D@std@@V?$allocator@D@2@@std@@UFRIENDINFO@CFriendMgr@@U_tstring_less@@V?$allocator@UFRIENDINFO@CFriendMgr@@@2@@2@U_tstring_less@@V?$allocator@UFRIENDINFO@CFriendMgr@@@2@@std@@QAE?AU?$pair@Viterator@?$_Tree@V?$basic_string@DU?$char_traits@D@std@@V?$allocator@D@2@@std@@U?$pair@$$CBV?$basic_string@DU?$char_traits@D@std@@V?$allocator@D@2@@std@@UFRIENDINFO@CFriendMgr@@@2@U_Kfn@?$map@V?$basic_string@DU?$char_traits@D@std@@V?$allocator@D@2@@std@@UFRIENDINFO@CFriendMgr@@U_tstring_less@@V?$allocator@UFRIENDINFO@CFriendMgr@@@2@@2@U_tstring_less@@V?$allocator@UFRIENDINFO@CFriendMgr@@@2@@std@@V123@@2@ABV?$basic_string@DU?$char_traits@D@std@@V?$allocator@D@2@@2@@Z 00417ab0 f i FriendMgr.obj
 0001:00016ae0       ?_Copy@?$_Tree@V?$basic_string@DU?$char_traits@D@std@@V?$allocator@D@2@@std@@U?$pair@$$CBV?$basic_string@DU?$char_traits@D@std@@V?$allocator@D@2@@std@@UFRIENDINFO@CFriendMgr@@@2@U_Kfn@?$map@V?$basic_string@DU?$char_traits@D@std@@V?$allocator@D@2@@std@@UFRIENDINFO@CFriendMgr@@U_tstring_less@@V?$allocator@UFRIENDINFO@CFriendMgr@@@2@@2@U_tstring_less@@V?$allocator@UFRIENDINFO@CFriendMgr@@@2@@std@@IAEXABV12@@Z 00417ae0 f i FriendMgr.obj
 0001:00016c60       ?_Erase@?$_Tree@V?$basic_string@DU?$char_traits@D@std@@V?$allocator@D@2@@std@@U?$pair@$$CBV?$basic_string@DU?$char_traits@D@std@@V?$allocator@D@2@@std@@UFRIENDINFO@CFriendMgr@@@2@U_Kfn@?$map@V?$basic_string@DU?$char_traits@D@std@@V?$allocator@D@2@@std@@UFRIENDINFO@CFriendMgr@@U_tstring_less@@V?$allocator@UFRIENDINFO@CFriendMgr@@@2@@2@U_tstring_less@@V?$allocator@UFRIENDINFO@CFriendMgr@@@2@@std@@IAEXPAU_Node@12@@Z 00417c60 f i FriendMgr.obj
 0001:00016d40       ?_Insert@?$_Tree@V?$basic_string@DU?$char_traits@D@std@@V?$allocator@D@2@@std@@U?$pair@$$CBV?$basic_string@DU?$char_traits@D@std@@V?$allocator@D@2@@std@@UFRIENDINFO@CFriendMgr@@@2@U_Kfn@?$map@V?$basic_string@DU?$char_traits@D@std@@V?$allocator@D@2@@std@@UFRIENDINFO@CFriendMgr@@U_tstring_less@@V?$allocator@UFRIENDINFO@CFriendMgr@@@2@@2@U_tstring_less@@V?$allocator@UFRIENDINFO@CFriendMgr@@@2@@std@@IAE?AViterator@12@PAU_Node@12@0ABU?$pair@$$CBV?$basic_string@DU?$char_traits@D@std@@V?$allocator@D@2@@std@@UFRIENDINFO@CFriendMgr@@@2@@Z 00417d40 f i FriendMgr.obj
 0001:00017070       ?_Inc@const_iterator@?$_Tree@V?$basic_string@DU?$char_traits@D@std@@V?$allocator@D@2@@std@@U?$pair@$$CBV?$basic_string@DU?$char_traits@D@std@@V?$allocator@D@2@@std@@UFRIENDINFO@CFriendMgr@@@2@U_Kfn@?$map@V?$basic_string@DU?$char_traits@D@std@@V?$allocator@D@2@@std@@UFRIENDINFO@CFriendMgr@@U_tstring_less@@V?$allocator@UFRIENDINFO@CFriendMgr@@@2@@2@U_tstring_less@@V?$allocator@UFRIENDINFO@CFriendMgr@@@2@@std@@QAEXXZ 00418070 f i FriendMgr.obj
 0001:00017120       ?erase@?$_Tree@V?$basic_string@DU?$char_traits@D@std@@V?$allocator@D@2@@std@@U?$pair@$$CBV?$basic_string@DU?$char_traits@D@std@@V?$allocator@D@2@@std@@UPLAYERINFO@CFriendMgr@@@2@U_Kfn@?$map@V?$basic_string@DU?$char_traits@D@std@@V?$allocator@D@2@@std@@UPLAYERINFO@CFriendMgr@@U_tstring_less@@V?$allocator@UPLAYERINFO@CFriendMgr@@@2@@2@U_tstring_less@@V?$allocator@UPLAYERINFO@CFriendMgr@@@2@@std@@QAE?AViterator@12@V312@@Z 00418120 f i FriendMgr.obj
 0001:00017710       ?deallocate@?$allocator@UFRIENDINFO@CFriendMgr@@@std@@QAEXPAXI@Z 00418710 f i FriendMgr.obj
 0001:00017720       ?_Lmost@?$_Tree@V?$basic_string@DU?$char_traits@D@std@@V?$allocator@D@2@@std@@U?$pair@$$CBV?$basic_string@DU?$char_traits@D@std@@V?$allocator@D@2@@std@@UFRIENDINFO@CFriendMgr@@@2@U_Kfn@?$map@V?$basic_string@DU?$char_traits@D@std@@V?$allocator@D@2@@std@@UFRIENDINFO@CFriendMgr@@U_tstring_less@@V?$allocator@UFRIENDINFO@CFriendMgr@@@2@@2@U_tstring_less@@V?$allocator@UFRIENDINFO@CFriendMgr@@@2@@std@@IAEAAPAU_Node@12@XZ 00418720 f i FriendMgr.obj
 0001:00017730       ??0iterator@?$_Tree@V?$basic_string@DU?$char_traits@D@std@@V?$allocator@D@2@@std@@U?$pair@$$CBV?$basic_string@DU?$char_traits@D@std@@V?$allocator@D@2@@std@@UFRIENDINFO@CFriendMgr@@@2@U_Kfn@?$map@V?$basic_string@DU?$char_traits@D@std@@V?$allocator@D@2@@std@@UFRIENDINFO@CFriendMgr@@U_tstring_less@@V?$allocator@UFRIENDINFO@CFriendMgr@@@2@@2@U_tstring_less@@V?$allocator@UFRIENDINFO@CFriendMgr@@@2@@std@@QAE@PAU_Node@12@@Z 00418730 f i FriendMgr.obj
 0001:00017740       ?_Erase@?$_Tree@V?$basic_string@DU?$char_traits@D@std@@V?$allocator@D@2@@std@@U?$pair@$$CBV?$basic_string@DU?$char_traits@D@std@@V?$allocator@D@2@@std@@UPLAYERINFO@CFriendMgr@@@2@U_Kfn@?$map@V?$basic_string@DU?$char_traits@D@std@@V?$allocator@D@2@@std@@UPLAYERINFO@CFriendMgr@@U_tstring_less@@V?$allocator@UPLAYERINFO@CFriendMgr@@@2@@2@U_tstring_less@@V?$allocator@UPLAYERINFO@CFriendMgr@@@2@@std@@IAEXPAU_Node@12@@Z 00418740 f i FriendMgr.obj
 0001:000178a0       ?_Init@?$_Tree@V?$basic_string@DU?$char_traits@D@std@@V?$allocator@D@2@@std@@U?$pair@$$CBV?$basic_string@DU?$char_traits@D@std@@V?$allocator@D@2@@std@@UPLAYERINFO@CFriendMgr@@@2@U_Kfn@?$map@V?$basic_string@DU?$char_traits@D@std@@V?$allocator@D@2@@std@@UPLAYERINFO@CFriendMgr@@U_tstring_less@@V?$allocator@UPLAYERINFO@CFriendMgr@@@2@@2@U_tstring_less@@V?$allocator@UPLAYERINFO@CFriendMgr@@@2@@std@@IAEXXZ 004188a0 f i FriendMgr.obj
 0001:00017950       ?_Insert@?$_Tree@V?$basic_string@DU?$char_traits@D@std@@V?$allocator@D@2@@std@@U?$pair@$$CBV?$basic_string@DU?$char_traits@D@std@@V?$allocator@D@2@@std@@UPLAYERINFO@CFriendMgr@@@2@U_Kfn@?$map@V?$basic_string@DU?$char_traits@D@std@@V?$allocator@D@2@@std@@UPLAYERINFO@CFriendMgr@@U_tstring_less@@V?$allocator@UPLAYERINFO@CFriendMgr@@@2@@2@U_tstring_less@@V?$allocator@UPLAYERINFO@CFriendMgr@@@2@@std@@IAE?AViterator@12@PAU_Node@12@0ABU?$pair@$$CBV?$basic_string@DU?$char_traits@D@std@@V?$allocator@D@2@@std@@UPLAYERINFO@CFriendMgr@@@2@@Z 00418950 f i FriendMgr.obj
 0001:00017c80       ?insert@?$_Tree@UADDFRIENDKEY@CFriendMgr@@U?$pair@$$CBUADDFRIENDKEY@CFriendMgr@@UADDFRIENDVALUE@2@@std@@U_Kfn@?$map@UADDFRIENDKEY@CFriendMgr@@UADDFRIENDVALUE@2@U?$less@UADDFRIENDKEY@CFriendMgr@@@std@@V?$allocator@UADDFRIENDVALUE@CFriendMgr@@@5@@4@U?$less@UADDFRIENDKEY@CFriendMgr@@@4@V?$allocator@UADDFRIENDVALUE@CFriendMgr@@@4@@std@@QAE?AU?$pair@Viterator@?$_Tree@UADDFRIENDKEY@CFriendMgr@@U?$pair@$$CBUADDFRIENDKEY@CFriendMgr@@UADDFRIENDVALUE@2@@std@@U_Kfn@?$map@UADDFRIENDKEY@CFriendMgr@@UADDFRIENDVALUE@2@U?$less@UADDFRIENDKEY@CFriendMgr@@@std@@V?$allocator@UADDFRIENDVALUE@CFriendMgr@@@5@@4@U?$less@UADDFRIENDKEY@CFriendMgr@@@4@V?$allocator@UADDFRIENDVALUE@CFriendMgr@@@4@@std@@_N@2@ABU?$pair@$$CBUADDFRIENDKEY@CFriendMgr@@UADDFRIENDVALUE@2@@2@@Z 00418c80 f i FriendMgr.obj
 0001:00017dd0       ??MADDFRIENDKEY@CFriendMgr@@QBE_NABU01@@Z 00418dd0 f i FriendMgr.obj
 0001:00017e30       ?_Erase@?$_Tree@UADDFRIENDKEY@CFriendMgr@@U?$pair@$$CBUADDFRIENDKEY@CFriendMgr@@UADDFRIENDVALUE@2@@std@@U_Kfn@?$map@UADDFRIENDKEY@CFriendMgr@@UADDFRIENDVALUE@2@U?$less@UADDFRIENDKEY@CFriendMgr@@@std@@V?$allocator@UADDFRIENDVALUE@CFriendMgr@@@5@@4@U?$less@UADDFRIENDKEY@CFriendMgr@@@4@V?$allocator@UADDFRIENDVALUE@CFriendMgr@@@4@@std@@IAEXPAU_Node@12@@Z 00418e30 f i FriendMgr.obj
 0001:00017f10       ?_Init@?$_Tree@UADDFRIENDKEY@CFriendMgr@@U?$pair@$$CBUADDFRIENDKEY@CFriendMgr@@UADDFRIENDVALUE@2@@std@@U_Kfn@?$map@UADDFRIENDKEY@CFriendMgr@@UADDFRIENDVALUE@2@U?$less@UADDFRIENDKEY@CFriendMgr@@@std@@V?$allocator@UADDFRIENDVALUE@CFriendMgr@@@5@@4@U?$less@UADDFRIENDKEY@CFriendMgr@@@4@V?$allocator@UADDFRIENDVALUE@CFriendMgr@@@4@@std@@IAEXXZ 00418f10 f i FriendMgr.obj
 0001:00017fc0       ?erase@?$list@UMEM_FRIENDRECORD@CFriendMgr@@V?$allocator@UMEM_FRIENDRECORD@CFriendMgr@@@std@@@std@@QAE?AViterator@12@V312@@Z 00418fc0 f i FriendMgr.obj
 0001:00018000       ?insert@?$_Tree@KU?$pair@$$CBKV?$list@UtagPlusSrcInfo@@V?$allocator@UtagPlusSrcInfo@@@std@@@std@@@std@@U_Kfn@?$map@KV?$list@UtagPlusSrcInfo@@V?$allocator@UtagPlusSrcInfo@@@std@@@std@@U?$less@K@2@V?$allocator@V?$list@UtagPlusSrcInfo@@V?$allocator@UtagPlusSrcInfo@@@std@@@std@@@2@@2@U?$less@K@2@V?$allocator@V?$list@UtagPlusSrcInfo@@V?$allocator@UtagPlusSrcInfo@@@std@@@std@@@2@@std@@QAE?AU?$pair@Viterator@?$_Tree@KU?$pair@$$CBKV?$list@UtagPlusSrcInfo@@V?$allocator@UtagPlusSrcInfo@@@std@@@std@@@std@@U_Kfn@?$map@KV?$list@UtagPlusSrcInfo@@V?$allocator@UtagPlusSrcInfo@@@std@@@std@@U?$less@K@2@V?$allocator@V?$list@UtagPlusSrcInfo@@V?$allocator@UtagPlusSrcInfo@@@std@@@std@@@2@@2@U?$less@K@2@V?$allocator@V?$list@UtagPlusSrcInfo@@V?$allocator@UtagPlusSrcInfo@@@std@@@std@@@2@@std@@_N@2@ABU?$pair@$$CBKV?$list@UtagPlusSrcInfo@@V?$allocator@UtagPlusSrcInfo@@@std@@@std@@@2@@Z 00419000 f i FriendMgr.obj
 0001:00018130       ?erase@?$_Tree@KU?$pair@$$CBKV?$list@UtagPlusSrcInfo@@V?$allocator@UtagPlusSrcInfo@@@std@@@std@@@std@@U_Kfn@?$map@KV?$list@UtagPlusSrcInfo@@V?$allocator@UtagPlusSrcInfo@@@std@@@std@@U?$less@K@2@V?$allocator@V?$list@UtagPlusSrcInfo@@V?$allocator@UtagPlusSrcInfo@@@std@@@std@@@2@@2@U?$less@K@2@V?$allocator@V?$list@UtagPlusSrcInfo@@V?$allocator@UtagPlusSrcInfo@@@std@@@std@@@2@@std@@QAE?AViterator@12@V312@@Z 00419130 f i FriendMgr.obj
 0001:00018670       ?_Next@_Acc@?$list@UtagPlusSrcInfo@@V?$allocator@UtagPlusSrcInfo@@@std@@@std@@SAAAPAU_Node@23@PAU423@@Z 00419670 f i FriendMgr.obj
 0001:00018680       ?_Erase@?$_Tree@KU?$pair@$$CBKV?$list@UtagPlusSrcInfo@@V?$allocator@UtagPlusSrcInfo@@@std@@@std@@@std@@U_Kfn@?$map@KV?$list@UtagPlusSrcInfo@@V?$allocator@UtagPlusSrcInfo@@@std@@@std@@U?$less@K@2@V?$allocator@V?$list@UtagPlusSrcInfo@@V?$allocator@UtagPlusSrcInfo@@@std@@@std@@@2@@2@U?$less@K@2@V?$allocator@V?$list@UtagPlusSrcInfo@@V?$allocator@UtagPlusSrcInfo@@@std@@@std@@@2@@std@@IAEXPAU_Node@12@@Z 00419680 f i FriendMgr.obj
 0001:00018760       ?_Init@?$_Tree@KU?$pair@$$CBKV?$list@UtagPlusSrcInfo@@V?$allocator@UtagPlusSrcInfo@@@std@@@std@@@std@@U_Kfn@?$map@KV?$list@UtagPlusSrcInfo@@V?$allocator@UtagPlusSrcInfo@@@std@@@std@@U?$less@K@2@V?$allocator@V?$list@UtagPlusSrcInfo@@V?$allocator@UtagPlusSrcInfo@@@std@@@std@@@2@@2@U?$less@K@2@V?$allocator@V?$list@UtagPlusSrcInfo@@V?$allocator@UtagPlusSrcInfo@@@std@@@std@@@2@@std@@IAEXXZ 00419760 f i FriendMgr.obj
 0001:00018810       ?_Inc@const_iterator@?$_Tree@KU?$pair@$$CBKV?$list@UtagPlusSrcInfo@@V?$allocator@UtagPlusSrcInfo@@@std@@@std@@@std@@U_Kfn@?$map@KV?$list@UtagPlusSrcInfo@@V?$allocator@UtagPlusSrcInfo@@@std@@@std@@U?$less@K@2@V?$allocator@V?$list@UtagPlusSrcInfo@@V?$allocator@UtagPlusSrcInfo@@@std@@@std@@@2@@2@U?$less@K@2@V?$allocator@V?$list@UtagPlusSrcInfo@@V?$allocator@UtagPlusSrcInfo@@@std@@@std@@@2@@std@@QAEXXZ 00419810 f i FriendMgr.obj
 0001:000188c0       ?insert@?$_Tree@V?$basic_string@DU?$char_traits@D@std@@V?$allocator@D@2@@std@@U?$pair@$$CBV?$basic_string@DU?$char_traits@D@std@@V?$allocator@D@2@@std@@V?$list@U?$pair@EV?$basic_string@DU?$char_traits@D@std@@V?$allocator@D@2@@std@@@std@@V?$allocat936a1ecb 004198c0 f i FriendMgr.obj
 0001:00018a40       ?erase@?$_Tree@V?$basic_string@DU?$char_traits@D@std@@V?$allocator@D@2@@std@@U?$pair@$$CBV?$basic_string@DU?$char_traits@D@std@@V?$allocator@D@2@@std@@V?$list@U?$pair@EV?$basic_string@DU?$char_traits@D@std@@V?$allocator@D@2@@std@@@std@@V?$allocator@U?$pair@EV?$basic_string@DU?$char_traits@D@std@@V?$allocator@D@2@@std@@@std@@@2@@2@@2@U_Kfn@?$map@V?$basic_string@DU?$char_traits@D@std@@V?$allocator@D@2@@std@@V?$list@U?$pair@EV?$basic_string@DU?$char_traits@D@std@@V?$allocator@D@2@@std@@@std@@V?$allocator@U?$pair@EV?$basic_string@DU?$char_traits@D@std@@V?$allocator@D@2@@std@@@std@@@2@@2@U_tstring_less@@V?$allocator@V?$list@U?$pair@EV?$basic_string@DU?$char_traits@D@std@@V?$allocator@D@2@@std@@@std@@V?$allocator@U?$pair@EV?$basic_string@DU?$char_traits@D@std@@V?$allocator@D@2@@std@@@std@@@2@@std@@@2@@2@U_tstring_less@@V?$allocator@V?$list@U?$pair@EV?$basic_string@DU?$char_traits@D@std@@V?$allocator@D@2@@std@@@std@@V?$allocator@U?$pair@EV?$basic_string@DU?$char_traits@D@std@@V?$allocator@D@2@@std@@@std@@@2@@std@@@2@@std@@QAE?AViterator@12@V312@@Z 00419a40 f i FriendMgr.obj
 0001:00018ff0       ??Eiterator@?$list@U?$pair@EV?$basic_string@DU?$char_traits@D@std@@V?$allocator@D@2@@std@@@std@@V?$allocator@U?$pair@EV?$basic_string@DU?$char_traits@D@std@@V?$allocator@D@2@@std@@@std@@@2@@std@@QAE?AV012@H@Z 00419ff0 f i FriendMgr.obj
 0001:00019000       ?_Erase@?$_Tree@V?$basic_string@DU?$char_traits@D@std@@V?$allocator@D@2@@std@@U?$pair@$$CBV?$basic_string@DU?$char_traits@D@std@@V?$allocator@D@2@@std@@V?$list@U?$pair@EV?$basic_string@DU?$char_traits@D@std@@V?$allocator@D@2@@std@@@std@@V?$allocator@U?$pair@EV?$basic_string@DU?$char_traits@D@std@@V?$allocator@D@2@@std@@@std@@@2@@2@@2@U_Kfn@?$map@V?$basic_string@DU?$char_traits@D@std@@V?$allocator@D@2@@std@@V?$list@U?$pair@EV?$basic_string@DU?$char_traits@D@std@@V?$allocator@D@2@@std@@@std@@V?$allocator@U?$pair@EV?$basic_string@DU?$char_traits@D@std@@V?$allocator@D@2@@std@@@std@@@2@@2@U_tstring_less@@V?$allocator@V?$list@U?$pair@EV?$basic_string@DU?$char_traits@D@std@@V?$allocator@D@2@@std@@@std@@V?$allocator@U?$pair@EV?$basic_string@DU?$char_traits@D@std@@V?$allocator@D@2@@std@@@std@@@2@@std@@@2@@2@U_tstring_less@@V?$allocator@V?$list@U?$pair@EV?$basic_string@DU?$char_traits@D@std@@V?$allocator@D@2@@std@@@std@@V?$allocator@U?$pair@EV?$basic_string@DU?$char_traits@D@std@@V?$allocator@D@2@@std@@@std@@@2@@std@@@2@@std@@IAEXPAU_Node@12@@Z 0041a000 f i FriendMgr.obj
 0001:00019130       ?_Init@?$_Tree@V?$basic_string@DU?$char_traits@D@std@@V?$allocator@D@2@@std@@U?$pair@$$CBV?$basic_string@DU?$char_traits@D@std@@V?$allocator@D@2@@std@@V?$list@U?$pair@EV?$basic_string@DU?$char_traits@D@std@@V?$allocator@D@2@@std@@@std@@V?$allocator@U?$pair@EV?$basic_string@DU?$char_traits@D@std@@V?$allocator@D@2@@std@@@std@@@2@@2@@2@U_Kfn@?$map@V?$basic_string@DU?$char_traits@D@std@@V?$allocator@D@2@@std@@V?$list@U?$pair@EV?$basic_string@DU?$char_traits@D@std@@V?$allocator@D@2@@std@@@std@@V?$allocator@U?$pair@EV?$basic_string@DU?$char_traits@D@std@@V?$allocator@D@2@@std@@@std@@@2@@2@U_tstring_less@@V?$allocator@V?$list@U?$pair@EV?$basic_string@DU?$char_traits@D@std@@V?$allocator@D@2@@std@@@std@@V?$allocator@U?$pair@EV?$basic_string@DU?$char_traits@D@std@@V?$allocator@D@2@@std@@@std@@@2@@std@@@2@@2@U_tstring_less@@V?$allocator@V?$list@U?$pair@EV?$basic_string@DU?$char_traits@D@std@@V?$allocator@D@2@@std@@@std@@V?$allocator@U?$pair@EV?$basic_string@DU?$char_traits@D@std@@V?$allocator@D@2@@std@@@std@@@2@@std@@@2@@std@@IAEXXZ 0041a130 f i FriendMgr.obj
 0001:000191e0       ?_Inc@const_iterator@?$_Tree@V?$basic_string@DU?$char_traits@D@std@@V?$allocator@D@2@@std@@U?$pair@$$CBV?$basic_string@DU?$char_traits@D@std@@V?$allocator@D@2@@std@@V?$list@U?$pair@EV?$basic_string@DU?$char_traits@D@std@@V?$allocator@D@2@@std@@@std@@V?$allocator@U?$pair@EV?$basic_string@DU?$char_traits@D@std@@V?$allocator@D@2@@std@@@std@@@2@@2@@2@U_Kfn@?$map@V?$basic_string@DU?$char_traits@D@std@@V?$allocator@D@2@@std@@V?$list@U?$pair@EV?$basic_string@DU?$char_traits@D@std@@V?$allocator@D@2@@std@@@std@@V?$allocator@U?$pair@EV?$basic_string@DU?$char_traits@D@std@@V?$allocator@D@2@@std@@@std@@@2@@2@U_tstring_less@@V?$allocator@V?$list@U?$pair@EV?$basic_string@DU?$char_traits@D@std@@V?$allocator@D@2@@std@@@std@@V?$allocator@U?$pair@EV?$basic_string@DU?$char_traits@D@std@@V?$allocator@D@2@@std@@@std@@@2@@std@@@2@@2@U_tstring_less@@V?$allocator@V?$list@U?$pair@EV?$basic_string@DU?$char_traits@D@std@@V?$allocator@D@2@@std@@@std@@V?$allocator@U?$pair@EV?$basic_string@DU?$char_traits@D@std@@V?$allocator@D@2@@std@@@std@@@2@@std@@@2@@std@@QAEXXZ 0041a1e0 f i FriendMgr.obj
 0001:00019290       ?erase@?$list@V?$basic_string@DU?$char_traits@D@std@@V?$allocator@D@2@@std@@V?$allocator@V?$basic_string@DU?$char_traits@D@std@@V?$allocator@D@2@@std@@@2@@std@@QAE?AViterator@12@V312@@Z 0041a290 f i FriendMgr.obj
 0001:00019300       ??0?$pair@Viterator@?$_Tree@V?$basic_string@DU?$char_traits@D@std@@V?$allocator@D@2@@std@@U?$pair@$$CBV?$basic_string@DU?$char_traits@D@std@@V?$allocator@D@2@@std@@V?$list@U?$pair@EV?$basic_string@DU?$char_traits@D@std@@V?$allocator@D@2@@std@@@std51d2c0fe 0041a300 f i FriendMgr.obj
 0001:00019320       ?_Copy@?$_Tree@V?$basic_string@DU?$char_traits@D@std@@V?$allocator@D@2@@std@@U?$pair@$$CBV?$basic_string@DU?$char_traits@D@std@@V?$allocator@D@2@@std@@UFRIENDINFO@CFriendMgr@@@2@U_Kfn@?$map@V?$basic_string@DU?$char_traits@D@std@@V?$allocator@D@2@@std@@UFRIENDINFO@CFriendMgr@@U_tstring_less@@V?$allocator@UFRIENDINFO@CFriendMgr@@@2@@2@U_tstring_less@@V?$allocator@UFRIENDINFO@CFriendMgr@@@2@@std@@IAEPAU_Node@12@PAU312@0@Z 0041a320 f i FriendMgr.obj
 0001:00019430       ?_Lbound@?$_Tree@V?$basic_string@DU?$char_traits@D@std@@V?$allocator@D@2@@std@@U?$pair@$$CBV?$basic_string@DU?$char_traits@D@std@@V?$allocator@D@2@@std@@UFRIENDINFO@CFriendMgr@@@2@U_Kfn@?$map@V?$basic_string@DU?$char_traits@D@std@@V?$allocator@D@2@@std@@UFRIENDINFO@CFriendMgr@@U_tstring_less@@V?$allocator@UFRIENDINFO@CFriendMgr@@@2@@2@U_tstring_less@@V?$allocator@UFRIENDINFO@CFriendMgr@@@2@@std@@IBEPAU_Node@12@ABV?$basic_string@DU?$char_traits@D@std@@V?$allocator@D@2@@2@@Z 0041a430 f i FriendMgr.obj
 0001:000194b0       ?_Buynode@?$_Tree@V?$basic_string@DU?$char_traits@D@std@@V?$allocator@D@2@@std@@U?$pair@$$CBV?$basic_string@DU?$char_traits@D@std@@V?$allocator@D@2@@std@@UFRIENDINFO@CFriendMgr@@@2@U_Kfn@?$map@V?$basic_string@DU?$char_traits@D@std@@V?$allocator@D@2@@std@@UFRIENDINFO@CFriendMgr@@U_tstring_less@@V?$allocator@UFRIENDINFO@CFriendMgr@@@2@@2@U_tstring_less@@V?$allocator@UFRIENDINFO@CFriendMgr@@@2@@std@@IAEPAU_Node@12@PAU312@W4_Redbl@12@@Z 0041a4b0 f i FriendMgr.obj
 0001:000194d0       ?_Dec@const_iterator@?$_Tree@V?$basic_string@DU?$char_traits@D@std@@V?$allocator@D@2@@std@@U?$pair@$$CBV?$basic_string@DU?$char_traits@D@std@@V?$allocator@D@2@@std@@UFRIENDINFO@CFriendMgr@@@2@U_Kfn@?$map@V?$basic_string@DU?$char_traits@D@std@@V?$allocator@D@2@@std@@UFRIENDINFO@CFriendMgr@@U_tstring_less@@V?$allocator@UFRIENDINFO@CFriendMgr@@@2@@2@U_tstring_less@@V?$allocator@UFRIENDINFO@CFriendMgr@@@2@@std@@QAEXXZ 0041a4d0 f i FriendMgr.obj
 0001:00019590       ?_Lbound@?$_Tree@V?$basic_string@DU?$char_traits@D@std@@V?$allocator@D@2@@std@@U?$pair@$$CBV?$basic_string@DU?$char_traits@D@std@@V?$allocator@D@2@@std@@UPLAYERINFO@CFriendMgr@@@2@U_Kfn@?$map@V?$basic_string@DU?$char_traits@D@std@@V?$allocator@D@2@@std@@UPLAYERINFO@CFriendMgr@@U_tstring_less@@V?$allocator@UPLAYERINFO@CFriendMgr@@@2@@2@U_tstring_less@@V?$allocator@UPLAYERINFO@CFriendMgr@@@2@@std@@IBEPAU_Node@12@ABV?$basic_string@DU?$char_traits@D@std@@V?$allocator@D@2@@2@@Z 0041a590 f i FriendMgr.obj
 0001:00019610       ?_Insert@?$_Tree@UADDFRIENDKEY@CFriendMgr@@U?$pair@$$CBUADDFRIENDKEY@CFriendMgr@@UADDFRIENDVALUE@2@@std@@U_Kfn@?$map@UADDFRIENDKEY@CFriendMgr@@UADDFRIENDVALUE@2@U?$less@UADDFRIENDKEY@CFriendMgr@@@std@@V?$allocator@UADDFRIENDVALUE@CFriendMgr@@@5@@4@U?$less@UADDFRIENDKEY@CFriendMgr@@@4@V?$allocator@UADDFRIENDVALUE@CFriendMgr@@@4@@std@@IAE?AViterator@12@PAU_Node@12@0ABU?$pair@$$CBUADDFRIENDKEY@CFriendMgr@@UADDFRIENDVALUE@2@@2@@Z 0041a610 f i FriendMgr.obj
 0001:00019920       ?_Lbound@?$_Tree@UADDFRIENDKEY@CFriendMgr@@U?$pair@$$CBUADDFRIENDKEY@CFriendMgr@@UADDFRIENDVALUE@2@@std@@U_Kfn@?$map@UADDFRIENDKEY@CFriendMgr@@UADDFRIENDVALUE@2@U?$less@UADDFRIENDKEY@CFriendMgr@@@std@@V?$allocator@UADDFRIENDVALUE@CFriendMgr@@@5@@4@U?$less@UADDFRIENDKEY@CFriendMgr@@@4@V?$allocator@UADDFRIENDVALUE@CFriendMgr@@@4@@std@@IBEPAU_Node@12@ABUADDFRIENDKEY@CFriendMgr@@@Z 0041a920 f i FriendMgr.obj
 0001:000199b0       ?_Insert@?$_Tree@KU?$pair@$$CBKV?$list@UtagPlusSrcInfo@@V?$allocator@UtagPlusSrcInfo@@@std@@@std@@@std@@U_Kfn@?$map@KV?$list@UtagPlusSrcInfo@@V?$allocator@UtagPlusSrcInfo@@@std@@@std@@U?$less@K@2@V?$allocator@V?$list@UtagPlusSrcInfo@@V?$allocator@UtagPlusSrcInfo@@@std@@@std@@@2@@2@U?$less@K@2@V?$allocator@V?$list@UtagPlusSrcInfo@@V?$allocator@UtagPlusSrcInfo@@@std@@@std@@@2@@std@@IAE?AViterator@12@PAU_Node@12@0ABU?$pair@$$CBKV?$list@UtagPlusSrcInfo@@V?$allocator@UtagPlusSrcInfo@@@std@@@std@@@2@@Z 0041a9b0 f i FriendMgr.obj
 0001:00019cb0       ?erase@?$list@UtagPlusSrcInfo@@V?$allocator@UtagPlusSrcInfo@@@std@@@std@@QAE?AViterator@12@V312@@Z 0041acb0 f i FriendMgr.obj
 0001:00019cf0       ?_Insert@?$_Tree@V?$basic_string@DU?$char_traits@D@std@@V?$allocator@D@2@@std@@U?$pair@$$CBV?$basic_string@DU?$char_traits@D@std@@V?$allocator@D@2@@std@@V?$list@U?$pair@EV?$basic_string@DU?$char_traits@D@std@@V?$allocator@D@2@@std@@@std@@V?$allocator@U?$pair@EV?$basic_string@DU?$char_traits@D@std@@V?$allocator@D@2@@std@@@std@@@2@@2@@2@U_Kfn@?$map@V?$basic_string@DU?$char_traits@D@std@@V?$allocator@D@2@@std@@V?$list@U?$pair@EV?$basic_string@DU?$char_traits@D@std@@V?$allocator@D@2@@std@@@std@@V?$allocator@U?$pair@EV?$basic_string@DU?$char_traits@D@std@@V?$allocator@D@2@@std@@@std@@@2@@2@U_tstring_less@@V?$allocator@V?$list@U?$pair@EV?$basic_string@DU?$char_traits@D@std@@V?$allocator@D@2@@std@@@std@@V?$allocator@U?$pair@EV?$basic_string@DU?$char_traits@D@std@@V?$allocator@D@2@@std@@@std@@@2@@std@@@2@@2@U_tstring_less@@V?$allocator@V?$list@U?$pair@EV?$basic_string@DU?$char_traits@D@std@@V?$allocator@D@2@@std@@@std@@V?$allocator@U?$pair@EV?$basic_string@DU?$char_traits@D@std@@V?$allocator@D@2@@std@@@std@@@2@@std@@@2@@std@@IAE?AViterator@12@PAU_Node@12@0ABU?$pair@$$CBV?$basic_string@DU?$char_traits@D@std@@V?$allocator@D@2@@std@@V?$list@U?$pair@EV?$basic_string@DU?$char_traits@D@std@@V?$allocator@D@2@@std@@@std@@V?$allocator@U?$pair@EV?$basic_string@DU?$char_traits@D@std@@V?$allocator@D@2@@std@@@std@@@2@@2@@2@@Z 0041acf0 f i FriendMgr.obj
 0001:0001a020       ?erase@?$list@U?$pair@EV?$basic_string@DU?$char_traits@D@std@@V?$allocator@D@2@@std@@@std@@V?$allocator@U?$pair@EV?$basic_string@DU?$char_traits@D@std@@V?$allocator@D@2@@std@@@std@@@2@@std@@QAE?AViterator@12@V312@@Z 0041b020 f i FriendMgr.obj
 0001:0001a060       ?_Ucopy@?$vector@Viterator@?$_Tree@V?$basic_string@DU?$char_traits@D@std@@V?$allocator@D@2@@std@@U?$pair@$$CBV?$basic_string@DU?$char_traits@D@std@@V?$allocator@D@2@@std@@UPLAYERINFO@CFriendMgr@@@2@U_Kfn@?$map@V?$basic_string@DU?$char_traits@D@std@@V?$allocator@D@2@@std@@UPLAYERINFO@CFriendMgr@@U_tstring_less@@V?$allocator@UPLAYERINFO@CFriendMgr@@@2@@2@U_tstring_less@@V?$allocator@UPLAYERINFO@CFriendMgr@@@2@@std@@V?$allocator@Viterator@?$_Tree@V?$basic_string@DU?$char_traits@D@std@@V?$allocator@D@2@@std@@U?$pair@$$CBV?$basic_string@DU?$char_traits@D@std@@V?$allocator@D@2@@std@@UPLAYERINFO@CFriendMgr@@@2@U_Kfn@?$map@V?$basic_string@DU?$char_traits@D@std@@V?$allocator@D@2@@std@@UPLAYERINFO@CFriendMgr@@U_tstring_less@@V?$allocator@UPLAYERINFO@CFriendMgr@@@2@@2@U_tstring_less@@V?$allocator@UPLAYERINFO@CFriendMgr@@@2@@std@@@3@@std@@IAEPAViterator@?$_Tree@V?$basic_string@DU?$char_traits@D@std@@V?$allocator@D@2@@std@@U?$pair@$$CBV?$basic_string@DU?$char_traits@D@std@@V?$allocator@D@2@@std@@UPLAYERINFO@CFriendMgr@@@2@U_Kfn@?$map@V?$basic_string@DU?$char_traits@D@std@@V?$allocator@D@2@@std@@UPLAYERINFO@CFriendMgr@@U_tstring_less@@V?$allocator@UPLAYERINFO@CFriendMgr@@@2@@2@U_tstring_less@@V?$allocator@UPLAYERINFO@CFriendMgr@@@2@@2@PBV342@0PAV342@@Z 0041b060 f i FriendMgr.obj
 0001:0001a090       ?_Ufill@?$vector@Viterator@?$_Tree@V?$basic_string@DU?$char_traits@D@std@@V?$allocator@D@2@@std@@U?$pair@$$CBV?$basic_string@DU?$char_traits@D@std@@V?$allocator@D@2@@std@@UPLAYERINFO@CFriendMgr@@@2@U_Kfn@?$map@V?$basic_string@DU?$char_traits@D@std@@V?$allocator@D@2@@std@@UPLAYERINFO@CFriendMgr@@U_tstring_less@@V?$allocator@UPLAYERINFO@CFriendMgr@@@2@@2@U_tstring_less@@V?$allocator@UPLAYERINFO@CFriendMgr@@@2@@std@@V?$allocator@Viterator@?$_Tree@V?$basic_string@DU?$char_traits@D@std@@V?$allocator@D@2@@std@@U?$pair@$$CBV?$basic_string@DU?$char_traits@D@std@@V?$allocator@D@2@@std@@UPLAYERINFO@CFriendMgr@@@2@U_Kfn@?$map@V?$basic_string@DU?$char_traits@D@std@@V?$allocator@D@2@@std@@UPLAYERINFO@CFriendMgr@@U_tstring_less@@V?$allocator@UPLAYERINFO@CFriendMgr@@@2@@2@U_tstring_less@@V?$allocator@UPLAYERINFO@CFriendMgr@@@2@@std@@@3@@std@@IAEXPAViterator@?$_Tree@V?$basic_string@DU?$char_traits@D@std@@V?$allocator@D@2@@std@@U?$pair@$$CBV?$basic_string@DU?$char_traits@D@std@@V?$allocator@D@2@@std@@UPLAYERINFO@CFriendMgr@@@2@U_Kfn@?$map@V?$basic_string@DU?$char_traits@D@std@@V?$allocator@D@2@@std@@UPLAYERINFO@CFriendMgr@@U_tstring_less@@V?$allocator@UPLAYERINFO@CFriendMgr@@@2@@2@U_tstring_less@@V?$allocator@UPLAYERINFO@CFriendMgr@@@2@@2@IABV342@@Z 0041b090 f i FriendMgr.obj
 0001:0001a0c0       ?_Ubound@?$_Tree@V?$basic_string@DU?$char_traits@D@std@@V?$allocator@D@2@@std@@U?$pair@$$CBV?$basic_string@DU?$char_traits@D@std@@V?$allocator@D@2@@std@@UFRIENDINFO@CFriendMgr@@@2@U_Kfn@?$map@V?$basic_string@DU?$char_traits@D@std@@V?$allocator@D@2@@std@@UFRIENDINFO@CFriendMgr@@U_tstring_less@@V?$allocator@UFRIENDINFO@CFriendMgr@@@2@@2@U_tstring_less@@V?$allocator@UFRIENDINFO@CFriendMgr@@@2@@std@@IBEPAU_Node@12@ABV?$basic_string@DU?$char_traits@D@std@@V?$allocator@D@2@@2@@Z 0041b0c0 f i FriendMgr.obj
 0001:0001a140       ?_Dec@const_iterator@?$_Tree@UADDFRIENDKEY@CFriendMgr@@U?$pair@$$CBUADDFRIENDKEY@CFriendMgr@@UADDFRIENDVALUE@2@@std@@U_Kfn@?$map@UADDFRIENDKEY@CFriendMgr@@UADDFRIENDVALUE@2@U?$less@UADDFRIENDKEY@CFriendMgr@@@std@@V?$allocator@UADDFRIENDVALUE@CFriendMgr@@@5@@4@U?$less@UADDFRIENDKEY@CFriendMgr@@@4@V?$allocator@UADDFRIENDVALUE@CFriendMgr@@@4@@std@@QAEXXZ 0041b140 f i FriendMgr.obj
 0001:0001a200       ?_Inc@const_iterator@?$_Tree@UADDFRIENDKEY@CFriendMgr@@U?$pair@$$CBUADDFRIENDKEY@CFriendMgr@@UADDFRIENDVALUE@2@@std@@U_Kfn@?$map@UADDFRIENDKEY@CFriendMgr@@UADDFRIENDVALUE@2@U?$less@UADDFRIENDKEY@CFriendMgr@@@std@@V?$allocator@UADDFRIENDVALUE@CFriendMgr@@@5@@4@U?$less@UADDFRIENDKEY@CFriendMgr@@@4@V?$allocator@UADDFRIENDVALUE@CFriendMgr@@@4@@std@@QAEXXZ 0041b200 f i FriendMgr.obj
 0001:0001a2b0       ?_Dec@const_iterator@?$_Tree@KU?$pair@$$CBKV?$list@UtagPlusSrcInfo@@V?$allocator@UtagPlusSrcInfo@@@std@@@std@@@std@@U_Kfn@?$map@KV?$list@UtagPlusSrcInfo@@V?$allocator@UtagPlusSrcInfo@@@std@@@std@@U?$less@K@2@V?$allocator@V?$list@UtagPlusSrcInfo@@V?$allocator@UtagPlusSrcInfo@@@std@@@std@@@2@@2@U?$less@K@2@V?$allocator@V?$list@UtagPlusSrcInfo@@V?$allocator@UtagPlusSrcInfo@@@std@@@std@@@2@@std@@QAEXXZ 0041b2b0 f i FriendMgr.obj
 0001:0001a370       ?_Dec@const_iterator@?$_Tree@V?$basic_string@DU?$char_traits@D@std@@V?$allocator@D@2@@std@@U?$pair@$$CBV?$basic_string@DU?$char_traits@D@std@@V?$allocator@D@2@@std@@V?$list@U?$pair@EV?$basic_string@DU?$char_traits@D@std@@V?$allocator@D@2@@std@@@std@@V?$allocator@U?$pair@EV?$basic_string@DU?$char_traits@D@std@@V?$allocator@D@2@@std@@@std@@@2@@2@@2@U_Kfn@?$map@V?$basic_string@DU?$char_traits@D@std@@V?$allocator@D@2@@std@@V?$list@U?$pair@EV?$basic_string@DU?$char_traits@D@std@@V?$allocator@D@2@@std@@@std@@V?$allocator@U?$pair@EV?$basic_string@DU?$char_traits@D@std@@V?$allocator@D@2@@std@@@std@@@2@@2@U_tstring_less@@V?$allocator@V?$list@U?$pair@EV?$basic_string@DU?$char_traits@D@std@@V?$allocator@D@2@@std@@@std@@V?$allocator@U?$pair@EV?$basic_string@DU?$char_traits@D@std@@V?$allocator@D@2@@std@@@std@@@2@@std@@@2@@2@U_tstring_less@@V?$allocator@V?$list@U?$pair@EV?$basic_string@DU?$char_traits@D@std@@V?$allocator@D@2@@std@@@std@@V?$allocator@U?$pair@EV?$basic_string@DU?$char_traits@D@std@@V?$allocator@D@2@@std@@@std@@@2@@std@@@2@@std@@QAEXXZ 0041b370 f i FriendMgr.obj
 0001:0001a430       ?_Distance@std@@YAXViterator@?$_Tree@V?$basic_string@DU?$char_traits@D@std@@V?$allocator@D@2@@std@@U?$pair@$$CBV?$basic_string@DU?$char_traits@D@std@@V?$allocator@D@2@@std@@UFRIENDINFO@CFriendMgr@@@2@U_Kfn@?$map@V?$basic_string@DU?$char_traits@D@std@@V?$allocator@D@2@@std@@UFRIENDINFO@CFriendMgr@@U_tstring_less@@V?$allocator@UFRIENDINFO@CFriendMgr@@@2@@2@U_tstring_less@@V?$allocator@UFRIENDINFO@CFriendMgr@@@2@@1@0AAI@Z 0041b430 f i FriendMgr.obj
 0001:0001a460       ?_Construct@std@@YAXPAUMEM_FRIENDRECORD@CFriendMgr@@ABU23@@Z 0041b460 f i FriendMgr.obj
 0001:0001a5b0       ?_Construct@std@@YAXPAU?$pair@EV?$basic_string@DU?$char_traits@D@std@@V?$allocator@D@2@@std@@@1@ABU21@@Z 0041b5b0 f i FriendMgr.obj
 0001:0001a720       ?_Construct@std@@YAXPAUONEPLAYER@CFriendMgr@@ABU23@@Z 0041b720 f i FriendMgr.obj
 0001:0001a800       ?_Construct@std@@YAXPAV?$basic_string@DU?$char_traits@D@std@@V?$allocator@D@2@@1@ABV21@@Z 0041b800 f i FriendMgr.obj
 0001:0001a970       ?_Construct@std@@YAXPAU?$pair@$$CBV?$basic_string@DU?$char_traits@D@std@@V?$allocator@D@2@@std@@UFRIENDINFO@CFriendMgr@@@1@ABU21@@Z 0041b970 f i FriendMgr.obj
 0001:0001aac0       ?_Construct@std@@YAXPAU?$pair@$$CBV?$basic_string@DU?$char_traits@D@std@@V?$allocator@D@2@@std@@UPLAYERINFO@CFriendMgr@@@1@ABU21@@Z 0041bac0 f i FriendMgr.obj
 0001:0001ac30       ?_Max@?$_Tree@V?$basic_string@DU?$char_traits@D@std@@V?$allocator@D@2@@std@@U?$pair@$$CBV?$basic_string@DU?$char_traits@D@std@@V?$allocator@D@2@@std@@UFRIENDINFO@CFriendMgr@@@2@U_Kfn@?$map@V?$basic_string@DU?$char_traits@D@std@@V?$allocator@D@2@@std@@UFRIENDINFO@CFriendMgr@@U_tstring_less@@V?$allocator@UFRIENDINFO@CFriendMgr@@@2@@2@U_tstring_less@@V?$allocator@UFRIENDINFO@CFriendMgr@@@2@@std@@KAPAU_Node@12@PAU312@@Z 0041bc30 f i FriendMgr.obj
 0001:0001ac70       ?_Min@?$_Tree@V?$basic_string@DU?$char_traits@D@std@@V?$allocator@D@2@@std@@U?$pair@$$CBV?$basic_string@DU?$char_traits@D@std@@V?$allocator@D@2@@std@@UFRIENDINFO@CFriendMgr@@@2@U_Kfn@?$map@V?$basic_string@DU?$char_traits@D@std@@V?$allocator@D@2@@std@@UFRIENDINFO@CFriendMgr@@U_tstring_less@@V?$allocator@UFRIENDINFO@CFriendMgr@@@2@@2@U_tstring_less@@V?$allocator@UFRIENDINFO@CFriendMgr@@@2@@std@@KAPAU_Node@12@PAU312@@Z 0041bc70 f i FriendMgr.obj
 0001:0001acb0       ?_Construct@std@@YAXPAU?$pair@$$CBUADDFRIENDKEY@CFriendMgr@@UADDFRIENDVALUE@2@@1@ABU21@@Z 0041bcb0 f i FriendMgr.obj
 0001:0001ae00       ?_Construct@std@@YAXPAU?$pair@$$CBKV?$list@UtagPlusSrcInfo@@V?$allocator@UtagPlusSrcInfo@@@std@@@std@@@1@ABU21@@Z 0041be00 f i FriendMgr.obj
 0001:0001aed0       ?_Construct@std@@YAXPAU?$pair@$$CBV?$basic_string@DU?$char_traits@D@std@@V?$allocator@D@2@@std@@V?$list@U?$pair@EV?$basic_string@DU?$char_traits@D@std@@V?$allocator@D@2@@std@@@std@@V?$allocator@U?$pair@EV?$basic_string@DU?$char_traits@D@std@@V?$allocator@D@2@@std@@@std@@@2@@2@@1@ABU21@@Z 0041bed0 f i FriendMgr.obj
 0001:0001afb0       ?_Construct@std@@YAXPAViterator@?$_Tree@V?$basic_string@DU?$char_traits@D@std@@V?$allocator@D@2@@std@@U?$pair@$$CBV?$basic_string@DU?$char_traits@D@std@@V?$allocator@D@2@@std@@UPLAYERINFO@CFriendMgr@@@2@U_Kfn@?$map@V?$basic_string@DU?$char_traits@D@std@@V?$allocator@D@2@@std@@UPLAYERINFO@CFriendMgr@@U_tstring_less@@V?$allocator@UPLAYERINFO@CFriendMgr@@@2@@2@U_tstring_less@@V?$allocator@UPLAYERINFO@CFriendMgr@@@2@@1@ABV231@@Z 0041bfb0 f i FriendMgr.obj
 0001:0001afd0       ??_GONEPLAYER@CFriendMgr@@QAEPAXI@Z 0041bfd0 f i FriendMgr.obj
 0001:0001b020       ??0CGatewayCenter@@QAE@XZ  0041c020 f   GatewayCenter.obj
 0001:0001b040       ??_ECGatewayCenter@@UAEPAXI@Z 0041c040 f i GatewayCenter.obj
 0001:0001b040       ??_GCGatewayCenter@@UAEPAXI@Z 0041c040 f i GatewayCenter.obj
 0001:0001b060       ??1CGatewayCenter@@UAE@XZ  0041c060 f   GatewayCenter.obj
 0001:0001b070       ?TraceInfo@CGatewayCenter@@QAEHXZ 0041c070 f   GatewayCenter.obj
 0001:0001b2a0       ??0CGatewayClient@@QAE@PAVCGatewayCenter@@H@Z 0041c2a0 f   GatewayClient.obj
 0001:0001b390       ??_GCGatewayClient@@UAEPAXI@Z 0041c390 f i GatewayClient.obj
 0001:0001b390       ??_ECGatewayClient@@UAEPAXI@Z 0041c390 f i GatewayClient.obj
 0001:0001b3b0       ??1?$map@GUASKWAYMAP@CGatewayClient@@U?$less@G@std@@V?$allocator@UASKWAYMAP@CGatewayClient@@@4@@std@@QAE@XZ 0041c3b0 f i GatewayClient.obj
 0001:0001b420       ??1CGatewayClient@@UAE@XZ  0041c420 f   GatewayClient.obj
 0001:0001b4e0       ?RecvPackage@CGatewayClient@@MAEXPBXI@Z 0041c4e0 f   GatewayClient.obj
 0001:0001b500       ?OnServerEventCreate@CGatewayClient@@MAEXXZ 0041c500 f   GatewayClient.obj
 0001:0001b530       ?OnServerEventClose@CGatewayClient@@MAEXXZ 0041c530 f   GatewayClient.obj
 0001:0001b700       ?Proc0_NotifySvrIP@CGatewayClient@@AAEXPBXI@Z 0041c700 f   GatewayClient.obj
 0001:0001b8a0       ?PassAskWayMap@CGatewayClient@@QAEHKPBURELAY_ASKWAY_DATA@@@Z 0041c8a0 f   GatewayClient.obj
 0001:0001baa0       ?insert@?$_Tree@GU?$pair@$$CBGUASKWAYMAP@CGatewayClient@@@std@@U_Kfn@?$map@GUASKWAYMAP@CGatewayClient@@U?$less@G@std@@V?$allocator@UASKWAYMAP@CGatewayClient@@@4@@2@U?$less@G@2@V?$allocator@UASKWAYMAP@CGatewayClient@@@2@@std@@QAE?AU?$pair@Viterator@?$_Tree@GU?$pair@$$CBGUASKWAYMAP@CGatewayClient@@@std@@U_Kfn@?$map@GUASKWAYMAP@CGatewayClient@@U?$less@G@std@@V?$allocator@UASKWAYMAP@CGatewayClient@@@4@@2@U?$less@G@2@V?$allocator@UASKWAYMAP@CGatewayClient@@@2@@std@@_N@2@ABU?$pair@$$CBGUASKWAYMAP@CGatewayClient@@@2@@Z 0041caa0 f i GatewayClient.obj
 0001:0001bbd0       ?erase@?$_Tree@GU?$pair@$$CBGUASKWAYMAP@CGatewayClient@@@std@@U_Kfn@?$map@GUASKWAYMAP@CGatewayClient@@U?$less@G@std@@V?$allocator@UASKWAYMAP@CGatewayClient@@@4@@2@U?$less@G@2@V?$allocator@UASKWAYMAP@CGatewayClient@@@2@@std@@QAE?AViterator@12@V312@@Z 0041cbd0 f i GatewayClient.obj
 0001:0001c0f0       ?erase@?$_Tree@GU?$pair@$$CBGUASKWAYMAP@CGatewayClient@@@std@@U_Kfn@?$map@GUASKWAYMAP@CGatewayClient@@U?$less@G@std@@V?$allocator@UASKWAYMAP@CGatewayClient@@@4@@2@U?$less@G@2@V?$allocator@UASKWAYMAP@CGatewayClient@@@2@@std@@QAE?AViterator@12@V312@0@Z 0041d0f0 f i GatewayClient.obj
 0001:0001c220       ?find@?$_Tree@GU?$pair@$$CBGUASKWAYMAP@CGatewayClient@@@std@@U_Kfn@?$map@GUASKWAYMAP@CGatewayClient@@U?$less@G@std@@V?$allocator@UASKWAYMAP@CGatewayClient@@@4@@2@U?$less@G@2@V?$allocator@UASKWAYMAP@CGatewayClient@@@2@@std@@QAE?AViterator@12@ABG@Z 0041d220 f i GatewayClient.obj
 0001:0001c270       ?_Erase@?$_Tree@GU?$pair@$$CBGUASKWAYMAP@CGatewayClient@@@std@@U_Kfn@?$map@GUASKWAYMAP@CGatewayClient@@U?$less@G@std@@V?$allocator@UASKWAYMAP@CGatewayClient@@@4@@2@U?$less@G@2@V?$allocator@UASKWAYMAP@CGatewayClient@@@2@@std@@IAEXPAU_Node@12@@Z 0041d270 f i GatewayClient.obj
 0001:0001c300       ?_Insert@?$_Tree@GU?$pair@$$CBGUASKWAYMAP@CGatewayClient@@@std@@U_Kfn@?$map@GUASKWAYMAP@CGatewayClient@@U?$less@G@std@@V?$allocator@UASKWAYMAP@CGatewayClient@@@4@@2@U?$less@G@2@V?$allocator@UASKWAYMAP@CGatewayClient@@@2@@std@@IAE?AViterator@12@PAU_Node@12@0ABU?$pair@$$CBGUASKWAYMAP@CGatewayClient@@@2@@Z 0041d300 f i GatewayClient.obj
 0001:0001c600       ?_Inc@const_iterator@?$_Tree@GU?$pair@$$CBGUASKWAYMAP@CGatewayClient@@@std@@U_Kfn@?$map@GUASKWAYMAP@CGatewayClient@@U?$less@G@std@@V?$allocator@UASKWAYMAP@CGatewayClient@@@4@@2@U?$less@G@2@V?$allocator@UASKWAYMAP@CGatewayClient@@@2@@std@@QAEXXZ 0041d600 f i GatewayClient.obj
 0001:0001c6b0       ?_Lbound@?$_Tree@GU?$pair@$$CBGUASKWAYMAP@CGatewayClient@@@std@@U_Kfn@?$map@GUASKWAYMAP@CGatewayClient@@U?$less@G@std@@V?$allocator@UASKWAYMAP@CGatewayClient@@@4@@2@U?$less@G@2@V?$allocator@UASKWAYMAP@CGatewayClient@@@2@@std@@IBEPAU_Node@12@ABG@Z 0041d6b0 f i GatewayClient.obj
 0001:0001c700       ?_Dec@const_iterator@?$_Tree@GU?$pair@$$CBGUASKWAYMAP@CGatewayClient@@@std@@U_Kfn@?$map@GUASKWAYMAP@CGatewayClient@@U?$less@G@std@@V?$allocator@UASKWAYMAP@CGatewayClient@@@4@@2@U?$less@G@2@V?$allocator@UASKWAYMAP@CGatewayClient@@@2@@std@@QAEXXZ 0041d700 f i GatewayClient.obj
 0001:0001c7c0       ?_Construct@std@@YAXPAU?$pair@$$CBGUASKWAYMAP@CGatewayClient@@@1@ABU21@@Z 0041d7c0 f i GatewayClient.obj
 0001:0001cd10       ??1tag_DATABASEINFO@@QAE@XZ 0041dd10 f i Global.obj
 0001:0001cde0       ??0tag_DATABASEINFO@@QAE@XZ 0041dde0 f i Global.obj
 0001:0001ce30       ?gGetLocateDirectory@@YA?AV?$basic_string@DU?$char_traits@D@std@@V?$allocator@D@2@@std@@XZ 0041de30 f   Global.obj
 0001:0001cf90       ??0_LOCALDIR@?1??gGetLocateDirectory@@YA?AV?$basic_string@DU?$char_traits@D@std@@V?$allocator@D@2@@std@@XZ@QAE@XZ 0041df90 f   Global.obj
 0001:0001d0c0       ??1_LOCALDIR@?1??gGetLocateDirectory@@YA?AV?$basic_string@DU?$char_traits@D@std@@V?$allocator@D@2@@std@@XZ@QAE@XZ 0041e0c0 f i Global.obj
 0001:0001d100       ?gGetPrivateProfileStringEx@@YA?AV?$basic_string@DU?$char_traits@D@std@@V?$allocator@D@2@@std@@PBD000@Z 0041e100 f   Global.obj
 0001:0001d270       ?gGetPrivateProfileIntEx@@YAHPBD00H@Z 0041e270 f   Global.obj
 0001:0001d340       ?gGetPrivateProfileCharEx@@YADPBD00D@Z 0041e340 f   Global.obj
 0001:0001d470       ?gGetPrivateProfileSectionEx@@YAABV?$vector@V?$basic_string@DU?$char_traits@D@std@@V?$allocator@D@2@@std@@V?$allocator@V?$basic_string@DU?$char_traits@D@std@@V?$allocator@D@2@@std@@@2@@std@@PBD0@Z 0041e470 f   Global.obj
 0001:0001d6c0       ?gGetPrivateProfileSectionNamesEx@@YAABV?$vector@V?$basic_string@DU?$char_traits@D@std@@V?$allocator@D@2@@std@@V?$allocator@V?$basic_string@DU?$char_traits@D@std@@V?$allocator@D@2@@std@@@2@@std@@PBD@Z 0041e6c0 f   Global.obj
 0001:0001d910       ?gInitialize@@YAHXZ        0041e910 f   Global.obj
 0001:0001e410       ?gUninitialize@@YAHXZ      0041f410 f   Global.obj
 0001:0001e550       ?gIsLocalIP@@YAHK@Z        0041f550 f   Global.obj
 0001:0001e570       ?gGetHostMac@@YAPBEHPAI@Z  0041f570 f   Global.obj
 0001:0001e5d0       ??0_MACSTORE@?1??gGetHostMac@@YAPBEHPAI@Z@QAE@XZ 0041f5d0 f   Global.obj
 0001:0001e7e0       ?gGetHostIP@@YAKH@Z        0041f7e0 f   Global.obj
 0001:0001e830       ??0_IPSTORE@?1??gGetHostIP@@YAKH@Z@QAE@XZ 0041f830 f   Global.obj
 0001:0001ea00       ?gConnectToSibling@@YAHPBD@Z 0041fa00 f   Global.obj
 0001:0001eab0       ?gFillClntwayPckg@@YAIKKPBURELAY_ASKWAY_DATA@@IPAU1@I@Z 0041fab0 f   Global.obj
 0001:0001eb50       ?gFillLosewayPckg@@YAIKKPBXIPAXI@Z 0041fb50 f   Global.obj
 0001:0001ebb0       ?gIsLegalString@@YAHPBDII@Z 0041fbb0 f   Global.obj
 0001:0001ebf0       ?g_String2Id@@YAKPBD@Z     0041fbf0 f   Global.obj
 0001:0001ec40       ?gOnOneClientCreate@@YAHW4ONECLIENT@@@Z 0041fc40 f   Global.obj
 0001:0001ed00       ?gOnOneClientClose@@YAHW4ONECLIENT@@@Z 0041fd00 f   Global.obj
 0001:0001ee50       ?gReOneClient@@YAHW4ONECLIENT@@@Z 0041fe50 f   Global.obj
 0001:0001f180       ?gConsignClientSD@@YAHPAUIClient@@@Z 00420180 f   Global.obj
 0001:0001f1c0       ?gStartFriendTimingUpdateDB@@YAHI@Z 004201c0 f   Global.obj
 0001:0001f210       ?gStopFriendTimingUpdateDB@@YAHXZ 00420210 f   Global.obj
 0001:0001f250       ?gFriendTimingUpdateDB@@YAHXZ 00420250 f   Global.obj
 0001:0001f290       ?_Destroy@?$vector@V?$basic_string@DU?$char_traits@D@std@@V?$allocator@D@2@@std@@V?$allocator@V?$basic_string@DU?$char_traits@D@std@@V?$allocator@D@2@@std@@@2@@std@@IAEXPAV?$basic_string@DU?$char_traits@D@std@@V?$allocator@D@2@@2@0@Z 00420290 f i Global.obj
 0001:0001f2e0       ?insert@?$vector@V?$basic_string@DU?$char_traits@D@std@@V?$allocator@D@2@@std@@V?$allocator@V?$basic_string@DU?$char_traits@D@std@@V?$allocator@D@2@@std@@@2@@std@@QAEXPAV?$basic_string@DU?$char_traits@D@std@@V?$allocator@D@2@@2@IABV32@@Z 004202e0 f i Global.obj
 0001:0001f5a0       ??Hstd@@YA?AV?$basic_string@DU?$char_traits@D@std@@V?$allocator@D@2@@0@ABV10@PBD@Z 004205a0 f i Global.obj
 0001:0001f6d0       ?copy@std@@YAPAV?$basic_string@DU?$char_traits@D@std@@V?$allocator@D@2@@1@PAV21@00@Z 004206d0 f i Global.obj
 0001:0001fa50       ?KPIWritePrivateProfileString@@YAHPBD000@Z 00420a50 f   GlobalFun.obj
 0001:00020350       ?KPIGetPrivateProfileString@@YAKPBD00PADK0@Z 00421350 f   GlobalFun.obj
 0001:00020560       ?KPIWaitForSingleObject@@YAKPAXK@Z 00421560 f   GlobalFun.obj
 0001:00020590       ?KPIGetExePath@@YAXPADK@Z  00421590 f   GlobalFun.obj
 0001:000205f0       ?KPICreateMutex@@YAPAXPAU_SECURITY_ATTRIBUTES@@HPBD@Z 004215f0 f   GlobalFun.obj
 0001:00020610       ?KPIReleaseMutex@@YAHPAX@Z 00421610 f   GlobalFun.obj
 0001:00020620       ?KPIHash@@YAKPADKK@Z       00421620 f   GlobalFun.obj
 0001:00020660       ?KPIPrintToFile@@YAXPBD0ZZ 00421660 f   GlobalFun.obj
 0001:000206b0       ?KPIPrintToFile@@YAXPAU_iobuf@@PBDZZ 004216b0 f   GlobalFun.obj
 0001:00020700       ??0CHeavenLib@@QAE@XZ      00421700 f   HeavenLib.obj
 0001:00020720       ??_GCHeavenLib@@UAEPAXI@Z  00421720 f i HeavenLib.obj
 0001:00020720       ??_ECHeavenLib@@UAEPAXI@Z  00421720 f i HeavenLib.obj
 0001:00020740       ??1CHeavenLib@@UAE@XZ      00421740 f   HeavenLib.obj
 0001:00020750       ?Initialize@CHeavenLib@@QAEHXZ 00421750 f   HeavenLib.obj
 0001:00020790       ?Uninitialize@CHeavenLib@@QAEHXZ 00421790 f   HeavenLib.obj
 0001:000207c0       ?CreateInterface@CHeavenLib@@QAEJABU_GUID@@PAPAX@Z 004217c0 f   HeavenLib.obj
 0001:00020810       ??0CHostConnect@@QAE@PAVCHostServer@@K@Z 00421810 f   HostConnect.obj
 0001:00020a10       ??_ECHostConnect@@UAEPAXI@Z 00421a10 f i HostConnect.obj
 0001:00020a10       ??_GCHostConnect@@UAEPAXI@Z 00421a10 f i HostConnect.obj
 0001:00020a30       ??1?$map@V?$basic_string@DU?$char_traits@D@std@@V?$allocator@D@2@@std@@UACCINFO@CHostConnect@@U_tstring_iless@@V?$allocator@UACCINFO@CHostConnect@@@2@@std@@QAE@XZ 00421a30 f i HostConnect.obj
 0001:00020aa0       ??1?$map@V?$basic_string@DU?$char_traits@D@std@@V?$allocator@D@2@@std@@UROLEINFO@CHostConnect@@U_tstring_less@@V?$allocator@UROLEINFO@CHostConnect@@@2@@std@@QAE@XZ 00421aa0 f i HostConnect.obj
 0001:00020b10       ??1?$map@KUPARAMINFO@CHostConnect@@U?$less@K@std@@V?$allocator@UPARAMINFO@CHostConnect@@@4@@std@@QAE@XZ 00421b10 f i HostConnect.obj
 0001:00020b80       ??1CHostConnect@@UAE@XZ    00421b80 f   HostConnect.obj
 0001:00020d10       ?RecvPackage@CHostConnect@@MAEXPBXI@Z 00421d10 f   HostConnect.obj
 0001:00020d50       ?Proc0_Normal@CHostConnect@@AAEXPBXI@Z 00421d50 f   HostConnect.obj
 0001:00020d80       ?Proc1_Normal_EnterGame@CHostConnect@@AAEXPBXI@Z 00421d80 f   HostConnect.obj
 0001:000211a0       ??0ACCINFO@CHostConnect@@QAE@XZ 004221a0 f i HostConnect.obj
 0001:000211c0       ??1ACCINFO@CHostConnect@@QAE@XZ 004221c0 f i HostConnect.obj
 0001:00021200       ??0ROLEINFO@CHostConnect@@QAE@XZ 00422200 f i HostConnect.obj
 0001:00021220       ??1ROLEINFO@CHostConnect@@QAE@XZ 00422220 f i HostConnect.obj
 0001:00021260       ??0PARAMINFO@CHostConnect@@QAE@XZ 00422260 f i HostConnect.obj
 0001:00021290       ??1PARAMINFO@CHostConnect@@QAE@XZ 00422290 f i HostConnect.obj
 0001:00021300       ?Proc1_Normal_LeaveGame@CHostConnect@@AAEXPBXI@Z 00422300 f   HostConnect.obj
 0001:000214e0       ?Proc0_Relay@CHostConnect@@AAEXPBXI@Z 004224e0 f   HostConnect.obj
 0001:00021520       ?Proc1_Relay_Data@CHostConnect@@AAEXPBXI@Z 00422520 f   HostConnect.obj
 0001:00021700       ?Proc1_Relay_AskWay@CHostConnect@@AAEXPBXI@Z 00422700 f   HostConnect.obj
 0001:00021760       ?Proc1_Relay_LoseWay@CHostConnect@@AAEXPBXI@Z 00422760 f   HostConnect.obj
 0001:000218d0       ?Proc2_Relay_AskWay_AccountRoleID@CHostConnect@@AAEXPBXIH@Z 004228d0 f   HostConnect.obj
 0001:00021b60       ?Proc2_Relay_AskWay_MapID@CHostConnect@@AAEXPBXI@Z 00422b60 f   HostConnect.obj
 0001:00021ba0       ?Proc2_Relay_AskWay_GM@CHostConnect@@AAEXPBXI@Z 00422ba0 f   HostConnect.obj
 0001:00021c40       ?Proc0_PlayerCommunity@CHostConnect@@AAEXPBXI@Z 00422c40 f   HostConnect.obj
 0001:00021c80       ?Proc1_PlayerCommunity_QueryChannelID@CHostConnect@@AAEXPBXI@Z 00422c80 f   HostConnect.obj
 0001:00021e10       ?Proc1_PlayerCommunity_FreeChannelID@CHostConnect@@AAEXPBXI@Z 00422e10 f   HostConnect.obj
 0001:00021e40       ?Proc1_PlayerCommunity_Subscribe@CHostConnect@@AAEXPBXI@Z 00422e40 f   HostConnect.obj
 0001:00021e90       ?OnClientConnectCreate@CHostConnect@@MAEXXZ 00422e90 f   HostConnect.obj
 0001:00021eb0       ?OnClientConnectClose@CHostConnect@@MAEXXZ 00422eb0 f   HostConnect.obj
 0001:00021f50       ?FindPlayerByAcc@CHostConnect@@QAEHABV?$basic_string@DU?$char_traits@D@std@@V?$allocator@D@2@@std@@PAV23@PAK21@Z 00422f50 f   HostConnect.obj
 0001:00022130       ??R_tstring_iless@@QBE_NABV?$basic_string@DU?$char_traits@D@std@@V?$allocator@D@2@@std@@0@Z 00423130 f i HostConnect.obj
 0001:00022180       ?FindPlayerByRole@CHostConnect@@QAEHABV?$basic_string@DU?$char_traits@D@std@@V?$allocator@D@2@@std@@PAV23@PAK21@Z 00423180 f   HostConnect.obj
 0001:00022360       ?FindPlayerByParam@CHostConnect@@QAEHKPAV?$basic_string@DU?$char_traits@D@std@@V?$allocator@D@2@@std@@0PAK@Z 00423360 f   HostConnect.obj
 0001:00022550       ?PrepareRecvs@CHostConnect@@MAEXXZ 00423550 f   HostConnect.obj
 0001:00022560       ?UnprepareRecvs@CHostConnect@@MAEXXZ 00423560 f   HostConnect.obj
 0001:00022570       ?GetPlayerCount@CHostConnect@@QAEIXZ 00423570 f   HostConnect.obj
 0001:00022580       ??1?$pair@$$CBV?$basic_string@DU?$char_traits@D@std@@V?$allocator@D@2@@std@@UACCINFO@CHostConnect@@@std@@QAE@XZ 00423580 f i HostConnect.obj
 0001:000225f0       ??1?$pair@$$CBV?$basic_string@DU?$char_traits@D@std@@V?$allocator@D@2@@std@@UROLEINFO@CHostConnect@@@std@@QAE@XZ 004235f0 f i HostConnect.obj
 0001:00022660       ??1?$pair@$$CBKUPARAMINFO@CHostConnect@@@std@@QAE@XZ 00423660 f i HostConnect.obj
 0001:000226d0       ?insert@?$map@V?$basic_string@DU?$char_traits@D@std@@V?$allocator@D@2@@std@@UACCINFO@CHostConnect@@U_tstring_iless@@V?$allocator@UACCINFO@CHostConnect@@@2@@std@@QAE?AU?$pair@Viterator@?$_Tree@V?$basic_string@DU?$char_traits@D@std@@V?$allocator@D@2@@std@@U?$pair@$$CBV?$basic_string@DU?$char_traits@D@std@@V?$allocator@D@2@@std@@UACCINFO@CHostConnect@@@2@U_Kfn@?$map@V?$basic_string@DU?$char_traits@D@std@@V?$allocator@D@2@@std@@UACCINFO@CHostConnect@@U_tstring_iless@@V?$allocator@UACCINFO@CHostConnect@@@2@@2@U_tstring_iless@@V?$allocator@UACCINFO@CHostConnect@@@2@@std@@_N@2@ABU?$pair@$$CBV?$basic_string@DU?$char_traits@D@std@@V?$allocator@D@2@@std@@UACCINFO@CHostConnect@@@2@@Z 004236d0 f i HostConnect.obj
 0001:00022700       ?erase@?$_Tree@V?$basic_string@DU?$char_traits@D@std@@V?$allocator@D@2@@std@@U?$pair@$$CBV?$basic_string@DU?$char_traits@D@std@@V?$allocator@D@2@@std@@UACCINFO@CHostConnect@@@2@U_Kfn@?$map@V?$basic_string@DU?$char_traits@D@std@@V?$allocator@D@2@@std@@UACCINFO@CHostConnect@@U_tstring_iless@@V?$allocator@UACCINFO@CHostConnect@@@2@@2@U_tstring_iless@@V?$allocator@UACCINFO@CHostConnect@@@2@@std@@QAE?AViterator@12@V312@@Z 00423700 f i HostConnect.obj
 0001:00022c70       ?erase@?$_Tree@V?$basic_string@DU?$char_traits@D@std@@V?$allocator@D@2@@std@@U?$pair@$$CBV?$basic_string@DU?$char_traits@D@std@@V?$allocator@D@2@@std@@UACCINFO@CHostConnect@@@2@U_Kfn@?$map@V?$basic_string@DU?$char_traits@D@std@@V?$allocator@D@2@@std@@UACCINFO@CHostConnect@@U_tstring_iless@@V?$allocator@UACCINFO@CHostConnect@@@2@@2@U_tstring_iless@@V?$allocator@UACCINFO@CHostConnect@@@2@@std@@QAE?AViterator@12@V312@0@Z 00423c70 f i HostConnect.obj
 0001:00022db0       ?find@?$_Tree@V?$basic_string@DU?$char_traits@D@std@@V?$allocator@D@2@@std@@U?$pair@$$CBV?$basic_string@DU?$char_traits@D@std@@V?$allocator@D@2@@std@@UACCINFO@CHostConnect@@@2@U_Kfn@?$map@V?$basic_string@DU?$char_traits@D@std@@V?$allocator@D@2@@std@@UACCINFO@CHostConnect@@U_tstring_iless@@V?$allocator@UACCINFO@CHostConnect@@@2@@2@U_tstring_iless@@V?$allocator@UACCINFO@CHostConnect@@@2@@std@@QAE?AViterator@12@ABV?$basic_string@DU?$char_traits@D@std@@V?$allocator@D@2@@2@@Z 00423db0 f i HostConnect.obj
 0001:00022e30       ??0?$pair@$$CBV?$basic_string@DU?$char_traits@D@std@@V?$allocator@D@2@@std@@UACCINFO@CHostConnect@@@std@@QAE@ABV?$basic_string@DU?$char_traits@D@std@@V?$allocator@D@2@@1@ABUACCINFO@CHostConnect@@@Z 00423e30 f i HostConnect.obj
 0001:00022f60       ?insert@?$map@V?$basic_string@DU?$char_traits@D@std@@V?$allocator@D@2@@std@@UROLEINFO@CHostConnect@@U_tstring_less@@V?$allocator@UROLEINFO@CHostConnect@@@2@@std@@QAE?AU?$pair@Viterator@?$_Tree@V?$basic_string@DU?$char_traits@D@std@@V?$allocator@D@2@@std@@U?$pair@$$CBV?$basic_string@DU?$char_traits@D@std@@V?$allocator@D@2@@std@@UROLEINFO@CHostConnect@@@2@U_Kfn@?$map@V?$basic_string@DU?$char_traits@D@std@@V?$allocator@D@2@@std@@UROLEINFO@CHostConnect@@U_tstring_less@@V?$allocator@UROLEINFO@CHostConnect@@@2@@2@U_tstring_less@@V?$allocator@UROLEINFO@CHostConnect@@@2@@std@@_N@2@ABU?$pair@$$CBV?$basic_string@DU?$char_traits@D@std@@V?$allocator@D@2@@std@@UROLEINFO@CHostConnect@@@2@@Z 00423f60 f i HostConnect.obj
 0001:00022f90       ?erase@?$_Tree@V?$basic_string@DU?$char_traits@D@std@@V?$allocator@D@2@@std@@U?$pair@$$CBV?$basic_string@DU?$char_traits@D@std@@V?$allocator@D@2@@std@@UROLEINFO@CHostConnect@@@2@U_Kfn@?$map@V?$basic_string@DU?$char_traits@D@std@@V?$allocator@D@2@@std@@UROLEINFO@CHostConnect@@U_tstring_less@@V?$allocator@UROLEINFO@CHostConnect@@@2@@2@U_tstring_less@@V?$allocator@UROLEINFO@CHostConnect@@@2@@std@@QAE?AViterator@12@V312@0@Z 00423f90 f i HostConnect.obj
 0001:000230d0       ??0?$pair@$$CBV?$basic_string@DU?$char_traits@D@std@@V?$allocator@D@2@@std@@UROLEINFO@CHostConnect@@@std@@QAE@ABV?$basic_string@DU?$char_traits@D@std@@V?$allocator@D@2@@1@ABUROLEINFO@CHostConnect@@@Z 004240d0 f i HostConnect.obj
 0001:00023200       ?insert@?$map@KUPARAMINFO@CHostConnect@@U?$less@K@std@@V?$allocator@UPARAMINFO@CHostConnect@@@4@@std@@QAE?AU?$pair@Viterator@?$_Tree@KU?$pair@$$CBKUPARAMINFO@CHostConnect@@@std@@U_Kfn@?$map@KUPARAMINFO@CHostConnect@@U?$less@K@std@@V?$allocator@UPARAMINFO@CHostConnect@@@4@@2@U?$less@K@2@V?$allocator@UPARAMINFO@CHostConnect@@@2@@std@@_N@2@ABU?$pair@$$CBKUPARAMINFO@CHostConnect@@@2@@Z 00424200 f i HostConnect.obj
 0001:00023230       ?erase@?$_Tree@KU?$pair@$$CBKUPARAMINFO@CHostConnect@@@std@@U_Kfn@?$map@KUPARAMINFO@CHostConnect@@U?$less@K@std@@V?$allocator@UPARAMINFO@CHostConnect@@@4@@2@U?$less@K@2@V?$allocator@UPARAMINFO@CHostConnect@@@2@@std@@QAE?AViterator@12@V312@0@Z 00424230 f i HostConnect.obj
 0001:00023370       ??0?$pair@$$CBKUPARAMINFO@CHostConnect@@@std@@QAE@ABKABUPARAMINFO@CHostConnect@@@Z 00424370 f i HostConnect.obj
 0001:000234c0       ?insert@?$_Tree@V?$basic_string@DU?$char_traits@D@std@@V?$allocator@D@2@@std@@U?$pair@$$CBV?$basic_string@DU?$char_traits@D@std@@V?$allocator@D@2@@std@@UACCINFO@CHostConnect@@@2@U_Kfn@?$map@V?$basic_string@DU?$char_traits@D@std@@V?$allocator@D@2@@std@@UACCINFO@CHostConnect@@U_tstring_iless@@V?$allocator@UACCINFO@CHostConnect@@@2@@2@U_tstring_iless@@V?$allocator@UACCINFO@CHostConnect@@@2@@std@@QAE?AU?$pair@Viterator@?$_Tree@V?$basic_string@DU?$char_traits@D@std@@V?$allocator@D@2@@std@@U?$pair@$$CBV?$basic_string@DU?$char_traits@D@std@@V?$allocator@D@2@@std@@UACCINFO@CHostConnect@@@2@U_Kfn@?$map@V?$basic_string@DU?$char_traits@D@std@@V?$allocator@D@2@@std@@UACCINFO@CHostConnect@@U_tstring_iless@@V?$allocator@UACCINFO@CHostConnect@@@2@@2@U_tstring_iless@@V?$allocator@UACCINFO@CHostConnect@@@2@@std@@_N@2@ABU?$pair@$$CBV?$basic_string@DU?$char_traits@D@std@@V?$allocator@D@2@@std@@UACCINFO@CHostConnect@@@2@@Z 004244c0 f i HostConnect.obj
 0001:00023640       ?lower_bound@?$_Tree@V?$basic_string@DU?$char_traits@D@std@@V?$allocator@D@2@@std@@U?$pair@$$CBV?$basic_string@DU?$char_traits@D@std@@V?$allocator@D@2@@std@@UACCINFO@CHostConnect@@@2@U_Kfn@?$map@V?$basic_string@DU?$char_traits@D@std@@V?$allocator@D@2@@std@@UACCINFO@CHostConnect@@U_tstring_iless@@V?$allocator@UACCINFO@CHostConnect@@@2@@2@U_tstring_iless@@V?$allocator@UACCINFO@CHostConnect@@@2@@std@@QAE?AViterator@12@ABV?$basic_string@DU?$char_traits@D@std@@V?$allocator@D@2@@2@@Z 00424640 f i HostConnect.obj
 0001:00023660       ?_Erase@?$_Tree@V?$basic_string@DU?$char_traits@D@std@@V?$allocator@D@2@@std@@U?$pair@$$CBV?$basic_string@DU?$char_traits@D@std@@V?$allocator@D@2@@std@@UACCINFO@CHostConnect@@@2@U_Kfn@?$map@V?$basic_string@DU?$char_traits@D@std@@V?$allocator@D@2@@std@@UACCINFO@CHostConnect@@U_tstring_iless@@V?$allocator@UACCINFO@CHostConnect@@@2@@2@U_tstring_iless@@V?$allocator@UACCINFO@CHostConnect@@@2@@std@@IAEXPAU_Node@12@@Z 00424660 f i HostConnect.obj
 0001:00023740       ?insert@?$_Tree@V?$basic_string@DU?$char_traits@D@std@@V?$allocator@D@2@@std@@U?$pair@$$CBV?$basic_string@DU?$char_traits@D@std@@V?$allocator@D@2@@std@@UROLEINFO@CHostConnect@@@2@U_Kfn@?$map@V?$basic_string@DU?$char_traits@D@std@@V?$allocator@D@2@@std@@UROLEINFO@CHostConnect@@U_tstring_less@@V?$allocator@UROLEINFO@CHostConnect@@@2@@2@U_tstring_less@@V?$allocator@UROLEINFO@CHostConnect@@@2@@std@@QAE?AU?$pair@Viterator@?$_Tree@V?$basic_string@DU?$char_traits@D@std@@V?$allocator@D@2@@std@@U?$pair@$$CBV?$basic_string@DU?$char_traits@D@std@@V?$allocator@D@2@@std@@UROLEINFO@CHostConnect@@@2@U_Kfn@?$map@V?$basic_string@DU?$char_traits@D@std@@V?$allocator@D@2@@std@@UROLEINFO@CHostConnect@@U_tstring_less@@V?$allocator@UROLEINFO@CHostConnect@@@2@@2@U_tstring_less@@V?$allocator@UROLEINFO@CHostConnect@@@2@@std@@_N@2@ABU?$pair@$$CBV?$basic_string@DU?$char_traits@D@std@@V?$allocator@D@2@@std@@UROLEINFO@CHostConnect@@@2@@Z 00424740 f i HostConnect.obj
 0001:000238c0       ?erase@?$_Tree@V?$basic_string@DU?$char_traits@D@std@@V?$allocator@D@2@@std@@U?$pair@$$CBV?$basic_string@DU?$char_traits@D@std@@V?$allocator@D@2@@std@@UROLEINFO@CHostConnect@@@2@U_Kfn@?$map@V?$basic_string@DU?$char_traits@D@std@@V?$allocator@D@2@@std@@UROLEINFO@CHostConnect@@U_tstring_less@@V?$allocator@UROLEINFO@CHostConnect@@@2@@2@U_tstring_less@@V?$allocator@UROLEINFO@CHostConnect@@@2@@std@@QAE?AViterator@12@V312@@Z 004248c0 f i HostConnect.obj
 0001:00023e30       ?lower_bound@?$_Tree@V?$basic_string@DU?$char_traits@D@std@@V?$allocator@D@2@@std@@U?$pair@$$CBV?$basic_string@DU?$char_traits@D@std@@V?$allocator@D@2@@std@@UROLEINFO@CHostConnect@@@2@U_Kfn@?$map@V?$basic_string@DU?$char_traits@D@std@@V?$allocator@D@2@@std@@UROLEINFO@CHostConnect@@U_tstring_less@@V?$allocator@UROLEINFO@CHostConnect@@@2@@2@U_tstring_less@@V?$allocator@UROLEINFO@CHostConnect@@@2@@std@@QAE?AViterator@12@ABV?$basic_string@DU?$char_traits@D@std@@V?$allocator@D@2@@2@@Z 00424e30 f i HostConnect.obj
 0001:00023e50       ?_Erase@?$_Tree@V?$basic_string@DU?$char_traits@D@std@@V?$allocator@D@2@@std@@U?$pair@$$CBV?$basic_string@DU?$char_traits@D@std@@V?$allocator@D@2@@std@@UROLEINFO@CHostConnect@@@2@U_Kfn@?$map@V?$basic_string@DU?$char_traits@D@std@@V?$allocator@D@2@@std@@UROLEINFO@CHostConnect@@U_tstring_less@@V?$allocator@UROLEINFO@CHostConnect@@@2@@2@U_tstring_less@@V?$allocator@UROLEINFO@CHostConnect@@@2@@std@@IAEXPAU_Node@12@@Z 00424e50 f i HostConnect.obj
 0001:00023f30       ?insert@?$_Tree@KU?$pair@$$CBKUPARAMINFO@CHostConnect@@@std@@U_Kfn@?$map@KUPARAMINFO@CHostConnect@@U?$less@K@std@@V?$allocator@UPARAMINFO@CHostConnect@@@4@@2@U?$less@K@2@V?$allocator@UPARAMINFO@CHostConnect@@@2@@std@@QAE?AU?$pair@Viterator@?$_Tree@KU?$pair@$$CBKUPARAMINFO@CHostConnect@@@std@@U_Kfn@?$map@KUPARAMINFO@CHostConnect@@U?$less@K@std@@V?$allocator@UPARAMINFO@CHostConnect@@@4@@2@U?$less@K@2@V?$allocator@UPARAMINFO@CHostConnect@@@2@@std@@_N@2@ABU?$pair@$$CBKUPARAMINFO@CHostConnect@@@2@@Z 00424f30 f i HostConnect.obj
 0001:00024060       ?erase@?$_Tree@KU?$pair@$$CBKUPARAMINFO@CHostConnect@@@std@@U_Kfn@?$map@KUPARAMINFO@CHostConnect@@U?$less@K@std@@V?$allocator@UPARAMINFO@CHostConnect@@@4@@2@U?$less@K@2@V?$allocator@UPARAMINFO@CHostConnect@@@2@@std@@QAE?AViterator@12@V312@@Z 00425060 f i HostConnect.obj
 0001:000245d0       ?lower_bound@?$_Tree@KU?$pair@$$CBKUPARAMINFO@CHostConnect@@@std@@U_Kfn@?$map@KUPARAMINFO@CHostConnect@@U?$less@K@std@@V?$allocator@UPARAMINFO@CHostConnect@@@4@@2@U?$less@K@2@V?$allocator@UPARAMINFO@CHostConnect@@@2@@std@@QAE?AViterator@12@ABK@Z 004255d0 f i HostConnect.obj
 0001:000245f0       ?_Erase@?$_Tree@KU?$pair@$$CBKUPARAMINFO@CHostConnect@@@std@@U_Kfn@?$map@KUPARAMINFO@CHostConnect@@U?$less@K@std@@V?$allocator@UPARAMINFO@CHostConnect@@@4@@2@U?$less@K@2@V?$allocator@UPARAMINFO@CHostConnect@@@2@@std@@IAEXPAU_Node@12@@Z 004255f0 f i HostConnect.obj
 0001:000246d0       ??0?$pair@Viterator@?$_Tree@V?$basic_string@DU?$char_traits@D@std@@V?$allocator@D@2@@std@@U?$pair@$$CBV?$basic_string@DU?$char_traits@D@std@@V?$allocator@D@2@@std@@UACCINFO@CHostConnect@@@2@U_Kfn@?$map@V?$basic_string@DU?$char_traits@D@std@@V?$allocator@D@2@@std@@UACCINFO@CHostConnect@@U_tstring_iless@@V?$allocator@UACCINFO@CHostConnect@@@2@@2@U_tstring_iless@@V?$allocator@UACCINFO@CHostConnect@@@2@@std@@_N@std@@QAE@ABViterator@?$_Tree@V?$basic_string@DU?$char_traits@D@std@@V?$allocator@D@2@@std@@U?$pair@$$CBV?$basic_string@DU?$char_traits@D@std@@V?$allocator@D@2@@std@@UACCINFO@CHostConnect@@@2@U_Kfn@?$map@V?$basic_string@DU?$char_traits@D@std@@V?$allocator@D@2@@std@@UACCINFO@CHostConnect@@U_tstring_iless@@V?$allocator@UACCINFO@CHostConnect@@@2@@2@U_tstring_iless@@V?$allocator@UACCINFO@CHostConnect@@@2@@1@AB_N@Z 004256d0 f i HostConnect.obj
 0001:000246f0       ??0?$pair@Viterator@?$_Tree@V?$basic_string@DU?$char_traits@D@std@@V?$allocator@D@2@@std@@U?$pair@$$CBV?$basic_string@DU?$char_traits@D@std@@V?$allocator@D@2@@std@@UROLEINFO@CHostConnect@@@2@U_Kfn@?$map@V?$basic_string@DU?$char_traits@D@std@@V?$allocator@D@2@@std@@UROLEINFO@CHostConnect@@U_tstring_less@@V?$allocator@UROLEINFO@CHostConnect@@@2@@2@U_tstring_less@@V?$allocator@UROLEINFO@CHostConnect@@@2@@std@@_N@std@@QAE@ABViterator@?$_Tree@V?$basic_string@DU?$char_traits@D@std@@V?$allocator@D@2@@std@@U?$pair@$$CBV?$basic_string@DU?$char_traits@D@std@@V?$allocator@D@2@@std@@UROLEINFO@CHostConnect@@@2@U_Kfn@?$map@V?$basic_string@DU?$char_traits@D@std@@V?$allocator@D@2@@std@@UROLEINFO@CHostConnect@@U_tstring_less@@V?$allocator@UROLEINFO@CHostConnect@@@2@@2@U_tstring_less@@V?$allocator@UROLEINFO@CHostConnect@@@2@@1@AB_N@Z 004256f0 f i HostConnect.obj
 0001:00024710       ?_Insert@?$_Tree@V?$basic_string@DU?$char_traits@D@std@@V?$allocator@D@2@@std@@U?$pair@$$CBV?$basic_string@DU?$char_traits@D@std@@V?$allocator@D@2@@std@@UACCINFO@CHostConnect@@@2@U_Kfn@?$map@V?$basic_string@DU?$char_traits@D@std@@V?$allocator@D@2@@std@@UACCINFO@CHostConnect@@U_tstring_iless@@V?$allocator@UACCINFO@CHostConnect@@@2@@2@U_tstring_iless@@V?$allocator@UACCINFO@CHostConnect@@@2@@std@@IAE?AViterator@12@PAU_Node@12@0ABU?$pair@$$CBV?$basic_string@DU?$char_traits@D@std@@V?$allocator@D@2@@std@@UACCINFO@CHostConnect@@@2@@Z 00425710 f i HostConnect.obj
 0001:00024a40       ?_Lbound@?$_Tree@V?$basic_string@DU?$char_traits@D@std@@V?$allocator@D@2@@std@@U?$pair@$$CBV?$basic_string@DU?$char_traits@D@std@@V?$allocator@D@2@@std@@UACCINFO@CHostConnect@@@2@U_Kfn@?$map@V?$basic_string@DU?$char_traits@D@std@@V?$allocator@D@2@@std@@UACCINFO@CHostConnect@@U_tstring_iless@@V?$allocator@UACCINFO@CHostConnect@@@2@@2@U_tstring_iless@@V?$allocator@UACCINFO@CHostConnect@@@2@@std@@IBEPAU_Node@12@ABV?$basic_string@DU?$char_traits@D@std@@V?$allocator@D@2@@2@@Z 00425a40 f i HostConnect.obj
 0001:00024ac0       ?_Buynode@?$_Tree@V?$basic_string@DU?$char_traits@D@std@@V?$allocator@D@2@@std@@U?$pair@$$CBV?$basic_string@DU?$char_traits@D@std@@V?$allocator@D@2@@std@@UACCINFO@CHostConnect@@@2@U_Kfn@?$map@V?$basic_string@DU?$char_traits@D@std@@V?$allocator@D@2@@std@@UACCINFO@CHostConnect@@U_tstring_iless@@V?$allocator@UACCINFO@CHostConnect@@@2@@2@U_tstring_iless@@V?$allocator@UACCINFO@CHostConnect@@@2@@std@@IAEPAU_Node@12@PAU312@W4_Redbl@12@@Z 00425ac0 f i HostConnect.obj
 0001:00024ae0       ?upper_bound@?$_Tree@V?$basic_string@DU?$char_traits@D@std@@V?$allocator@D@2@@std@@U?$pair@$$CBV?$basic_string@DU?$char_traits@D@std@@V?$allocator@D@2@@std@@UROLEINFO@CHostConnect@@@2@U_Kfn@?$map@V?$basic_string@DU?$char_traits@D@std@@V?$allocator@D@2@@std@@UROLEINFO@CHostConnect@@U_tstring_less@@V?$allocator@UROLEINFO@CHostConnect@@@2@@2@U_tstring_less@@V?$allocator@UROLEINFO@CHostConnect@@@2@@std@@QAE?AViterator@12@ABV?$basic_string@DU?$char_traits@D@std@@V?$allocator@D@2@@2@@Z 00425ae0 f i HostConnect.obj
 0001:00024b00       ?_Insert@?$_Tree@V?$basic_string@DU?$char_traits@D@std@@V?$allocator@D@2@@std@@U?$pair@$$CBV?$basic_string@DU?$char_traits@D@std@@V?$allocator@D@2@@std@@UROLEINFO@CHostConnect@@@2@U_Kfn@?$map@V?$basic_string@DU?$char_traits@D@std@@V?$allocator@D@2@@std@@UROLEINFO@CHostConnect@@U_tstring_less@@V?$allocator@UROLEINFO@CHostConnect@@@2@@2@U_tstring_less@@V?$allocator@UROLEINFO@CHostConnect@@@2@@std@@IAE?AViterator@12@PAU_Node@12@0ABU?$pair@$$CBV?$basic_string@DU?$char_traits@D@std@@V?$allocator@D@2@@std@@UROLEINFO@CHostConnect@@@2@@Z 00425b00 f i HostConnect.obj
 0001:00024e30       ?_Lbound@?$_Tree@V?$basic_string@DU?$char_traits@D@std@@V?$allocator@D@2@@std@@U?$pair@$$CBV?$basic_string@DU?$char_traits@D@std@@V?$allocator@D@2@@std@@UROLEINFO@CHostConnect@@@2@U_Kfn@?$map@V?$basic_string@DU?$char_traits@D@std@@V?$allocator@D@2@@std@@UROLEINFO@CHostConnect@@U_tstring_less@@V?$allocator@UROLEINFO@CHostConnect@@@2@@2@U_tstring_less@@V?$allocator@UROLEINFO@CHostConnect@@@2@@std@@IBEPAU_Node@12@ABV?$basic_string@DU?$char_traits@D@std@@V?$allocator@D@2@@2@@Z 00425e30 f i HostConnect.obj
 0001:00024eb0       ?_Buynode@?$_Tree@V?$basic_string@DU?$char_traits@D@std@@V?$allocator@D@2@@std@@U?$pair@$$CBV?$basic_string@DU?$char_traits@D@std@@V?$allocator@D@2@@std@@UROLEINFO@CHostConnect@@@2@U_Kfn@?$map@V?$basic_string@DU?$char_traits@D@std@@V?$allocator@D@2@@std@@UROLEINFO@CHostConnect@@U_tstring_less@@V?$allocator@UROLEINFO@CHostConnect@@@2@@2@U_tstring_less@@V?$allocator@UROLEINFO@CHostConnect@@@2@@std@@IAEPAU_Node@12@PAU312@W4_Redbl@12@@Z 00425eb0 f i HostConnect.obj
 0001:00024ed0       ?upper_bound@?$_Tree@KU?$pair@$$CBKUPARAMINFO@CHostConnect@@@std@@U_Kfn@?$map@KUPARAMINFO@CHostConnect@@U?$less@K@std@@V?$allocator@UPARAMINFO@CHostConnect@@@4@@2@U?$less@K@2@V?$allocator@UPARAMINFO@CHostConnect@@@2@@std@@QAE?AViterator@12@ABK@Z 00425ed0 f i HostConnect.obj
 0001:00024ef0       ?_Insert@?$_Tree@KU?$pair@$$CBKUPARAMINFO@CHostConnect@@@std@@U_Kfn@?$map@KUPARAMINFO@CHostConnect@@U?$less@K@std@@V?$allocator@UPARAMINFO@CHostConnect@@@4@@2@U?$less@K@2@V?$allocator@UPARAMINFO@CHostConnect@@@2@@std@@IAE?AViterator@12@PAU_Node@12@0ABU?$pair@$$CBKUPARAMINFO@CHostConnect@@@2@@Z 00425ef0 f i HostConnect.obj
 0001:000251f0       ?_Lbound@?$_Tree@KU?$pair@$$CBKUPARAMINFO@CHostConnect@@@std@@U_Kfn@?$map@KUPARAMINFO@CHostConnect@@U?$less@K@std@@V?$allocator@UPARAMINFO@CHostConnect@@@4@@2@U?$less@K@2@V?$allocator@UPARAMINFO@CHostConnect@@@2@@std@@IBEPAU_Node@12@ABK@Z 004261f0 f i HostConnect.obj
 0001:00025240       ?_Buynode@?$_Tree@KU?$pair@$$CBKUPARAMINFO@CHostConnect@@@std@@U_Kfn@?$map@KUPARAMINFO@CHostConnect@@U?$less@K@std@@V?$allocator@UPARAMINFO@CHostConnect@@@4@@2@U?$less@K@2@V?$allocator@UPARAMINFO@CHostConnect@@@2@@std@@IAEPAU_Node@12@PAU312@W4_Redbl@12@@Z 00426240 f i HostConnect.obj
 0001:00025260       ?_Dec@const_iterator@?$_Tree@V?$basic_string@DU?$char_traits@D@std@@V?$allocator@D@2@@std@@U?$pair@$$CBV?$basic_string@DU?$char_traits@D@std@@V?$allocator@D@2@@std@@UACCINFO@CHostConnect@@@2@U_Kfn@?$map@V?$basic_string@DU?$char_traits@D@std@@V?$allocator@D@2@@std@@UACCINFO@CHostConnect@@U_tstring_iless@@V?$allocator@UACCINFO@CHostConnect@@@2@@2@U_tstring_iless@@V?$allocator@UACCINFO@CHostConnect@@@2@@std@@QAEXXZ 00426260 f i HostConnect.obj
 0001:00025320       ?_Inc@const_iterator@?$_Tree@V?$basic_string@DU?$char_traits@D@std@@V?$allocator@D@2@@std@@U?$pair@$$CBV?$basic_string@DU?$char_traits@D@std@@V?$allocator@D@2@@std@@UACCINFO@CHostConnect@@@2@U_Kfn@?$map@V?$basic_string@DU?$char_traits@D@std@@V?$allocator@D@2@@std@@UACCINFO@CHostConnect@@U_tstring_iless@@V?$allocator@UACCINFO@CHostConnect@@@2@@2@U_tstring_iless@@V?$allocator@UACCINFO@CHostConnect@@@2@@std@@QAEXXZ 00426320 f i HostConnect.obj
 0001:000253d0       ?_Ubound@?$_Tree@V?$basic_string@DU?$char_traits@D@std@@V?$allocator@D@2@@std@@U?$pair@$$CBV?$basic_string@DU?$char_traits@D@std@@V?$allocator@D@2@@std@@UROLEINFO@CHostConnect@@@2@U_Kfn@?$map@V?$basic_string@DU?$char_traits@D@std@@V?$allocator@D@2@@std@@UROLEINFO@CHostConnect@@U_tstring_less@@V?$allocator@UROLEINFO@CHostConnect@@@2@@2@U_tstring_less@@V?$allocator@UROLEINFO@CHostConnect@@@2@@std@@IBEPAU_Node@12@ABV?$basic_string@DU?$char_traits@D@std@@V?$allocator@D@2@@2@@Z 004263d0 f i HostConnect.obj
 0001:00025450       ?_Dec@const_iterator@?$_Tree@V?$basic_string@DU?$char_traits@D@std@@V?$allocator@D@2@@std@@U?$pair@$$CBV?$basic_string@DU?$char_traits@D@std@@V?$allocator@D@2@@std@@UROLEINFO@CHostConnect@@@2@U_Kfn@?$map@V?$basic_string@DU?$char_traits@D@std@@V?$allocator@D@2@@std@@UROLEINFO@CHostConnect@@U_tstring_less@@V?$allocator@UROLEINFO@CHostConnect@@@2@@2@U_tstring_less@@V?$allocator@UROLEINFO@CHostConnect@@@2@@std@@QAEXXZ 00426450 f i HostConnect.obj
 0001:00025510       ?_Inc@const_iterator@?$_Tree@V?$basic_string@DU?$char_traits@D@std@@V?$allocator@D@2@@std@@U?$pair@$$CBV?$basic_string@DU?$char_traits@D@std@@V?$allocator@D@2@@std@@UROLEINFO@CHostConnect@@@2@U_Kfn@?$map@V?$basic_string@DU?$char_traits@D@std@@V?$allocator@D@2@@std@@UROLEINFO@CHostConnect@@U_tstring_less@@V?$allocator@UROLEINFO@CHostConnect@@@2@@2@U_tstring_less@@V?$allocator@UROLEINFO@CHostConnect@@@2@@std@@QAEXXZ 00426510 f i HostConnect.obj
 0001:000255c0       ?_Ubound@?$_Tree@KU?$pair@$$CBKUPARAMINFO@CHostConnect@@@std@@U_Kfn@?$map@KUPARAMINFO@CHostConnect@@U?$less@K@std@@V?$allocator@UPARAMINFO@CHostConnect@@@4@@2@U?$less@K@2@V?$allocator@UPARAMINFO@CHostConnect@@@2@@std@@IBEPAU_Node@12@ABK@Z 004265c0 f i HostConnect.obj
 0001:00025610       ?_Dec@const_iterator@?$_Tree@KU?$pair@$$CBKUPARAMINFO@CHostConnect@@@std@@U_Kfn@?$map@KUPARAMINFO@CHostConnect@@U?$less@K@std@@V?$allocator@UPARAMINFO@CHostConnect@@@4@@2@U?$less@K@2@V?$allocator@UPARAMINFO@CHostConnect@@@2@@std@@QAEXXZ 00426610 f i HostConnect.obj
 0001:000256d0       ?_Inc@const_iterator@?$_Tree@KU?$pair@$$CBKUPARAMINFO@CHostConnect@@@std@@U_Kfn@?$map@KUPARAMINFO@CHostConnect@@U?$less@K@std@@V?$allocator@UPARAMINFO@CHostConnect@@@4@@2@U?$less@K@2@V?$allocator@UPARAMINFO@CHostConnect@@@2@@std@@QAEXXZ 004266d0 f i HostConnect.obj
 0001:00025780       ?_Distance@std@@YAXViterator@?$_Tree@V?$basic_string@DU?$char_traits@D@std@@V?$allocator@D@2@@std@@U?$pair@$$CBV?$basic_string@DU?$char_traits@D@std@@V?$allocator@D@2@@std@@UROLEINFO@CHostConnect@@@2@U_Kfn@?$map@V?$basic_string@DU?$char_traits@D@std@@V?$allocator@D@2@@std@@UROLEINFO@CHostConnect@@U_tstring_less@@V?$allocator@UROLEINFO@CHostConnect@@@2@@2@U_tstring_less@@V?$allocator@UROLEINFO@CHostConnect@@@2@@1@0AAI@Z 00426780 f i HostConnect.obj
 0001:000257b0       ?_Distance@std@@YAXViterator@?$_Tree@KU?$pair@$$CBKUPARAMINFO@CHostConnect@@@std@@U_Kfn@?$map@KUPARAMINFO@CHostConnect@@U?$less@K@std@@V?$allocator@UPARAMINFO@CHostConnect@@@4@@2@U?$less@K@2@V?$allocator@UPARAMINFO@CHostConnect@@@2@@1@0AAI@Z 004267b0 f i HostConnect.obj
 0001:000257e0       ?_Construct@std@@YAXPAU?$pair@$$CBV?$basic_string@DU?$char_traits@D@std@@V?$allocator@D@2@@std@@UACCINFO@CHostConnect@@@1@ABU21@@Z 004267e0 f i HostConnect.obj
 0001:00025930       ?_Construct@std@@YAXPAU?$pair@$$CBV?$basic_string@DU?$char_traits@D@std@@V?$allocator@D@2@@std@@UROLEINFO@CHostConnect@@@1@ABU21@@Z 00426930 f i HostConnect.obj
 0001:00025a80       ?_Construct@std@@YAXPAU?$pair@$$CBKUPARAMINFO@CHostConnect@@@1@ABU21@@Z 00426a80 f i HostConnect.obj
 0001:00025c10       ??0CHostServer@@QAE@XZ     00426c10 f   HostServer.obj
 0001:00025cf0       ??_GCHostServer@@UAEPAXI@Z 00426cf0 f i HostServer.obj
 0001:00025cf0       ??_ECHostServer@@UAEPAXI@Z 00426cf0 f i HostServer.obj
 0001:00025d10       ??1?$map@KPAVCHostConnect@@U?$less@K@std@@V?$allocator@PAVCHostConnect@@@3@@std@@QAE@XZ 00426d10 f i HostServer.obj
 0001:00025d80       ??1CHostServer@@UAE@XZ     00426d80 f   HostServer.obj
 0001:00025e40       ?CreateConnect@CHostServer@@MAEPAVCNetConnect@@PAVCNetServer@@K@Z 00426e40 f   HostServer.obj
 0001:00025eb0       ?DestroyConnect@CHostServer@@MAEXPAVCNetConnect@@@Z 00426eb0 f   HostServer.obj
 0001:00025ed0       ?OnBuildup@CHostServer@@MAEXXZ 00426ed0 f   HostServer.obj
 0001:00025f30       ?OnClearup@CHostServer@@MAEXXZ 00426f30 f   HostServer.obj
 0001:00025fb0       ?OnClientConnectCreate@CHostServer@@MAEXPAVCNetConnect@@@Z 00426fb0 f   HostServer.obj
 0001:00026040       ?OnClientConnectClose@CHostServer@@MAEXPAVCNetConnect@@@Z 00427040 f   HostServer.obj
 0001:000260f0       ?FindHostConnectByIP@CHostServer@@QAE?AVCNetConnectDup@@K@Z 004270f0 f   HostServer.obj
 0001:000261d0       ?FindPlayerByAcc@CHostServer@@QAEHPAVCHostConnect@@ABV?$basic_string@DU?$char_traits@D@std@@V?$allocator@D@2@@std@@PAVCNetConnectDup@@PAV34@PAK43@Z 004271d0 f   HostServer.obj
 0001:000262b0       ?FindPlayerByRole@CHostServer@@QAEHPAVCHostConnect@@ABV?$basic_string@DU?$char_traits@D@std@@V?$allocator@D@2@@std@@PAVCNetConnectDup@@PAV34@PAK43@Z 004272b0 f   HostServer.obj
 0001:00026390       ?FindPlayerByIpParam@CHostServer@@QAEHPAVCHostConnect@@KKPAVCNetConnectDup@@PAV?$basic_string@DU?$char_traits@D@std@@V?$allocator@D@2@@std@@2PAK@Z 00427390 f   HostServer.obj
 0001:000264a0       ?GetPlayerCount@CHostServer@@QAEIXZ 004274a0 f   HostServer.obj
 0001:00026570       ?TraceInfo@CHostServer@@QAEHXZ 00427570 f   HostServer.obj
 0001:000267c0       ?TracePlayer@CHostServer@@QAEHXZ 004277c0 f   HostServer.obj
 0001:00026a20       ?erase@?$_Tree@KU?$pair@$$CBKPAVCHostConnect@@@std@@U_Kfn@?$map@KPAVCHostConnect@@U?$less@K@std@@V?$allocator@PAVCHostConnect@@@3@@2@U?$less@K@2@V?$allocator@PAVCHostConnect@@@2@@std@@QAE?AViterator@12@V312@0@Z 00427a20 f i HostServer.obj
 0001:00026b50       ?find@?$_Tree@KU?$pair@$$CBKPAVCHostConnect@@@std@@U_Kfn@?$map@KPAVCHostConnect@@U?$less@K@std@@V?$allocator@PAVCHostConnect@@@3@@2@U?$less@K@2@V?$allocator@PAVCHostConnect@@@2@@std@@QAE?AViterator@12@ABK@Z 00427b50 f i HostServer.obj
 0001:00026ba0       ?insert@?$_Tree@KU?$pair@$$CBKPAVCHostConnect@@@std@@U_Kfn@?$map@KPAVCHostConnect@@U?$less@K@std@@V?$allocator@PAVCHostConnect@@@3@@2@U?$less@K@2@V?$allocator@PAVCHostConnect@@@2@@std@@QAE?AU?$pair@Viterator@?$_Tree@KU?$pair@$$CBKPAVCHostConnect@@@std@@U_Kfn@?$map@KPAVCHostConnect@@U?$less@K@std@@V?$allocator@PAVCHostConnect@@@3@@2@U?$less@K@2@V?$allocator@PAVCHostConnect@@@2@@std@@_N@2@ABU?$pair@$$CBKPAVCHostConnect@@@2@@Z 00427ba0 f i HostServer.obj
 0001:00026cd0       ?erase@?$_Tree@KU?$pair@$$CBKPAVCHostConnect@@@std@@U_Kfn@?$map@KPAVCHostConnect@@U?$less@K@std@@V?$allocator@PAVCHostConnect@@@3@@2@U?$less@K@2@V?$allocator@PAVCHostConnect@@@2@@std@@QAE?AViterator@12@V312@@Z 00427cd0 f i HostServer.obj
 0001:000271f0       ?lower_bound@?$_Tree@KU?$pair@$$CBKPAVCHostConnect@@@std@@U_Kfn@?$map@KPAVCHostConnect@@U?$less@K@std@@V?$allocator@PAVCHostConnect@@@3@@2@U?$less@K@2@V?$allocator@PAVCHostConnect@@@2@@std@@QAE?AViterator@12@ABK@Z 004281f0 f i HostServer.obj
 0001:00027210       ?_Erase@?$_Tree@KU?$pair@$$CBKPAVCHostConnect@@@std@@U_Kfn@?$map@KPAVCHostConnect@@U?$less@K@std@@V?$allocator@PAVCHostConnect@@@3@@2@U?$less@K@2@V?$allocator@PAVCHostConnect@@@2@@std@@IAEXPAU_Node@12@@Z 00428210 f i HostServer.obj
 0001:000272a0       ?_Inc@const_iterator@?$_Tree@KU?$pair@$$CBKPAVCHostConnect@@@std@@U_Kfn@?$map@KPAVCHostConnect@@U?$less@K@std@@V?$allocator@PAVCHostConnect@@@3@@2@U?$less@K@2@V?$allocator@PAVCHostConnect@@@2@@std@@QAEXXZ 004282a0 f i HostServer.obj
 0001:00027350       ?_Insert@?$_Tree@KU?$pair@$$CBKPAVCHostConnect@@@std@@U_Kfn@?$map@KPAVCHostConnect@@U?$less@K@std@@V?$allocator@PAVCHostConnect@@@3@@2@U?$less@K@2@V?$allocator@PAVCHostConnect@@@2@@std@@IAE?AViterator@12@PAU_Node@12@0ABU?$pair@$$CBKPAVCHostConnect@@@2@@Z 00428350 f i HostServer.obj
 0001:00027650       ?_Lbound@?$_Tree@KU?$pair@$$CBKPAVCHostConnect@@@std@@U_Kfn@?$map@KPAVCHostConnect@@U?$less@K@std@@V?$allocator@PAVCHostConnect@@@3@@2@U?$less@K@2@V?$allocator@PAVCHostConnect@@@2@@std@@IBEPAU_Node@12@ABK@Z 00428650 f i HostServer.obj
 0001:000276a0       ?_Min@?$_Tree@KU?$pair@$$CBKPAVCHostConnect@@@std@@U_Kfn@?$map@KPAVCHostConnect@@U?$less@K@std@@V?$allocator@PAVCHostConnect@@@3@@2@U?$less@K@2@V?$allocator@PAVCHostConnect@@@2@@std@@KAPAU_Node@12@PAU312@@Z 004286a0 f i HostServer.obj
 0001:000276e0       ?_Ubound@?$_Tree@KU?$pair@$$CBKPAVCHostConnect@@@std@@U_Kfn@?$map@KPAVCHostConnect@@U?$less@K@std@@V?$allocator@PAVCHostConnect@@@3@@2@U?$less@K@2@V?$allocator@PAVCHostConnect@@@2@@std@@IBEPAU_Node@12@ABK@Z 004286e0 f i HostServer.obj
 0001:00027730       ?_Dec@const_iterator@?$_Tree@KU?$pair@$$CBKPAVCHostConnect@@@std@@U_Kfn@?$map@KPAVCHostConnect@@U?$less@K@std@@V?$allocator@PAVCHostConnect@@@3@@2@U?$less@K@2@V?$allocator@PAVCHostConnect@@@2@@std@@QAEXXZ 00428730 f i HostServer.obj
 0001:000277f0       ?_Construct@std@@YAXPAU?$pair@$$CBKPAVCHostConnect@@@1@ABU21@@Z 004287f0 f i HostServer.obj
 0001:00027840       ??0KThread@@QAE@XZ         00428840 f   KThread.obj
 0001:00027860       ??_EKThread@@UAEPAXI@Z     00428860 f i KThread.obj
 0001:00027860       ??_GKThread@@UAEPAXI@Z     00428860 f i KThread.obj
 0001:00027880       ??1KThread@@UAE@XZ         00428880 f   KThread.obj
 0001:00027890       ?Start@KThread@@UAEPAXXZ   00428890 f   KThread.obj
 0001:000278e0       ?Stop@KThread@@UAEHXZ      004288e0 f   KThread.obj
 0001:00027970       ?IsAskingStop@KThread@@UAEHXZ 00428970 f   KThread.obj
 0001:00027990       ?ThreadFun@KThread@@SGIPAX@Z 00428990 f   KThread.obj
 0001:00027a70       ??0CLockSRSW@@QAE@XZ       00428a70 f   Lock.obj
 0001:00027a90       ??_ECLockSRSW@@UAEPAXI@Z   00428a90 f i Lock.obj
 0001:00027a90       ??_GCLockSRSW@@UAEPAXI@Z   00428a90 f i Lock.obj
 0001:00027ab0       ??1CLockSRSW@@UAE@XZ       00428ab0 f   Lock.obj
 0001:00027ad0       ?EnterRead@CLockSRSW@@UAEXXZ 00428ad0 f   Lock.obj
 0001:00027ae0       ?LeaveRead@CLockSRSW@@UAEXXZ 00428ae0 f   Lock.obj
 0001:00027af0       ?EnterWrite@CLockSRSW@@UAEXXZ 00428af0 f   Lock.obj
 0001:00027b00       ?LeaveWrite@CLockSRSW@@UAEXXZ 00428b00 f   Lock.obj
 0001:00027b10       ??0CLockMRSW@@QAE@XZ       00428b10 f   Lock.obj
 0001:00027b50       ??_ECLockMRSW@@UAEPAXI@Z   00428b50 f i Lock.obj
 0001:00027b50       ??_GCLockMRSW@@UAEPAXI@Z   00428b50 f i Lock.obj
 0001:00027b70       ??1CLockMRSW@@UAE@XZ       00428b70 f   Lock.obj
 0001:00027ba0       ?EnterRead@CLockMRSW@@UAEXXZ 00428ba0 f   Lock.obj
 0001:00027be0       ?LeaveRead@CLockMRSW@@UAEXXZ 00428be0 f   Lock.obj
 0001:00027c10       ?EnterWrite@CLockMRSW@@UAEXXZ 00428c10 f   Lock.obj
 0001:00027c30       ?LeaveWrite@CLockMRSW@@UAEXXZ 00428c30 f   Lock.obj
 0001:00027c40       ??_EALock@@MAEPAXI@Z       00428c40 f i Lock.obj
 0001:00027c40       ??_GALock@@MAEPAXI@Z       00428c40 f i Lock.obj
 0001:00027c90       ??0CLogFile@@QAE@XZ        00428c90 f   LogFile.obj
 0001:00027cc0       ??_GCLogFile@@UAEPAXI@Z    00428cc0 f i LogFile.obj
 0001:00027cc0       ??_ECLogFile@@UAEPAXI@Z    00428cc0 f i LogFile.obj
 0001:00027ce0       ??1CLogFile@@UAE@XZ        00428ce0 f   LogFile.obj
 0001:00027d30       ?Initialize@CLogFile@@QAEHABV?$basic_string@DU?$char_traits@D@std@@V?$allocator@D@2@@std@@I@Z 00428d30 f   LogFile.obj
 0001:00027ef0       ?Uninitialize@CLogFile@@QAEHXZ 00428ef0 f   LogFile.obj
 0001:00027fc0       ?TraceLog@CLogFile@@QAEIPBXI@Z 00428fc0 f   LogFile.obj
 0001:00028020       ?PrepareFile@CLogFile@@AAEHXZ 00429020 f   LogFile.obj
 0001:000282d0       ?BeginBatch@CLogFile@@QAEKXZ 004292d0 f   LogFile.obj
 0001:00028300       ?EndBatch@CLogFile@@QAEKXZ 00429300 f   LogFile.obj
 0001:00028320       ?IsBatched@CLogFile@@QAEHXZ 00429320 f   LogFile.obj
 0001:00028330       ?OpenUniDirectory@CLogFile@@CAHABV?$basic_string@DU?$char_traits@D@std@@V?$allocator@D@2@@std@@PAV23@@Z 00429330 f   LogFile.obj
 0001:000285c0       ?CreateUniFile@CLogFile@@CAPAXABV?$basic_string@DU?$char_traits@D@std@@V?$allocator@D@2@@std@@PAV23@@Z 004295c0 f   LogFile.obj
 0001:00028850       ??0CMemory@@QAE@XZ         00429850 f   Memory.obj
 0001:00028860       ??_GCMemory@@UAEPAXI@Z     00429860 f i Memory.obj
 0001:00028860       ??_ECMemory@@UAEPAXI@Z     00429860 f i Memory.obj
 0001:00028880       ??1CMemory@@UAE@XZ         00429880 f   Memory.obj
 0001:00028890       ?Initialize@CMemory@@QAEHXZ 00429890 f   Memory.obj
 0001:000288a0       ?Uninitialize@CMemory@@QAEHXZ 004298a0 f   Memory.obj
 0001:000288b0       ?Alloc@CMemory@@QAEPAXI@Z  004298b0 f   Memory.obj
 0001:000288d0       ?Reuse@CMemory@@QAEXPAX@Z  004298d0 f   Memory.obj
 0001:000288e0       ?Free@CMemory@@QAEXPAX@Z   004298e0 f   Memory.obj
 0001:00028900       ?Size@CMemory@@QAEIPAX@Z   00429900 f   Memory.obj
 0001:00028950       ??0CNetCenter@@QAE@XZ      00429950 f   NetCenter.obj
 0001:00028a40       ??_GCNetCenter@@UAEPAXI@Z  00429a40 f i NetCenter.obj
 0001:00028a40       ??_ECNetCenter@@UAEPAXI@Z  00429a40 f i NetCenter.obj
 0001:00028a60       ??1?$set@PAVCNetClient@@U?$less@PAVCNetClient@@@std@@V?$allocator@PAVCNetClient@@@3@@std@@QAE@XZ 00429a60 f i NetCenter.obj
 0001:00028ad0       ??1CNetCenter@@UAE@XZ      00429ad0 f   NetCenter.obj
 0001:00028b90       ?Initialize@CNetCenter@@QAEHXZ 00429b90 f   NetCenter.obj
 0001:00028bf0       ?Uninitialize@CNetCenter@@QAEHXZ 00429bf0 f   NetCenter.obj
 0001:00028ca0       ?_NotifyServerEventCreate@CNetCenter@@QAEXPAVCNetClient@@@Z 00429ca0 f   NetCenter.obj
 0001:00028d20       ?_NotifyServerEventClose@CNetCenter@@QAEXPAVCNetClient@@@Z 00429d20 f   NetCenter.obj
 0001:00028de0       ?GetClientCount@CNetCenter@@QAEIXZ 00429de0 f   NetCenter.obj
 0001:00028e00       ?BroadPackage@CNetCenter@@QAEHPBXI@Z 00429e00 f   NetCenter.obj
 0001:00028ed0       ?Route@CNetCenter@@QAEHXZ  00429ed0 f   NetCenter.obj
 0001:00028f90       ?insert@?$_Tree@PAVCNetClient@@PAV1@U_Kfn@?$set@PAVCNetClient@@U?$less@PAVCNetClient@@@std@@V?$allocator@PAVCNetClient@@@3@@std@@U?$less@PAVCNetClient@@@4@V?$allocator@PAVCNetClient@@@4@@std@@QAE?AU?$pair@Viterator@?$_Tree@PAVCNetClient@@PAV1@U_Kfn@?$set@PAVCNetClient@@U?$less@PAVCNetClient@@@std@@V?$allocator@PAVCNetClient@@@3@@std@@U?$less@PAVCNetClient@@@4@V?$allocator@PAVCNetClient@@@4@@std@@_N@2@ABQAVCNetClient@@@Z 00429f90 f i NetCenter.obj
 0001:000290c0       ?erase@?$_Tree@PAVCNetClient@@PAV1@U_Kfn@?$set@PAVCNetClient@@U?$less@PAVCNetClient@@@std@@V?$allocator@PAVCNetClient@@@3@@std@@U?$less@PAVCNetClient@@@4@V?$allocator@PAVCNetClient@@@4@@std@@QAE?AViterator@12@V312@0@Z 0042a0c0 f i NetCenter.obj
 0001:000291f0       ?erase@?$_Tree@PAVCNetClient@@PAV1@U_Kfn@?$set@PAVCNetClient@@U?$less@PAVCNetClient@@@std@@V?$allocator@PAVCNetClient@@@3@@std@@U?$less@PAVCNetClient@@@4@V?$allocator@PAVCNetClient@@@4@@std@@QAE?AViterator@12@V312@@Z 0042a1f0 f i NetCenter.obj
 0001:00029710       ?_Erase@?$_Tree@PAVCNetClient@@PAV1@U_Kfn@?$set@PAVCNetClient@@U?$less@PAVCNetClient@@@std@@V?$allocator@PAVCNetClient@@@3@@std@@U?$less@PAVCNetClient@@@4@V?$allocator@PAVCNetClient@@@4@@std@@IAEXPAU_Node@12@@Z 0042a710 f i NetCenter.obj
 0001:000297a0       ?_Insert@?$_Tree@PAVCNetClient@@PAV1@U_Kfn@?$set@PAVCNetClient@@U?$less@PAVCNetClient@@@std@@V?$allocator@PAVCNetClient@@@3@@std@@U?$less@PAVCNetClient@@@4@V?$allocator@PAVCNetClient@@@4@@std@@IAE?AViterator@12@PAU_Node@12@0ABQAVCNetClient@@@Z 0042a7a0 f i NetCenter.obj
 0001:00029aa0       ?_Inc@const_iterator@?$_Tree@PAVCNetClient@@PAV1@U_Kfn@?$set@PAVCNetClient@@U?$less@PAVCNetClient@@@std@@V?$allocator@PAVCNetClient@@@3@@std@@U?$less@PAVCNetClient@@@4@V?$allocator@PAVCNetClient@@@4@@std@@QAEXXZ 0042aaa0 f i NetCenter.obj
 0001:00029b50       ?_Min@?$_Tree@PAVCNetClient@@PAV1@U_Kfn@?$set@PAVCNetClient@@U?$less@PAVCNetClient@@@std@@V?$allocator@PAVCNetClient@@@3@@std@@U?$less@PAVCNetClient@@@4@V?$allocator@PAVCNetClient@@@4@@std@@KAPAU_Node@12@PAU312@@Z 0042ab50 f i NetCenter.obj
 0001:00029b90       ?_Dec@const_iterator@?$_Tree@PAVCNetClient@@PAV1@U_Kfn@?$set@PAVCNetClient@@U?$less@PAVCNetClient@@@std@@V?$allocator@PAVCNetClient@@@3@@std@@U?$less@PAVCNetClient@@@4@V?$allocator@PAVCNetClient@@@4@@std@@QAEXXZ 0042ab90 f i NetCenter.obj
 0001:00029c50       ?_Lbound@?$_Tree@PAVCNetClient@@PAV1@U_Kfn@?$set@PAVCNetClient@@U?$less@PAVCNetClient@@@std@@V?$allocator@PAVCNetClient@@@3@@std@@U?$less@PAVCNetClient@@@4@V?$allocator@PAVCNetClient@@@4@@std@@IBEPAU_Node@12@ABQAVCNetClient@@@Z 0042ac50 f i NetCenter.obj
 0001:00029ca0       ?_Ubound@?$_Tree@PAVCNetClient@@PAV1@U_Kfn@?$set@PAVCNetClient@@U?$less@PAVCNetClient@@@std@@V?$allocator@PAVCNetClient@@@3@@std@@U?$less@PAVCNetClient@@@4@V?$allocator@PAVCNetClient@@@4@@std@@IBEPAU_Node@12@ABQAVCNetClient@@@Z 0042aca0 f i NetCenter.obj
 0001:00029cf0       ?_Construct@std@@YAXPAPAVCNetClient@@ABQAV2@@Z 0042acf0 f i NetCenter.obj
 0001:00029d40       ??0CNetClientDup@@QAE@ABVCNetClient@@@Z 0042ad40 f   NetClient.obj
 0001:00029d80       ?SendPackage@CNetClientDup@@QBEHPBXI@Z 0042ad80 f   NetClient.obj
 0001:00029dc0       ??4CNetClientDup@@QAEAAV0@ABVCNetClient@@@Z 0042adc0 f   NetClient.obj
 0001:00029e10       ??0CNetClient@@QAE@PAVCNetCenter@@H@Z 0042ae10 f   NetClient.obj
 0001:00029e60       ?RecvPackage@CNetClient@@MAEXPBXI@Z 0042ae60 f i NetClient.obj
 0001:00029e70       ?OnServerEventCreate@CNetClient@@MAEXXZ 0042ae70 f i NetClient.obj
 0001:00029e80       ?OnServerEventClose@CNetClient@@MAEXXZ 0042ae80 f i NetClient.obj
 0001:00029e90       ??_GCNetClient@@UAEPAXI@Z  0042ae90 f i NetClient.obj
 0001:00029e90       ??_ECNetClient@@UAEPAXI@Z  0042ae90 f i NetClient.obj
 0001:00029eb0       ??1CNetClient@@UAE@XZ      0042aeb0 f   NetClient.obj
 0001:00029f00       ?DirectClearup@CNetClient@@AAEXXZ 0042af00 f   NetClient.obj
 0001:0002a070       ?InterShutdown@CNetClient@@IAEXXZ 0042b070 f   NetClient.obj
 0001:0002a0a0       ?Main@CNetClient@@MAEKPAX@Z 0042b0a0 f   NetClient.obj
 0001:0002a140       ?ClientEventNotify@CNetClient@@CGXPAXABK@Z 0042b140 f   NetClient.obj
 0001:0002a170       ?Startup@CNetClient@@QAEHIIPBDGH@Z 0042b170 f   NetClient.obj
 0001:0002a350       ?Shutdown@CNetClient@@QAEHXZ 0042b350 f   NetClient.obj
 0001:0002a390       ?_NotifyServerEventCreate@CNetClient@@AAEXXZ 0042b390 f   NetClient.obj
 0001:0002a3c0       ?_NotifyServerEventClose@CNetClient@@AAEXXZ 0042b3c0 f   NetClient.obj
 0001:0002a430       ?SendPackage@CNetClient@@QAEHPBXI@Z 0042b430 f   NetClient.obj
 0001:0002a480       ?DoRoute@CNetClient@@AAEHXZ 0042b480 f   NetClient.obj
 0001:0002a510       ?Route@CNetClient@@QAEHXZ  0042b510 f   NetClient.obj
 0001:0002a550       ??0CNetConnectDup@@QAE@ABVCNetConnect@@@Z 0042b550 f   NetConnect.obj
 0001:0002a5a0       ?SendPackage@CNetConnectDup@@QBEHPBXI@Z 0042b5a0 f   NetConnect.obj
 0001:0002a5e0       ??4CNetConnectDup@@QAEAAV0@ABVCNetConnect@@@Z 0042b5e0 f   NetConnect.obj
 0001:0002a640       ??0CNetConnect@@QAE@PAVCNetServer@@K@Z 0042b640 f   NetConnect.obj
 0001:0002a700       ?RecvPackage@CNetConnect@@MAEXPBXI@Z 0042b700 f i NetConnect.obj
 0001:0002a710       ?OnClientConnectCreate@CNetConnect@@MAEXXZ 0042b710 f i NetConnect.obj
 0001:0002a720       ?OnClientConnectClose@CNetConnect@@MAEXXZ 0042b720 f i NetConnect.obj
 0001:0002a730       ??_GCNetConnect@@UAEPAXI@Z 0042b730 f i NetConnect.obj
 0001:0002a730       ??_ECNetConnect@@UAEPAXI@Z 0042b730 f i NetConnect.obj
 0001:0002a750       ??1CNetConnect@@UAE@XZ     0042b750 f   NetConnect.obj
 0001:0002a770       ?_NotifyClientConnectCreate@CNetConnect@@QAEXXZ 0042b770 f   NetConnect.obj
 0001:0002a780       ?_NotifyClientConnectClose@CNetConnect@@QAEXXZ 0042b780 f   NetConnect.obj
 0001:0002a7a0       ?OnMessage@CNetConnect@@UAEJPAXI@Z 0042b7a0 f   NetConnect.obj
 0001:0002a7d0       ?Main@CNetConnect@@MAEKPAX@Z 0042b7d0 f   NetConnect.obj
 0001:0002a810       ?SendPackage@CNetConnect@@QAEHPBXI@Z 0042b810 f   NetConnect.obj
 0001:0002a860       ?IsReady@CNetConnect@@QBEHXZ 0042b860 f   NetConnect.obj
 0001:0002a890       ?DoRoute@CNetConnect@@AAEHXZ 0042b890 f   NetConnect.obj
 0001:0002a920       ?Route@CNetConnect@@QAEHXZ 0042b920 f   NetConnect.obj
 0001:0002a960       ??0CNetServer@@QAE@XZ      0042b960 f   NetServer.obj
 0001:0002aa40       ?OnBuildup@CNetServer@@MAEXXZ 0042ba40 f i NetServer.obj
 0001:0002aa50       ?OnClearup@CNetServer@@MAEXXZ 0042ba50 f i NetServer.obj
 0001:0002aa60       ?OnClientConnectCreate@CNetServer@@MAEXPAVCNetConnect@@@Z 0042ba60 f i NetServer.obj
 0001:0002aa70       ?OnClientConnectClose@CNetServer@@MAEXPAVCNetConnect@@@Z 0042ba70 f i NetServer.obj
 0001:0002aa80       ??_GCNetServer@@UAEPAXI@Z  0042ba80 f i NetServer.obj
 0001:0002aa80       ??_ECNetServer@@UAEPAXI@Z  0042ba80 f i NetServer.obj
 0001:0002aaa0       ??1?$map@KPAVCNetConnect@@U?$less@K@std@@V?$allocator@PAVCNetConnect@@@3@@std@@QAE@XZ 0042baa0 f i NetServer.obj
 0001:0002ab10       ??1CNetServer@@UAE@XZ      0042bb10 f   NetServer.obj
 0001:0002abc0       ?ServerEventNotify@CNetServer@@CGXPAXABK1@Z 0042bbc0 f   NetServer.obj
 0001:0002ac00       ?Startup@CNetServer@@QAEHIIIIKG@Z 0042bc00 f   NetServer.obj
 0001:0002ad40       ?Shutdown@CNetServer@@QAEHXZ 0042bd40 f   NetServer.obj
 0001:0002ae10       ?Disconnect@CNetServer@@QAEHK@Z 0042be10 f   NetServer.obj
 0001:0002ae40       ?_NotifyClientConnectCreate@CNetServer@@AAEXK@Z 0042be40 f   NetServer.obj
 0001:0002af80       ?_NotifyClientConnectClose@CNetServer@@AAEXK@Z 0042bf80 f   NetServer.obj
 0001:0002b060       ?GetConnectCount@CNetServer@@QAEIXZ 0042c060 f   NetServer.obj
 0001:0002b080       ?IsConnectReady@CNetServer@@QAEHK@Z 0042c080 f   NetServer.obj
 0001:0002b120       ?FindNetConnect@CNetServer@@QAE?AVCNetConnectDup@@K@Z 0042c120 f   NetServer.obj
 0001:0002b200       ?BroadPackage@CNetServer@@QAEHPBXI@Z 0042c200 f   NetServer.obj
 0001:0002b300       ?Route@CNetServer@@QAEHXZ  0042c300 f   NetServer.obj
 0001:0002b3f0       ?insert@?$_Tree@KU?$pair@$$CBKPAVCNetConnect@@@std@@U_Kfn@?$map@KPAVCNetConnect@@U?$less@K@std@@V?$allocator@PAVCNetConnect@@@3@@2@U?$less@K@2@V?$allocator@PAVCNetConnect@@@2@@std@@QAE?AU?$pair@Viterator@?$_Tree@KU?$pair@$$CBKPAVCNetConnect@@@std@@U_Kfn@?$map@KPAVCNetConnect@@U?$less@K@std@@V?$allocator@PAVCNetConnect@@@3@@2@U?$less@K@2@V?$allocator@PAVCNetConnect@@@2@@std@@_N@2@ABU?$pair@$$CBKPAVCNetConnect@@@2@@Z 0042c3f0 f i NetServer.obj
 0001:0002b520       ?erase@?$_Tree@KU?$pair@$$CBKPAVCNetConnect@@@std@@U_Kfn@?$map@KPAVCNetConnect@@U?$less@K@std@@V?$allocator@PAVCNetConnect@@@3@@2@U?$less@K@2@V?$allocator@PAVCNetConnect@@@2@@std@@QAE?AViterator@12@V312@@Z 0042c520 f i NetServer.obj
 0001:0002ba40       ?erase@?$_Tree@KU?$pair@$$CBKPAVCNetConnect@@@std@@U_Kfn@?$map@KPAVCNetConnect@@U?$less@K@std@@V?$allocator@PAVCNetConnect@@@3@@2@U?$less@K@2@V?$allocator@PAVCNetConnect@@@2@@std@@QAE?AViterator@12@V312@0@Z 0042ca40 f i NetServer.obj
 0001:0002bb70       ?find@?$_Tree@KU?$pair@$$CBKPAVCNetConnect@@@std@@U_Kfn@?$map@KPAVCNetConnect@@U?$less@K@std@@V?$allocator@PAVCNetConnect@@@3@@2@U?$less@K@2@V?$allocator@PAVCNetConnect@@@2@@std@@QAE?AViterator@12@ABK@Z 0042cb70 f i NetServer.obj
 0001:0002bbc0       ?lower_bound@?$_Tree@KU?$pair@$$CBKPAVCNetConnect@@@std@@U_Kfn@?$map@KPAVCNetConnect@@U?$less@K@std@@V?$allocator@PAVCNetConnect@@@3@@2@U?$less@K@2@V?$allocator@PAVCNetConnect@@@2@@std@@QAE?AViterator@12@ABK@Z 0042cbc0 f i NetServer.obj
 0001:0002bbe0       ?_Erase@?$_Tree@KU?$pair@$$CBKPAVCNetConnect@@@std@@U_Kfn@?$map@KPAVCNetConnect@@U?$less@K@std@@V?$allocator@PAVCNetConnect@@@3@@2@U?$less@K@2@V?$allocator@PAVCNetConnect@@@2@@std@@IAEXPAU_Node@12@@Z 0042cbe0 f i NetServer.obj
 0001:0002bc70       ?_Insert@?$_Tree@KU?$pair@$$CBKPAVCNetConnect@@@std@@U_Kfn@?$map@KPAVCNetConnect@@U?$less@K@std@@V?$allocator@PAVCNetConnect@@@3@@2@U?$less@K@2@V?$allocator@PAVCNetConnect@@@2@@std@@IAE?AViterator@12@PAU_Node@12@0ABU?$pair@$$CBKPAVCNetConnect@@@2@@Z 0042cc70 f i NetServer.obj
 0001:0002bf70       ?_Min@?$_Tree@KU?$pair@$$CBKPAVCNetConnect@@@std@@U_Kfn@?$map@KPAVCNetConnect@@U?$less@K@std@@V?$allocator@PAVCNetConnect@@@3@@2@U?$less@K@2@V?$allocator@PAVCNetConnect@@@2@@std@@KAPAU_Node@12@PAU312@@Z 0042cf70 f i NetServer.obj
 0001:0002bfb0       ?_Inc@const_iterator@?$_Tree@KU?$pair@$$CBKPAVCNetConnect@@@std@@U_Kfn@?$map@KPAVCNetConnect@@U?$less@K@std@@V?$allocator@PAVCNetConnect@@@3@@2@U?$less@K@2@V?$allocator@PAVCNetConnect@@@2@@std@@QAEXXZ 0042cfb0 f i NetServer.obj
 0001:0002c060       ?_Lbound@?$_Tree@KU?$pair@$$CBKPAVCNetConnect@@@std@@U_Kfn@?$map@KPAVCNetConnect@@U?$less@K@std@@V?$allocator@PAVCNetConnect@@@3@@2@U?$less@K@2@V?$allocator@PAVCNetConnect@@@2@@std@@IBEPAU_Node@12@ABK@Z 0042d060 f i NetServer.obj
 0001:0002c0b0       ?_Dec@const_iterator@?$_Tree@KU?$pair@$$CBKPAVCNetConnect@@@std@@U_Kfn@?$map@KPAVCNetConnect@@U?$less@K@std@@V?$allocator@PAVCNetConnect@@@3@@2@U?$less@K@2@V?$allocator@PAVCNetConnect@@@2@@std@@QAEXXZ 0042d0b0 f i NetServer.obj
 0001:0002c170       ?_Construct@std@@YAXPAU?$pair@$$CBKPAVCNetConnect@@@1@ABU21@@Z 0042d170 f i NetServer.obj
 0001:0002c1c0       ??0CNetSockDupEx@@QAE@XZ   0042d1c0 f   NetSockDupEx.obj
 0001:0002c1f0       ??_GCNetSockDupEx@@UAEPAXI@Z 0042d1f0 f i NetSockDupEx.obj
 0001:0002c1f0       ??_ECNetSockDupEx@@UAEPAXI@Z 0042d1f0 f i NetSockDupEx.obj
 0001:0002c210       ??0CNetSockDupEx@@QAE@ABVCNetConnectDup@@@Z 0042d210 f   NetSockDupEx.obj
 0001:0002c260       ??0CNetSockDupEx@@QAE@ABVCNetClientDup@@@Z 0042d260 f   NetSockDupEx.obj
 0001:0002c2e0       ??0CNetSockDupEx@@QAE@ABV0@@Z 0042d2e0 f   NetSockDupEx.obj
 0001:0002c370       ??1CNetSockDupEx@@UAE@XZ   0042d370 f   NetSockDupEx.obj
 0001:0002c3f0       ?GetSockType@CNetSockDupEx@@QBE?AW4SOCKTYPE@1@XZ 0042d3f0 f   NetSockDupEx.obj
 0001:0002c410       ?SendPackage@CNetSockDupEx@@QBEHPBXI@Z 0042d410 f   NetSockDupEx.obj
 0001:0002c450       ?GetSockIP@CNetSockDupEx@@QBEKXZ 0042d450 f   NetSockDupEx.obj
 0001:0002c470       ?GetSockParam@CNetSockDupEx@@QBEKXZ 0042d470 f   NetSockDupEx.obj
 0001:0002c480       ??4CNetSockDupEx@@QAEAAV0@ABVCNetConnectDup@@@Z 0042d480 f   NetSockDupEx.obj
 0001:0002c4e0       ??4CNetSockDupEx@@QAEAAV0@ABVCNetClientDup@@@Z 0042d4e0 f   NetSockDupEx.obj
 0001:0002c550       ??4CNetSockDupEx@@QAEAAV0@ABV0@@Z 0042d550 f   NetSockDupEx.obj
 0001:0002c610       ??0CRainbowLib@@QAE@XZ     0042d610 f   RainbowLib.obj
 0001:0002c630       ??_ECRainbowLib@@UAEPAXI@Z 0042d630 f i RainbowLib.obj
 0001:0002c630       ??_GCRainbowLib@@UAEPAXI@Z 0042d630 f i RainbowLib.obj
 0001:0002c650       ??1CRainbowLib@@UAE@XZ     0042d650 f   RainbowLib.obj
 0001:0002c660       ?Initialize@CRainbowLib@@QAEHXZ 0042d660 f   RainbowLib.obj
 0001:0002c6a0       ?Uninitialize@CRainbowLib@@QAEHXZ 0042d6a0 f   RainbowLib.obj
 0001:0002c6d0       ?CreateInterface@CRainbowLib@@QAEJABU_GUID@@PAPAX@Z 0042d6d0 f   RainbowLib.obj
 0001:0002c720       ??0CRelayCenter@@QAE@XZ    0042d720 f   RelayCenter.obj
 0001:0002c820       ??_ECRelayCenter@@UAEPAXI@Z 0042d820 f i RelayCenter.obj
 0001:0002c820       ??_GCRelayCenter@@UAEPAXI@Z 0042d820 f i RelayCenter.obj
 0001:0002c840       ??1?$map@KPAVCRelayClient@@U?$less@K@std@@V?$allocator@PAVCRelayClient@@@3@@std@@QAE@XZ 0042d840 f i RelayCenter.obj
 0001:0002c8b0       ??1CRelayCenter@@UAE@XZ    0042d8b0 f   RelayCenter.obj
 0001:0002c980       ?OnBuildup@CRelayCenter@@MAEXXZ 0042d980 f   RelayCenter.obj
 0001:0002c9a0       ?OnClearup@CRelayCenter@@MAEXXZ 0042d9a0 f   RelayCenter.obj
 0001:0002ca20       ?OnServerEventCreate@CRelayCenter@@MAEXPAVCNetClient@@@Z 0042da20 f   RelayCenter.obj
 0001:0002cab0       ?OnServerEventClose@CRelayCenter@@MAEXPAVCNetClient@@@Z 0042dab0 f   RelayCenter.obj
 0001:0002cb70       ?FindRelayClientByIP@CRelayCenter@@QAEHKPAVCNetClientDup@@@Z 0042db70 f   RelayCenter.obj
 0001:0002cc80       ?TraceInfo@CRelayCenter@@QAEHXZ 0042dc80 f   RelayCenter.obj
 0001:0002cee0       ?erase@?$_Tree@KU?$pair@$$CBKPAVCRelayClient@@@std@@U_Kfn@?$map@KPAVCRelayClient@@U?$less@K@std@@V?$allocator@PAVCRelayClient@@@3@@2@U?$less@K@2@V?$allocator@PAVCRelayClient@@@2@@std@@QAE?AViterator@12@V312@0@Z 0042dee0 f i RelayCenter.obj
 0001:0002d010       ?insert@?$_Tree@KU?$pair@$$CBKPAVCRelayClient@@@std@@U_Kfn@?$map@KPAVCRelayClient@@U?$less@K@std@@V?$allocator@PAVCRelayClient@@@3@@2@U?$less@K@2@V?$allocator@PAVCRelayClient@@@2@@std@@QAE?AU?$pair@Viterator@?$_Tree@KU?$pair@$$CBKPAVCRelayClient@@@std@@U_Kfn@?$map@KPAVCRelayClient@@U?$less@K@std@@V?$allocator@PAVCRelayClient@@@3@@2@U?$less@K@2@V?$allocator@PAVCRelayClient@@@2@@std@@_N@2@ABU?$pair@$$CBKPAVCRelayClient@@@2@@Z 0042e010 f i RelayCenter.obj
 0001:0002d140       ?erase@?$_Tree@KU?$pair@$$CBKPAVCRelayClient@@@std@@U_Kfn@?$map@KPAVCRelayClient@@U?$less@K@std@@V?$allocator@PAVCRelayClient@@@3@@2@U?$less@K@2@V?$allocator@PAVCRelayClient@@@2@@std@@QAE?AViterator@12@V312@@Z 0042e140 f i RelayCenter.obj
 0001:0002d660       ?lower_bound@?$_Tree@KU?$pair@$$CBKPAVCRelayClient@@@std@@U_Kfn@?$map@KPAVCRelayClient@@U?$less@K@std@@V?$allocator@PAVCRelayClient@@@3@@2@U?$less@K@2@V?$allocator@PAVCRelayClient@@@2@@std@@QAE?AViterator@12@ABK@Z 0042e660 f i RelayCenter.obj
 0001:0002d680       ?_Erase@?$_Tree@KU?$pair@$$CBKPAVCRelayClient@@@std@@U_Kfn@?$map@KPAVCRelayClient@@U?$less@K@std@@V?$allocator@PAVCRelayClient@@@3@@2@U?$less@K@2@V?$allocator@PAVCRelayClient@@@2@@std@@IAEXPAU_Node@12@@Z 0042e680 f i RelayCenter.obj
 0001:0002d710       ?_Inc@const_iterator@?$_Tree@KU?$pair@$$CBKPAVCRelayClient@@@std@@U_Kfn@?$map@KPAVCRelayClient@@U?$less@K@std@@V?$allocator@PAVCRelayClient@@@3@@2@U?$less@K@2@V?$allocator@PAVCRelayClient@@@2@@std@@QAEXXZ 0042e710 f i RelayCenter.obj
 0001:0002d7c0       ?_Insert@?$_Tree@KU?$pair@$$CBKPAVCRelayClient@@@std@@U_Kfn@?$map@KPAVCRelayClient@@U?$less@K@std@@V?$allocator@PAVCRelayClient@@@3@@2@U?$less@K@2@V?$allocator@PAVCRelayClient@@@2@@std@@IAE?AViterator@12@PAU_Node@12@0ABU?$pair@$$CBKPAVCRelayClient@@@2@@Z 0042e7c0 f i RelayCenter.obj
 0001:0002dac0       ?_Lbound@?$_Tree@KU?$pair@$$CBKPAVCRelayClient@@@std@@U_Kfn@?$map@KPAVCRelayClient@@U?$less@K@std@@V?$allocator@PAVCRelayClient@@@3@@2@U?$less@K@2@V?$allocator@PAVCRelayClient@@@2@@std@@IBEPAU_Node@12@ABK@Z 0042eac0 f i RelayCenter.obj
 0001:0002db10       ?_Ubound@?$_Tree@KU?$pair@$$CBKPAVCRelayClient@@@std@@U_Kfn@?$map@KPAVCRelayClient@@U?$less@K@std@@V?$allocator@PAVCRelayClient@@@3@@2@U?$less@K@2@V?$allocator@PAVCRelayClient@@@2@@std@@IBEPAU_Node@12@ABK@Z 0042eb10 f i RelayCenter.obj
 0001:0002db60       ?_Dec@const_iterator@?$_Tree@KU?$pair@$$CBKPAVCRelayClient@@@std@@U_Kfn@?$map@KPAVCRelayClient@@U?$less@K@std@@V?$allocator@PAVCRelayClient@@@3@@2@U?$less@K@2@V?$allocator@PAVCRelayClient@@@2@@std@@QAEXXZ 0042eb60 f i RelayCenter.obj
 0001:0002dc20       ?_Construct@std@@YAXPAU?$pair@$$CBKPAVCRelayClient@@@1@ABU21@@Z 0042ec20 f i RelayCenter.obj
 0001:0002dc70       ??0CRelayClient@@QAE@PAVCRelayCenter@@H@Z 0042ec70 f   RelayClient.obj
 0001:0002dc90       ?DeleteThis@CRelayClient@@MAEXXZ 0042ec90 f i RelayClient.obj
 0001:0002dca0       ??_GCRelayClient@@UAEPAXI@Z 0042eca0 f i RelayClient.obj
 0001:0002dca0       ??_ECRelayClient@@UAEPAXI@Z 0042eca0 f i RelayClient.obj
 0001:0002dcc0       ??1CRelayClient@@UAE@XZ    0042ecc0 f   RelayClient.obj
 0001:0002dcd0       ?OnStartupFail@CRelayClient@@MAEXXZ 0042ecd0 f   RelayClient.obj
 0001:0002dcf0       ?OnShutdownFail@CRelayClient@@MAEXXZ 0042ecf0 f   RelayClient.obj
 0001:0002dd10       ?OnServerEventCreate@CRelayClient@@MAEXXZ 0042ed10 f   RelayClient.obj
 0001:0002dd30       ?OnServerEventClose@CRelayClient@@MAEXXZ 0042ed30 f   RelayClient.obj
 0001:0002dd50       ?RecvPackage@CRelayClient@@MAEXPBXI@Z 0042ed50 f   RelayClient.obj
 0001:0002dda0       ??0CRelayConnect@@QAE@PAVCRelayServer@@K@Z 0042eda0 f   RelayConnect.obj
 0001:0002ddd0       ??_ECRelayConnect@@UAEPAXI@Z 0042edd0 f i RelayConnect.obj
 0001:0002ddd0       ??_GCRelayConnect@@UAEPAXI@Z 0042edd0 f i RelayConnect.obj
 0001:0002ddf0       ??1CRelayConnect@@UAE@XZ   0042edf0 f   RelayConnect.obj
 0001:0002de10       ?OnClientConnectCreate@CRelayConnect@@MAEXXZ 0042ee10 f   RelayConnect.obj
 0001:0002de30       ?OnClientConnectClose@CRelayConnect@@MAEXXZ 0042ee30 f   RelayConnect.obj
 0001:0002de50       ?RecvPackage@CRelayConnect@@MAEXPBXI@Z 0042ee50 f   RelayConnect.obj
 0001:0002dea0       ??0CRelayServer@@QAE@XZ    0042eea0 f   RelayServer.obj
 0001:0002df80       ??_ECRelayServer@@UAEPAXI@Z 0042ef80 f i RelayServer.obj
 0001:0002df80       ??_GCRelayServer@@UAEPAXI@Z 0042ef80 f i RelayServer.obj
 0001:0002dfa0       ??1?$map@KPAVCRelayConnect@@U?$less@K@std@@V?$allocator@PAVCRelayConnect@@@3@@std@@QAE@XZ 0042efa0 f i RelayServer.obj
 0001:0002e010       ??1CRelayServer@@UAE@XZ    0042f010 f   RelayServer.obj
 0001:0002e0d0       ?CreateConnect@CRelayServer@@EAEPAVCNetConnect@@PAVCNetServer@@K@Z 0042f0d0 f   RelayServer.obj
 0001:0002e140       ?DestroyConnect@CRelayServer@@EAEXPAVCNetConnect@@@Z 0042f140 f   RelayServer.obj
 0001:0002e160       ?OnBuildup@CRelayServer@@EAEXXZ 0042f160 f   RelayServer.obj
 0001:0002e1c0       ?OnClearup@CRelayServer@@EAEXXZ 0042f1c0 f   RelayServer.obj
 0001:0002e240       ?OnClientConnectCreate@CRelayServer@@EAEXPAVCNetConnect@@@Z 0042f240 f   RelayServer.obj
 0001:0002e2d0       ?OnClientConnectClose@CRelayServer@@EAEXPAVCNetConnect@@@Z 0042f2d0 f   RelayServer.obj
 0001:0002e380       ?FindRelayConnectByIP@CRelayServer@@QAEHKPAVCNetConnectDup@@@Z 0042f380 f   RelayServer.obj
 0001:0002e480       ?TraceInfo@CRelayServer@@QAEHXZ 0042f480 f   RelayServer.obj
 0001:0002e6d0       ?erase@?$_Tree@KU?$pair@$$CBKPAVCRelayConnect@@@std@@U_Kfn@?$map@KPAVCRelayConnect@@U?$less@K@std@@V?$allocator@PAVCRelayConnect@@@3@@2@U?$less@K@2@V?$allocator@PAVCRelayConnect@@@2@@std@@QAE?AViterator@12@V312@0@Z 0042f6d0 f i RelayServer.obj
 0001:0002e800       ?insert@?$_Tree@KU?$pair@$$CBKPAVCRelayConnect@@@std@@U_Kfn@?$map@KPAVCRelayConnect@@U?$less@K@std@@V?$allocator@PAVCRelayConnect@@@3@@2@U?$less@K@2@V?$allocator@PAVCRelayConnect@@@2@@std@@QAE?AU?$pair@Viterator@?$_Tree@KU?$pair@$$CBKPAVCRelayConnect@@@std@@U_Kfn@?$map@KPAVCRelayConnect@@U?$less@K@std@@V?$allocator@PAVCRelayConnect@@@3@@2@U?$less@K@2@V?$allocator@PAVCRelayConnect@@@2@@std@@_N@2@ABU?$pair@$$CBKPAVCRelayConnect@@@2@@Z 0042f800 f i RelayServer.obj
 0001:0002e930       ?erase@?$_Tree@KU?$pair@$$CBKPAVCRelayConnect@@@std@@U_Kfn@?$map@KPAVCRelayConnect@@U?$less@K@std@@V?$allocator@PAVCRelayConnect@@@3@@2@U?$less@K@2@V?$allocator@PAVCRelayConnect@@@2@@std@@QAE?AViterator@12@V312@@Z 0042f930 f i RelayServer.obj
 0001:0002ee50       ?lower_bound@?$_Tree@KU?$pair@$$CBKPAVCRelayConnect@@@std@@U_Kfn@?$map@KPAVCRelayConnect@@U?$less@K@std@@V?$allocator@PAVCRelayConnect@@@3@@2@U?$less@K@2@V?$allocator@PAVCRelayConnect@@@2@@std@@QAE?AViterator@12@ABK@Z 0042fe50 f i RelayServer.obj
 0001:0002ee70       ?_Erase@?$_Tree@KU?$pair@$$CBKPAVCRelayConnect@@@std@@U_Kfn@?$map@KPAVCRelayConnect@@U?$less@K@std@@V?$allocator@PAVCRelayConnect@@@3@@2@U?$less@K@2@V?$allocator@PAVCRelayConnect@@@2@@std@@IAEXPAU_Node@12@@Z 0042fe70 f i RelayServer.obj
 0001:0002ef00       ?_Inc@const_iterator@?$_Tree@KU?$pair@$$CBKPAVCRelayConnect@@@std@@U_Kfn@?$map@KPAVCRelayConnect@@U?$less@K@std@@V?$allocator@PAVCRelayConnect@@@3@@2@U?$less@K@2@V?$allocator@PAVCRelayConnect@@@2@@std@@QAEXXZ 0042ff00 f i RelayServer.obj
 0001:0002efb0       ?_Insert@?$_Tree@KU?$pair@$$CBKPAVCRelayConnect@@@std@@U_Kfn@?$map@KPAVCRelayConnect@@U?$less@K@std@@V?$allocator@PAVCRelayConnect@@@3@@2@U?$less@K@2@V?$allocator@PAVCRelayConnect@@@2@@std@@IAE?AViterator@12@PAU_Node@12@0ABU?$pair@$$CBKPAVCRelayConnect@@@2@@Z 0042ffb0 f i RelayServer.obj
 0001:0002f2b0       ?_Lbound@?$_Tree@KU?$pair@$$CBKPAVCRelayConnect@@@std@@U_Kfn@?$map@KPAVCRelayConnect@@U?$less@K@std@@V?$allocator@PAVCRelayConnect@@@3@@2@U?$less@K@2@V?$allocator@PAVCRelayConnect@@@2@@std@@IBEPAU_Node@12@ABK@Z 004302b0 f i RelayServer.obj
 0001:0002f300       ?_Ubound@?$_Tree@KU?$pair@$$CBKPAVCRelayConnect@@@std@@U_Kfn@?$map@KPAVCRelayConnect@@U?$less@K@std@@V?$allocator@PAVCRelayConnect@@@3@@2@U?$less@K@2@V?$allocator@PAVCRelayConnect@@@2@@std@@IBEPAU_Node@12@ABK@Z 00430300 f i RelayServer.obj
 0001:0002f350       ?_Dec@const_iterator@?$_Tree@KU?$pair@$$CBKPAVCRelayConnect@@@std@@U_Kfn@?$map@KPAVCRelayConnect@@U?$less@K@std@@V?$allocator@PAVCRelayConnect@@@3@@2@U?$less@K@2@V?$allocator@PAVCRelayConnect@@@2@@std@@QAEXXZ 00430350 f i RelayServer.obj
 0001:0002f410       ?_Construct@std@@YAXPAU?$pair@$$CBKPAVCRelayConnect@@@1@ABU21@@Z 00430410 f i RelayServer.obj
 0001:0002f460       ??0CRootCenter@@QAE@XZ     00430460 f   RootCenter.obj
 0001:0002f480       ??_ECRootCenter@@UAEPAXI@Z 00430480 f i RootCenter.obj
 0001:0002f480       ??_GCRootCenter@@UAEPAXI@Z 00430480 f i RootCenter.obj
 0001:0002f4a0       ??1CRootCenter@@UAE@XZ     004304a0 f   RootCenter.obj
 0001:0002f4b0       ?TraceInfo@CRootCenter@@QAEHXZ 004304b0 f   RootCenter.obj
 0001:0002f6e0       ??0CRootClient@@QAE@PAVCRootCenter@@H@Z 004306e0 f   RootClient.obj
 0001:0002f710       ??_ECRootClient@@UAEPAXI@Z 00430710 f i RootClient.obj
 0001:0002f710       ??_GCRootClient@@UAEPAXI@Z 00430710 f i RootClient.obj
 0001:0002f730       ??1CRootClient@@UAE@XZ     00430730 f   RootClient.obj
 0001:0002f740       ?OnServerEventCreate@CRootClient@@MAEXXZ 00430740 f   RootClient.obj
 0001:0002f820       ?OnServerEventClose@CRootClient@@MAEXXZ 00430820 f   RootClient.obj
 0001:0002f850       ?StartAutoTime@CRootClient@@IAEHXZ 00430850 f   RootClient.obj
 0001:0002f890       ?StopAutoTime@CRootClient@@IAEHXZ 00430890 f   RootClient.obj
 0001:0002f8c0       ?IsStartAutoTime@CRootClient@@IAEHXZ 004308c0 f   RootClient.obj
 0001:0002f8d0       ?AutoTime@CRootClient@@IAEXXZ 004308d0 f   RootClient.obj
 0001:0002f970       ?BeginRoute@CRootClient@@MAEXXZ 00430970 f   RootClient.obj
 0001:0002f980       ?EndRoute@CRootClient@@MAEXXZ 00430980 f   RootClient.obj
 0001:0002f990       ?RecvPackage@CRootClient@@MAEXPBXI@Z 00430990 f   RootClient.obj
 0001:0002f9d0       ?Proc0_Normal@CRootClient@@AAEXPBXI@Z 004309d0 f   RootClient.obj
 0001:0002fbe0       ?Proc0_Relay@CRootClient@@AAEXPBXI@Z 00430be0 f   RootClient.obj
 0001:0002fc20       ?Proc2_Relay_Data_Here@CRootClient@@AAEXPBXI@Z 00430c20 f   RootClient.obj
 0001:0002fe10       ?Proc1_Relay_Data@CRootClient@@AAEXPBXI@Z 00430e10 f   RootClient.obj
 0001:0002ff30       ?Proc1_Relay_AskWay@CRootClient@@AAEXPBXI@Z 00430f30 f   RootClient.obj
 0001:0002ff70       ?Proc1_Relay_LoseWay@CRootClient@@AAEXPBXI@Z 00430f70 f   RootClient.obj
 0001:00030040       ?Proc2_Relay_AskWay_AccountRoleID@CRootClient@@AAEXPBXIH@Z 00431040 f   RootClient.obj
 0001:00030200       ?Proc0_PlayerCommunity@CRootClient@@AAEXPBXI@Z 00431200 f   RootClient.obj
 0001:00030390       ?num_rows@S3P_MSSQLServer_Result@@UBEHXZ 00431390 f   S3P_MSSQLServer_Result.obj
 0001:00030440       ?num_fields@S3P_MSSQLServer_Result@@UBEHXZ 00431440 f   S3P_MSSQLServer_Result.obj
 0001:00030510       ?GetFields@Recordset15@@QAE?AV?$_com_ptr_t@V?$_com_IIID@UFields@@$1?_GUID_00000564_0000_0010_8000_00aa006d2ea4@@3U__s_GUID@@A@@@@XZ 00431510 f i S3P_MSSQLServer_Result.obj
 0001:00030560       ?data_seek@S3P_MSSQLServer_Result@@UBEXIH@Z 00431560 f   S3P_MSSQLServer_Result.obj
 0001:00030720       ?get_field_data@S3P_MSSQLServer_Result@@UAE_NIPAXK@Z 00431720 f   S3P_MSSQLServer_Result.obj
 0001:000308b0       ??1_variant_t@@QAE@XZ      004318b0 f i S3P_MSSQLServer_Result.obj
 0001:000308d0       ?GetItem@Fields15@@QAE?AV?$_com_ptr_t@V?$_com_IIID@UField@@$1?_GUID_00000569_0000_0010_8000_00aa006d2ea4@@3U__s_GUID@@A@@@@ABV_variant_t@@@Z 004318d0 f i S3P_MSSQLServer_Result.obj
 0001:00030940       ?unuse@S3P_MSSQLServer_Result@@UAEHXZ 00431940 f   S3P_MSSQLServer_Result.obj
 0001:00030a40       ??1?$_com_ptr_t@V?$_com_IIID@UFields@@$1?_GUID_00000564_0000_0010_8000_00aa006d2ea4@@3U__s_GUID@@A@@@@QAE@XZ 00431a40 f i S3P_MSSQLServer_Result.obj
 0001:00030a50       ??1?$_com_ptr_t@V?$_com_IIID@UField@@$1?_GUID_00000569_0000_0010_8000_00aa006d2ea4@@3U__s_GUID@@A@@@@QAE@XZ 00431a50 f i S3P_MSSQLServer_Result.obj
 0001:00030a90       ??0S3PDB_MSSQLServer_Connection@@QAE@XZ 00431a90 f   S3PDB_MSSQLServer_Connection.obj
 0001:00030b60       ??1S3P_MSSQLServer_Result@@UAE@XZ 00431b60 f i S3PDB_MSSQLServer_Connection.obj
 0001:00030bd0       ??_GS3P_MSSQLServer_Result@@UAEPAXI@Z 00431bd0 f i S3PDB_MSSQLServer_Connection.obj
 0001:00030bd0       ??_ES3P_MSSQLServer_Result@@UAEPAXI@Z 00431bd0 f i S3PDB_MSSQLServer_Connection.obj
 0001:00030bf0       ??1S3PDB_MSSQLServer_Connection@@QAE@XZ 00431bf0 f   S3PDB_MSSQLServer_Connection.obj
 0001:00030d20       ?CloseConnect@S3PDB_MSSQLServer_Connection@@UAEXXZ 00431d20 f   S3PDB_MSSQLServer_Connection.obj
 0001:00030d80       ?OpenConnect@S3PDB_MSSQLServer_Connection@@UAE_NPAUtag_DATABASEINFO@@@Z 00431d80 f   S3PDB_MSSQLServer_Connection.obj
 0001:000311b0       ??0_bstr_t@@QAE@PBD@Z      004321b0 f i S3PDB_MSSQLServer_Connection.obj
 0001:00031250       ??1_bstr_t@@QAE@XZ         00432250 f i S3PDB_MSSQLServer_Connection.obj
 0001:000312a0       ?Open@Connection15@@QAEJV_bstr_t@@00J@Z 004322a0 f i S3PDB_MSSQLServer_Connection.obj
 0001:000313d0       ?Do@S3PDB_MSSQLServer_Connection@@UAE_NPBD@Z 004323d0 f   S3PDB_MSSQLServer_Connection.obj
 0001:00031400       ?DoCmd@S3PDB_MSSQLServer_Connection@@IAE_NPBD@Z 00432400 f   S3PDB_MSSQLServer_Connection.obj
 0001:00031600       ?PutCommandText@Command15@@QAEXV_bstr_t@@@Z 00432600 f i S3PDB_MSSQLServer_Connection.obj
 0001:000316a0       ?Execute@Command15@@QAE?AV?$_com_ptr_t@V?$_com_IIID@U_Recordset@@$1?_GUID_00000556_0000_0010_8000_00aa006d2ea4@@3U__s_GUID@@A@@@@PAUtagVARIANT@@0J@Z 004326a0 f i S3PDB_MSSQLServer_Connection.obj
 0001:00031700       ?DoResult@S3PDB_MSSQLServer_Connection@@IAE_NPBD@Z 00432700 f   S3PDB_MSSQLServer_Connection.obj
 0001:00031980       ?QuerySql@S3PDB_MSSQLServer_Connection@@UAE_NPBDPAPAVS3PResultVBC@@@Z 00432980 f   S3PDB_MSSQLServer_Connection.obj
 0001:00031a00       ?QueryResult@S3PDB_MSSQLServer_Connection@@IAE_NPBDPAVS3P_MSSQLServer_Result@@@Z 00432a00 f   S3PDB_MSSQLServer_Connection.obj
 0001:00031cb0       ?QueryCmd@S3PDB_MSSQLServer_Connection@@IAE_NPBDPAVS3P_MSSQLServer_Result@@@Z 00432cb0 f   S3PDB_MSSQLServer_Connection.obj
 0001:00031ed0       ?GetFreeResult@S3PDB_MSSQLServer_Connection@@IAE_NPAPAVS3P_MSSQLServer_Result@@@Z 00432ed0 f   S3PDB_MSSQLServer_Connection.obj
 0001:00031f00       ?c_str@?$basic_string@DU?$char_traits@D@std@@V?$allocator@D@2@@std@@QBEPBDXZ 00432f00 f i S3PDB_MSSQLServer_Connection.obj
 0001:00031f10       ??1?$_com_ptr_t@V?$_com_IIID@U_Connection@@$1?_GUID_00000550_0000_0010_8000_00aa006d2ea4@@3U__s_GUID@@A@@@@QAE@XZ 00432f10 f i S3PDB_MSSQLServer_Connection.obj
 0001:00031f20       ??C?$_com_ptr_t@V?$_com_IIID@U_Connection@@$1?_GUID_00000550_0000_0010_8000_00aa006d2ea4@@3U__s_GUID@@A@@@@QBEPAU_Connection@@XZ 00432f20 f i S3PDB_MSSQLServer_Connection.obj
 0001:00031f40       ??8?$_com_ptr_t@V?$_com_IIID@U_Connection@@$1?_GUID_00000550_0000_0010_8000_00aa006d2ea4@@3U__s_GUID@@A@@@@QAE_NH@Z 00432f40 f i S3PDB_MSSQLServer_Connection.obj
 0001:00031f70       ??1?$_com_ptr_t@V?$_com_IIID@U_Recordset@@$1?_GUID_00000556_0000_0010_8000_00aa006d2ea4@@3U__s_GUID@@A@@@@QAE@XZ 00432f70 f i S3PDB_MSSQLServer_Connection.obj
 0001:00031f80       ??1?$_com_ptr_t@V?$_com_IIID@U_Command@@$1?_GUID_b08400bd_f9d1_4d02_b856_71d5dba123e9@@3U__s_GUID@@A@@@@QAE@XZ 00432f80 f i S3PDB_MSSQLServer_Connection.obj
 0001:00031f90       ??C?$_com_ptr_t@V?$_com_IIID@U_Command@@$1?_GUID_b08400bd_f9d1_4d02_b856_71d5dba123e9@@3U__s_GUID@@A@@@@QBEPAU_Command@@XZ 00432f90 f i S3PDB_MSSQLServer_Connection.obj
 0001:00031fb0       ??4?$_com_ptr_t@V?$_com_IIID@U_Connection@@$1?_GUID_00000550_0000_0010_8000_00aa006d2ea4@@3U__s_GUID@@A@@@@QAEAAV0@PAU_Connection@@@Z 00432fb0 f i S3PDB_MSSQLServer_Connection.obj
 0001:00031fe0       ?CreateInstance@?$_com_ptr_t@V?$_com_IIID@U_Connection@@$1?_GUID_00000550_0000_0010_8000_00aa006d2ea4@@3U__s_GUID@@A@@@@QAEJPAGPAUIUnknown@@K@Z 00432fe0 f i S3PDB_MSSQLServer_Connection.obj
 0001:000320c0       ?CreateInstance@?$_com_ptr_t@V?$_com_IIID@U_Recordset@@$1?_GUID_00000556_0000_0010_8000_00aa006d2ea4@@3U__s_GUID@@A@@@@QAEJPAGPAUIUnknown@@K@Z 004330c0 f i S3PDB_MSSQLServer_Connection.obj
 0001:000321a0       ?_AddRef@?$_com_ptr_t@V?$_com_IIID@U_Recordset@@$1?_GUID_00000556_0000_0010_8000_00aa006d2ea4@@3U__s_GUID@@A@@@@AAEXXZ 004331a0 f i S3PDB_MSSQLServer_Connection.obj
 0001:000321b0       ?CreateInstance@?$_com_ptr_t@V?$_com_IIID@U_Command@@$1?_GUID_b08400bd_f9d1_4d02_b856_71d5dba123e9@@3U__s_GUID@@A@@@@QAEJPAGPAUIUnknown@@K@Z 004331b0 f i S3PDB_MSSQLServer_Connection.obj
 0001:00032290       ?append@?$basic_string@DU?$char_traits@D@std@@V?$allocator@D@2@@std@@QAEAAV12@ABV12@II@Z 00433290 f i S3PDB_MSSQLServer_Connection.obj
 0001:000323a0       ??0S3PDBConVBC@@IAE@XZ     004333a0 f   S3PDBConVBC.obj
 0001:000323b0       ??1S3PDBConVBC@@QAE@XZ     004333b0 f   S3PDBConVBC.obj
 0001:000323f0       ??0S3PResultVBC@@IAE@XZ    004333f0 f   S3PResultVBC.obj
 0001:00032400       ??_GS3PResultVBC@@MAEPAXI@Z 00433400 f i S3PResultVBC.obj
 0001:00032400       ??_ES3PResultVBC@@MAEPAXI@Z 00433400 f i S3PResultVBC.obj
 0001:00032420       ??1S3PResultVBC@@MAE@XZ    00433420 f   S3PResultVBC.obj
 0001:00032520       ?gTrackRecvData@@YAXPBXI@Z 00433520 f   S3Relay.obj
 0001:00032550       ?gTrackSendData@@YAXPBXI@Z 00433550 f   S3Relay.obj
 0001:00032580       ?gGetRecvDataSize@@YAIXZ   00433580 f   S3Relay.obj
 0001:000325b0       ?gGetSendDataSize@@YAIXZ   004335b0 f   S3Relay.obj
 0001:00032700       _WinMain@16                00433700 f   S3Relay.obj
 0001:00032a80       ?gTrace@@YAHPBDZZ          00433a80 f   S3Relay.obj
 0001:00032bc0       ?MyRegisterClass@@YAGPAUHINSTANCE__@@@Z 00433bc0 f   S3Relay.obj
 0001:00032c50       ?gTimeStamp@@YAHPAD0@Z     00433c50 f   S3Relay.obj
 0001:00032ca0       ?gTraceLogFile@@YAXPBDJ@Z  00433ca0 f   S3Relay.obj
 0001:00032d20       ?gClearTrace@@YAXXZ        00433d20 f   S3Relay.obj
 0001:00032d40       ?gShowTrace@@YAXXZ         00433d40 f   S3Relay.obj
 0001:00032ef0       ?InitInstance@@YAHPAUHINSTANCE__@@H@Z 00433ef0 f   S3Relay.obj
 0001:00033010       ?WndProc@@YGJPAUHWND__@@IIJ@Z 00434010 f   S3Relay.obj
 0001:00033a10       ?About@@YGJPAUHWND__@@IIJ@Z 00434a10 f   S3Relay.obj
 0001:00033a50       ?Login@@YGJPAUHWND__@@IIJ@Z 00434a50 f   S3Relay.obj
 0001:00033c50       ?gGetMainWnd@@YAPAUHWND__@@XZ 00434c50 f   S3Relay.obj
 0001:00033c60       ?gGetListBox@@YAPAUHWND__@@XZ 00434c60 f   S3Relay.obj
 0001:00033ca0       ??0CSockThread@@QAE@XZ     00434ca0 f   SockThread.obj
 0001:00033cc0       ?EnterLoop@CSockThread@@MAEXXZ 00434cc0 f i SockThread.obj
 0001:00033cd0       ?LeaveLoop@CSockThread@@MAEXXZ 00434cd0 f i SockThread.obj
 0001:00033ce0       ?PrepareSock@CSockThread@@MAEXXZ 00434ce0 f i SockThread.obj
 0001:00033cf0       ?UnprepareSock@CSockThread@@MAEXXZ 00434cf0 f i SockThread.obj
 0001:00033d00       ??_GCSockThread@@UAEPAXI@Z 00434d00 f i SockThread.obj
 0001:00033d00       ??_ECSockThread@@UAEPAXI@Z 00434d00 f i SockThread.obj
 0001:00033d20       ??1CSockThread@@UAE@XZ     00434d20 f   SockThread.obj
 0001:00033d30       ?Main@CSockThread@@MAEKPAX@Z 00434d30 f   SockThread.obj
 0001:00033e70       ?Start@CSockThread@@UAEPAXXZ 00434e70 f   SockThread.obj
 0001:00033eb0       ?Stop@CSockThread@@UAEHXZ  00434eb0 f   SockThread.obj
 0001:00033f00       ?TraceInfo@CSockThread@@QAEHXZ 00434f00 f   SockThread.obj
 0001:00033f90       ??0CTongConnect@@QAE@PAVCTongServer@@K@Z 00434f90 f   TongConnect.obj
 0001:00033fc0       ??_GCTongConnect@@UAEPAXI@Z 00434fc0 f i TongConnect.obj
 0001:00033fc0       ??_ECTongConnect@@UAEPAXI@Z 00434fc0 f i TongConnect.obj
 0001:00033fe0       ??1CTongConnect@@UAE@XZ    00434fe0 f   TongConnect.obj
 0001:00034000       ?OnClientConnectCreate@CTongConnect@@MAEXXZ 00435000 f   TongConnect.obj
 0001:00034020       ?OnClientConnectClose@CTongConnect@@MAEXXZ 00435020 f   TongConnect.obj
 0001:00034040       ?RecvPackage@CTongConnect@@MAEXPBXI@Z 00435040 f   TongConnect.obj
 0001:00034070       ?PassToSomeone@CTongConnect@@AAEHKKKPBXI@Z 00435070 f   TongConnect.obj
 0001:000341c0       ?Proc0_Tong@CTongConnect@@AAEXPBXI@Z 004351c0 f   TongConnect.obj
 0001:00035070       ?Proc0_Friend@CTongConnect@@AAEXPBXI@Z 00436070 f   TongConnect.obj
 0001:00035100       ?Proc1_Friend_AskAddFriend@CTongConnect@@AAEXPBXI@Z 00436100 f   TongConnect.obj
 0001:00035480       ?Proc1_Friend_RepAddFriend@CTongConnect@@AAEXPBXI@Z 00436480 f   TongConnect.obj
 0001:00035760       ?Proc1_Friend_GroupFriend@CTongConnect@@AAEXPBXI@Z 00436760 f   TongConnect.obj
 0001:000359b0       ?Proc1_Friend_EraseFriend@CTongConnect@@AAEXPBXI@Z 004369b0 f   TongConnect.obj
 0001:00035d20       ?Proc1_Friend_AskSyncFriendList@CTongConnect@@AAEXPBXI@Z 00436d20 f   TongConnect.obj
 0001:00035e30       ?Proc1_Friend_Associate@CTongConnect@@AAEXPBXI@Z 00436e30 f   TongConnect.obj
 0001:00036230       ?Proc1_Friend_AssociateBevy@CTongConnect@@AAEXPBXI@Z 00437230 f   TongConnect.obj
 0001:00036690       ??1?$vector@V?$basic_string@DU?$char_traits@D@std@@V?$allocator@D@2@@std@@V?$allocator@V?$basic_string@DU?$char_traits@D@std@@V?$allocator@D@2@@std@@@2@@std@@QAE@XZ 00437690 f i TongConnect.obj
 0001:000366f0       ?insert@?$vector@V?$basic_string@DU?$char_traits@D@std@@V?$allocator@D@2@@std@@V?$allocator@V?$basic_string@DU?$char_traits@D@std@@V?$allocator@D@2@@std@@@2@@std@@QAEPAV?$basic_string@DU?$char_traits@D@std@@V?$allocator@D@2@@2@PAV32@ABV32@@Z 004376f0 f i TongConnect.obj
 0001:00036880       ?size@?$vector@V?$basic_string@DU?$char_traits@D@std@@V?$allocator@D@2@@std@@V?$allocator@V?$basic_string@DU?$char_traits@D@std@@V?$allocator@D@2@@std@@@2@@std@@QBEIXZ 00437880 f i TongConnect.obj
 0001:000368a0       ?_Ucopy@?$vector@V?$basic_string@DU?$char_traits@D@std@@V?$allocator@D@2@@std@@V?$allocator@V?$basic_string@DU?$char_traits@D@std@@V?$allocator@D@2@@std@@@2@@std@@IAEPAV?$basic_string@DU?$char_traits@D@std@@V?$allocator@D@2@@2@PBV32@0PAV32@@Z 004378a0 f i TongConnect.obj
 0001:000368e0       ?_Ufill@?$vector@V?$basic_string@DU?$char_traits@D@std@@V?$allocator@D@2@@std@@V?$allocator@V?$basic_string@DU?$char_traits@D@std@@V?$allocator@D@2@@std@@@2@@std@@IAEXPAV?$basic_string@DU?$char_traits@D@std@@V?$allocator@D@2@@2@IABV32@@Z 004378e0 f i TongConnect.obj
 0001:00036910       ?fill@std@@YAXPAV?$basic_string@DU?$char_traits@D@std@@V?$allocator@D@2@@1@0ABV21@@Z 00437910 f i TongConnect.obj
 0001:00036a60       ?copy_backward@std@@YAPAV?$basic_string@DU?$char_traits@D@std@@V?$allocator@D@2@@1@PAV21@00@Z 00437a60 f i TongConnect.obj
 0001:00036bf0       ??0CTongServer@@QAE@XZ     00437bf0 f   TongServer.obj
 0001:00036cd0       ??_GCTongServer@@UAEPAXI@Z 00437cd0 f i TongServer.obj
 0001:00036cd0       ??_ECTongServer@@UAEPAXI@Z 00437cd0 f i TongServer.obj
 0001:00036cf0       ??1?$map@KPAVCTongConnect@@U?$less@K@std@@V?$allocator@PAVCTongConnect@@@3@@std@@QAE@XZ 00437cf0 f i TongServer.obj
 0001:00036d60       ??1CTongServer@@UAE@XZ     00437d60 f   TongServer.obj
 0001:00036e20       ?CreateConnect@CTongServer@@MAEPAVCNetConnect@@PAVCNetServer@@K@Z 00437e20 f   TongServer.obj
 0001:00036e90       ?DestroyConnect@CTongServer@@MAEXPAVCNetConnect@@@Z 00437e90 f   TongServer.obj
 0001:00036eb0       ?OnBuildup@CTongServer@@MAEXXZ 00437eb0 f   TongServer.obj
 0001:00036f10       ?OnClearup@CTongServer@@MAEXXZ 00437f10 f   TongServer.obj
 0001:00036f90       ?OnClientConnectCreate@CTongServer@@MAEXPAVCNetConnect@@@Z 00437f90 f   TongServer.obj
 0001:00037020       ?OnClientConnectClose@CTongServer@@MAEXPAVCNetConnect@@@Z 00438020 f   TongServer.obj
 0001:000370d0       ?FindTongConnectByIP@CTongServer@@QAE?AVCNetConnectDup@@K@Z 004380d0 f   TongServer.obj
 0001:000371b0       ?TraceInfo@CTongServer@@QAEHXZ 004381b0 f   TongServer.obj
 0001:00037400       ?erase@?$_Tree@KU?$pair@$$CBKPAVCTongConnect@@@std@@U_Kfn@?$map@KPAVCTongConnect@@U?$less@K@std@@V?$allocator@PAVCTongConnect@@@3@@2@U?$less@K@2@V?$allocator@PAVCTongConnect@@@2@@std@@QAE?AViterator@12@V312@0@Z 00438400 f i TongServer.obj
 0001:00037530       ?find@?$_Tree@KU?$pair@$$CBKPAVCTongConnect@@@std@@U_Kfn@?$map@KPAVCTongConnect@@U?$less@K@std@@V?$allocator@PAVCTongConnect@@@3@@2@U?$less@K@2@V?$allocator@PAVCTongConnect@@@2@@std@@QAE?AViterator@12@ABK@Z 00438530 f i TongServer.obj
 0001:00037580       ?insert@?$_Tree@KU?$pair@$$CBKPAVCTongConnect@@@std@@U_Kfn@?$map@KPAVCTongConnect@@U?$less@K@std@@V?$allocator@PAVCTongConnect@@@3@@2@U?$less@K@2@V?$allocator@PAVCTongConnect@@@2@@std@@QAE?AU?$pair@Viterator@?$_Tree@KU?$pair@$$CBKPAVCTongConnect@@@std@@U_Kfn@?$map@KPAVCTongConnect@@U?$less@K@std@@V?$allocator@PAVCTongConnect@@@3@@2@U?$less@K@2@V?$allocator@PAVCTongConnect@@@2@@std@@_N@2@ABU?$pair@$$CBKPAVCTongConnect@@@2@@Z 00438580 f i TongServer.obj
 0001:000376b0       ?erase@?$_Tree@KU?$pair@$$CBKPAVCTongConnect@@@std@@U_Kfn@?$map@KPAVCTongConnect@@U?$less@K@std@@V?$allocator@PAVCTongConnect@@@3@@2@U?$less@K@2@V?$allocator@PAVCTongConnect@@@2@@std@@QAE?AViterator@12@V312@@Z 004386b0 f i TongServer.obj
 0001:00037bd0       ?_Erase@?$_Tree@KU?$pair@$$CBKPAVCTongConnect@@@std@@U_Kfn@?$map@KPAVCTongConnect@@U?$less@K@std@@V?$allocator@PAVCTongConnect@@@3@@2@U?$less@K@2@V?$allocator@PAVCTongConnect@@@2@@std@@IAEXPAU_Node@12@@Z 00438bd0 f i TongServer.obj
 0001:00037c60       ?_Inc@const_iterator@?$_Tree@KU?$pair@$$CBKPAVCTongConnect@@@std@@U_Kfn@?$map@KPAVCTongConnect@@U?$less@K@std@@V?$allocator@PAVCTongConnect@@@3@@2@U?$less@K@2@V?$allocator@PAVCTongConnect@@@2@@std@@QAEXXZ 00438c60 f i TongServer.obj
 0001:00037d10       ?_Insert@?$_Tree@KU?$pair@$$CBKPAVCTongConnect@@@std@@U_Kfn@?$map@KPAVCTongConnect@@U?$less@K@std@@V?$allocator@PAVCTongConnect@@@3@@2@U?$less@K@2@V?$allocator@PAVCTongConnect@@@2@@std@@IAE?AViterator@12@PAU_Node@12@0ABU?$pair@$$CBKPAVCTongConnect@@@2@@Z 00438d10 f i TongServer.obj
 0001:00038010       ?_Lbound@?$_Tree@KU?$pair@$$CBKPAVCTongConnect@@@std@@U_Kfn@?$map@KPAVCTongConnect@@U?$less@K@std@@V?$allocator@PAVCTongConnect@@@3@@2@U?$less@K@2@V?$allocator@PAVCTongConnect@@@2@@std@@IBEPAU_Node@12@ABK@Z 00439010 f i TongServer.obj
 0001:00038060       ?_Ubound@?$_Tree@KU?$pair@$$CBKPAVCTongConnect@@@std@@U_Kfn@?$map@KPAVCTongConnect@@U?$less@K@std@@V?$allocator@PAVCTongConnect@@@3@@2@U?$less@K@2@V?$allocator@PAVCTongConnect@@@2@@std@@IBEPAU_Node@12@ABK@Z 00439060 f i TongServer.obj
 0001:000380b0       ?_Dec@const_iterator@?$_Tree@KU?$pair@$$CBKPAVCTongConnect@@@std@@U_Kfn@?$map@KPAVCTongConnect@@U?$less@K@std@@V?$allocator@PAVCTongConnect@@@3@@2@U?$less@K@2@V?$allocator@PAVCTongConnect@@@2@@std@@QAEXXZ 004390b0 f i TongServer.obj
 0001:00038170       ?_Construct@std@@YAXPAU?$pair@$$CBKPAVCTongConnect@@@1@ABU21@@Z 00439170 f i TongServer.obj
 0001:000381c0       ??0CTongControl@@QAE@HEPAD0HHHH0@Z 004391c0 f   KTongControl.obj
 0001:00038410       ??_ECTongControl@@UAEPAXI@Z 00439410 f i KTongControl.obj
 0001:00038410       ??_GCTongControl@@UAEPAXI@Z 00439410 f i KTongControl.obj
 0001:00038430       ??0CTongControl@@QAE@UTTongList@@@Z 00439430 f   KTongControl.obj
 0001:000385c0       ??1CTongControl@@UAE@XZ    004395c0 f   KTongControl.obj
 0001:000385e0       ?AddMember@CTongControl@@QAEHPADHHH@Z 004395e0 f   KTongControl.obj
 0001:00038780       ?GetTongHeadInfo@CTongControl@@QAEHPAUSTONG_HEAD_INFO_SYNC@@@Z 00439780 f   KTongControl.obj
 0001:00038d10       ?GetTongManagerInfo@CTongControl@@QAEHPAUSTONG_GET_MANAGER_INFO_COMMAND@@PAUSTONG_MANAGER_INFO_SYNC@@@Z 00439d10 f   KTongControl.obj
 0001:00039130       ?GetTongMemberInfo@CTongControl@@QAEHPAUSTONG_GET_MEMBER_INFO_COMMAND@@PAUSTONG_MEMBER_INFO_SYNC@@@Z 0043a130 f   KTongControl.obj
 0001:000395c0       ?Instate@CTongControl@@QAEHPAUSTONG_INSTATE_COMMAND@@PAUSTONG_INSTATE_SYNC@@@Z 0043a5c0 f   KTongControl.obj
 0001:0003a550       ?Kick@CTongControl@@QAEHPAUSTONG_KICK_COMMAND@@PAUSTONG_KICK_SYNC@@@Z 0043b550 f   KTongControl.obj
 0001:0003ab90       ?Leave@CTongControl@@QAEHPAUSTONG_LEAVE_COMMAND@@PAUSTONG_LEAVE_SYNC@@@Z 0043bb90 f   KTongControl.obj
 0001:0003b0b0       ?AcceptMaster@CTongControl@@QAEHPAUSTONG_ACCEPT_MASTER_COMMAND@@@Z 0043c0b0 f   KTongControl.obj
 0001:0003beb0       ?GetLoginData@CTongControl@@QAEHPAUSTONG_GET_LOGIN_DATA_COMMAND@@PAUSTONG_LOGIN_DATA_SYNC@@@Z 0043ceb0 f   KTongControl.obj
 0001:0003c180       ?SearchOne@CTongControl@@QAEHPADPAUSTONG_ONE_LEADER_INFO@@@Z 0043d180 f   KTongControl.obj
 0001:0003c3c0       ?DBInstate@CTongControl@@QAEHPADE@Z 0043d3c0 f   KTongControl.obj
 0001:0003c690       ?ChangeMoney@CTongControl@@QAEHPAUSTONG_MONEY_COMMAND@@PAUSTONG_MONEY_SYNC@@@Z 0043d690 f   KTongControl.obj
 0001:0003cb20       ?DBChangeAgname@CTongControl@@QAEHPAUSTONG_ACCEPT_AGNAME_COMMAND@@@Z 0043db20 f   KTongControl.obj
 0001:0003d350       ?GetMasterAgname@CTongControl@@QAEHPAD@Z 0043e350 f   KTongControl.obj
 0001:0003d3a0       ?GetDirectorAgname@CTongControl@@QAEHPADH@Z 0043e3a0 f   KTongControl.obj
 0001:0003d400       ?GetManagerAgname@CTongControl@@QAEHPADH@Z 0043e400 f   KTongControl.obj
 0001:0003d460       ?GetMemberAgname@CTongControl@@QAEHPADH@Z 0043e460 f   KTongControl.obj
 0001:0003d4f0       ?DBChangeSexAgname@CTongControl@@QAEHPAUSTONG_ACCEPT_SEX_AGNAME_COMMAND@@@Z 0043e4f0 f   KTongControl.obj
 0001:0003dae0       ?DBChangeCamp@CTongControl@@QAEHPAUSTONG_CHANGE_CAMP_COMMAND@@PAUSTONG_BE_CHANGED_CAMP_SYNC@@@Z 0043eae0 f   KTongControl.obj
 0001:0003e0b0       ?DBChangeTongRecruit@CTongControl@@QAEHPAUSTONG_CHANGE_TONG_INFO_COMMAND@@PAUSTONG_CHANGE_TONG_INFO_SYNC@@@Z 0043f0b0 f   KTongControl.obj
 0001:0003e3a0       ?DBChangeTongParam@CTongControl@@QAEHPAUSTONG_CHANGE_TONG_INFO_COMMAND@@PAUSTONG_CHANGE_TONG_INFO_SYNC@@@Z 0043f3a0 f   KTongControl.obj
 0001:0003e510       ?DBChangeTongLevel@CTongControl@@QAEHPAUSTONG_CHANGE_TONG_INFO_COMMAND@@PAUSTONG_CHANGE_TONG_INFO_SYNC@@@Z 0043f510 f   KTongControl.obj
 0001:0003e7f0       ?DBChangeTongMoney@CTongControl@@QAEHPAUSTONG_CHANGE_TONG_INFO_COMMAND@@PAUSTONG_CHANGE_TONG_INFO_SYNC@@@Z 0043f7f0 f   KTongControl.obj
 0001:0003eaf0       ?DBChangeTongEff@CTongControl@@QAEHPAUSTONG_CHANGE_TONG_INFO_COMMAND@@PAUSTONG_CHANGE_TONG_INFO_SYNC@@@Z 0043faf0 f   KTongControl.obj
 0001:0003edd0       ?DBChangeJiyu@CTongControl@@QAEHPAUSTONG_CHANGE_TONG_INFO_COMMAND@@PAUSTONG_CHANGE_TONG_INFO_SYNC@@@Z 0043fdd0 f   KTongControl.obj
 0001:0003f100       ?DBChangeMemberEff@CTongControl@@QAEHPAUSTONG_CHANGE_TONG_MEMBEREFF_COMMAND@@PAUSTONG_CHANGE_TONG_MEMBEREFF_SYNC@@@Z 00440100 f   KTongControl.obj
 0001:0003f5a0       ?MessageToTong@CTongControl@@QAEHPAUSTONG_MESSAGE_INFO_COMMAND@@@Z 004405a0 f   KTongControl.obj
 0001:0003f840       ??0CTongSet@@QAE@XZ        00440840 f   KTongSet.obj
 0001:0003f860       ??_ECTongSet@@UAEPAXI@Z    00440860 f i KTongSet.obj
 0001:0003f860       ??_GCTongSet@@UAEPAXI@Z    00440860 f i KTongSet.obj
 0001:0003f880       ??1CTongSet@@UAE@XZ        00440880 f   KTongSet.obj
 0001:0003f890       ?Init@CTongSet@@QAEXXZ     00440890 f   KTongSet.obj
 0001:0003f8d0       ?DeleteAll@CTongSet@@QAEXXZ 004408d0 f   KTongSet.obj
 0001:0003f930       ?Create@CTongSet@@QAEHHEPAD0HHHH0@Z 00440930 f   KTongSet.obj
 0001:0003fe70       ?AddMember@CTongSet@@QAEHPAD0HHH@Z 00440e70 f   KTongSet.obj
 0001:00040250       ?GetTongCamp@CTongSet@@QAEHH@Z 00441250 f   KTongSet.obj
 0001:00040280       ?GetTongMemberNum@CTongSet@@QAEHH@Z 00441280 f   KTongSet.obj
 0001:000402b0       ?GetTongMoney@CTongSet@@QAEKH@Z 004412b0 f   KTongSet.obj
 0001:000402e0       ?GetTongLevel@CTongSet@@QAEHH@Z 004412e0 f   KTongSet.obj
 0001:00040310       ?GetTongEff@CTongSet@@QAEKH@Z 00441310 f   KTongSet.obj
 0001:00040340       ?GetTongRecruit@CTongSet@@QAEHH@Z 00441340 f   KTongSet.obj
 0001:00040370       ?GetTongParam@CTongSet@@QAEHH@Z 00441370 f   KTongSet.obj
 0001:000403a0       ?GetTongJiyuParam@CTongSet@@QAEHH@Z 004413a0 f   KTongSet.obj
 0001:000403d0       ?GetMasterName@CTongSet@@QAEHHPAD@Z 004413d0 f   KTongSet.obj
 0001:00040430       ?GetMemberAgname@CTongSet@@QAEHHPADH@Z 00441430 f   KTongSet.obj
 0001:00040500       ?GetTongHeadInfo@CTongSet@@QAEHKPAUSTONG_HEAD_INFO_SYNC@@@Z 00441500 f   KTongSet.obj
 0001:00040560       ?GetTongManagerInfo@CTongSet@@QAEHPAUSTONG_GET_MANAGER_INFO_COMMAND@@PAUSTONG_MANAGER_INFO_SYNC@@@Z 00441560 f   KTongSet.obj
 0001:000405c0       ?GetTongMemberInfo@CTongSet@@QAEHPAUSTONG_GET_MEMBER_INFO_COMMAND@@PAUSTONG_MEMBER_INFO_SYNC@@@Z 004415c0 f   KTongSet.obj
 0001:00040620       ?Instate@CTongSet@@QAEHPAUSTONG_INSTATE_COMMAND@@PAUSTONG_INSTATE_SYNC@@@Z 00441620 f   KTongSet.obj
 0001:00040680       ?Kick@CTongSet@@QAEHPAUSTONG_KICK_COMMAND@@PAUSTONG_KICK_SYNC@@@Z 00441680 f   KTongSet.obj
 0001:000406e0       ?Leave@CTongSet@@QAEHPAUSTONG_LEAVE_COMMAND@@PAUSTONG_LEAVE_SYNC@@@Z 004416e0 f   KTongSet.obj
 0001:00040740       ?AcceptMaster@CTongSet@@QAEHPAUSTONG_ACCEPT_MASTER_COMMAND@@@Z 00441740 f   KTongSet.obj
 0001:000407a0       ?InitFromDB@CTongSet@@QAEHXZ 004417a0 f   KTongSet.obj
 0001:00040b30       ?GetLoginData@CTongSet@@QAEHPAUSTONG_GET_LOGIN_DATA_COMMAND@@PAUSTONG_LOGIN_DATA_SYNC@@@Z 00441b30 f   KTongSet.obj
 0001:00040bc0       ?SearchOne@CTongSet@@QAEHKPADPAUSTONG_ONE_LEADER_INFO@@@Z 00441bc0 f   KTongSet.obj
 0001:00040c30       ?ChangeMoney@CTongSet@@QAEHPAUSTONG_MONEY_COMMAND@@PAUSTONG_MONEY_SYNC@@@Z 00441c30 f   KTongSet.obj
 0001:00040cb0       ?AcceptAgname@CTongSet@@QAEHPAUSTONG_ACCEPT_AGNAME_COMMAND@@@Z 00441cb0 f   KTongSet.obj
 0001:00040d20       ?AcceptSexAgname@CTongSet@@QAEHPAUSTONG_ACCEPT_SEX_AGNAME_COMMAND@@@Z 00441d20 f   KTongSet.obj
 0001:00040d90       ?ChangeCamp@CTongSet@@QAEHPAUSTONG_CHANGE_CAMP_COMMAND@@PAUSTONG_BE_CHANGED_CAMP_SYNC@@@Z 00441d90 f   KTongSet.obj
 0001:00040e10       ?ChangeTongRecruit@CTongSet@@QAEHPAUSTONG_CHANGE_TONG_INFO_COMMAND@@PAUSTONG_CHANGE_TONG_INFO_SYNC@@@Z 00441e10 f   KTongSet.obj
 0001:00040e90       ?ChangeTongParam@CTongSet@@QAEHPAUSTONG_CHANGE_TONG_INFO_COMMAND@@PAUSTONG_CHANGE_TONG_INFO_SYNC@@@Z 00441e90 f   KTongSet.obj
 0001:00040f10       ?ChangeTongLevel@CTongSet@@QAEHPAUSTONG_CHANGE_TONG_INFO_COMMAND@@PAUSTONG_CHANGE_TONG_INFO_SYNC@@@Z 00441f10 f   KTongSet.obj
 0001:00040f90       ?ChangeTongMoney@CTongSet@@QAEHPAUSTONG_CHANGE_TONG_INFO_COMMAND@@PAUSTONG_CHANGE_TONG_INFO_SYNC@@@Z 00441f90 f   KTongSet.obj
 0001:00041010       ?ChangeTongEff@CTongSet@@QAEHPAUSTONG_CHANGE_TONG_INFO_COMMAND@@PAUSTONG_CHANGE_TONG_INFO_SYNC@@@Z 00442010 f   KTongSet.obj
 0001:00041090       ?ChangeJiyu@CTongSet@@QAEHPAUSTONG_CHANGE_TONG_INFO_COMMAND@@PAUSTONG_CHANGE_TONG_INFO_SYNC@@@Z 00442090 f   KTongSet.obj
 0001:00041110       ?ChangeMemberEff@CTongSet@@QAEHPAUSTONG_CHANGE_TONG_MEMBEREFF_COMMAND@@PAUSTONG_CHANGE_TONG_MEMBEREFF_SYNC@@@Z 00442110 f   KTongSet.obj
 0001:00041190       ?MessageToTong@CTongSet@@QAEHPAUSTONG_MESSAGE_INFO_COMMAND@@@Z 00442190 f   KTongSet.obj
 0001:000411f0       ?MessageToFaction@CTongSet@@QAEHPAUSTONG_MESSAGE_INFO_COMMAND@@@Z 004421f0 f   KTongSet.obj
 0001:00041450       ?MessageToChatRoom@CTongSet@@QAEHPAUSTONG_MESSAGE_INFO_COMMAND@@@Z 00442450 f   KTongSet.obj
 0001:000416b0       ?GetExtPoint@CTongSet@@QAEHPAUSTONG_GET_EXTPOINT_COMMAND@@@Z 004426b0 f   KTongSet.obj
 0001:000416d0       ?UpdateExtPoint@CTongSet@@QAEHPAUSTONG_UPDATE_EXTPOINT_COMMAND@@@Z 004426d0 f   KTongSet.obj
 0001:00041770       ??_GCTongDB@@UAEPAXI@Z     00442770 f i TONGDB.OBJ
 0001:00041770       ??_ECTongDB@@UAEPAXI@Z     00442770 f i TONGDB.OBJ
 0001:00041790       ?get_TongName@@YAHPAU__db@@PBU__db_dbt@@1PAU2@@Z 00442790 f   TONGDB.OBJ
 0001:000417c0       ??0CTongDB@@QAE@XZ         004427c0 f   TONGDB.OBJ
 0001:000417f0       ?Open@CTongDB@@QAE_NXZ     004427f0 f   TONGDB.OBJ
 0001:000418f0       ?OpenNew@CTongDB@@QAE_NXZ  004428f0 f   TONGDB.OBJ
 0001:00041a00       ?Close@CTongDB@@QAEXXZ     00442a00 f   TONGDB.OBJ
 0001:00041a30       ?ChangeTong@CTongDB@@QAE_NAAVCTongControl@@@Z 00442a30 f   TONGDB.OBJ
 0001:00041c00       ?DelTong@CTongDB@@QAE_NPAD@Z 00442c00 f   TONGDB.OBJ
 0001:00041c60       ?SearchTong@CTongDB@@QAE_NPADAAVCTongControl@@@Z 00442c60 f   TONGDB.OBJ
 0001:00042000       ?GetTongCount@CTongDB@@QAEHXZ 00443000 f   TONGDB.OBJ
 0001:00042060       ?GetTongList@CTongDB@@QAEHPAUTTongList@@H@Z 00443060 f   TONGDB.OBJ
 0001:00042170       ?ChangeMember@CTongDB@@QAE_NUTMemberStruct@@@Z 00443170 f   TONGDB.OBJ
 0001:000421a0       ?DelMember@CTongDB@@QAE_NPAD@Z 004431a0 f   TONGDB.OBJ
 0001:000421d0       ?UpdateExtPoint@CTongDB@@QAE_NPADH@Z 004431d0 f   TONGDB.OBJ
 0001:000422e0       ?GetExtPoint@CTongDB@@QAEHPAD@Z 004432e0 f   TONGDB.OBJ
 0001:00042430       _GetTickCount@0            00443430 f   kernel32:KERNEL32.dll
 0001:00042436       _GetModuleFileNameA@12     00443436 f   kernel32:KERNEL32.dll
 0001:0004243c       _GetPrivateProfileStringA@24 0044343c f   kernel32:KERNEL32.dll
 0001:00042442       _GetPrivateProfileIntA@16  00443442 f   kernel32:KERNEL32.dll
 0001:00042448       _GetPrivateProfileSectionA@16 00443448 f   kernel32:KERNEL32.dll
 0001:0004244e       _GetPrivateProfileSectionNamesA@12 0044344e f   kernel32:KERNEL32.dll
 0001:00042454       _FreeLibrary@4             00443454 f   kernel32:KERNEL32.dll
 0001:0004245a       _GetProcAddress@8          0044345a f   kernel32:KERNEL32.dll
 0001:00042460       _LoadLibraryA@4            00443460 f   kernel32:KERNEL32.dll
 0001:00042466       _Sleep@4                   00443466 f   kernel32:KERNEL32.dll
 0001:0004246c       _WaitForSingleObject@8     0044346c f   kernel32:KERNEL32.dll
 0001:00042472       _CreateMutexA@12           00443472 f   kernel32:KERNEL32.dll
 0001:00042478       _ReleaseMutex@4            00443478 f   kernel32:KERNEL32.dll
 0001:0004247e       _CreateEventA@16           0044347e f   kernel32:KERNEL32.dll
 0001:00042484       _CloseHandle@4             00443484 f   kernel32:KERNEL32.dll
 0001:0004248a       _TerminateThread@8         0044348a f   kernel32:KERNEL32.dll
 0001:00042490       _SetEvent@4                00443490 f   kernel32:KERNEL32.dll
 0001:00042496       _InitializeCriticalSection@4 00443496 f   kernel32:KERNEL32.dll
 0001:0004249c       _DeleteCriticalSection@4   0044349c f   kernel32:KERNEL32.dll
 0001:000424a2       _EnterCriticalSection@4    004434a2 f   kernel32:KERNEL32.dll
 0001:000424a8       _LeaveCriticalSection@4    004434a8 f   kernel32:KERNEL32.dll
 0001:000424ae       _ResetEvent@4              004434ae f   kernel32:KERNEL32.dll
 0001:000424b4       _GetFileAttributesA@4      004434b4 f   kernel32:KERNEL32.dll
 0001:000424ba       _WriteFile@20              004434ba f   kernel32:KERNEL32.dll
 0001:000424c0       _GetLocalTime@4            004434c0 f   kernel32:KERNEL32.dll
 0001:000424c6       _GetFileSize@8             004434c6 f   kernel32:KERNEL32.dll
 0001:000424cc       _CreateDirectoryA@8        004434cc f   kernel32:KERNEL32.dll
 0001:000424d2       _CreateFileA@28            004434d2 f   kernel32:KERNEL32.dll
 0001:000424d8       _LocalFree@4               004434d8 f   kernel32:KERNEL32.dll
 0001:000424de       _LocalAlloc@8              004434de f   kernel32:KERNEL32.dll
 0001:000424e4       _FormatMessageA@28         004434e4 f   kernel32:KERNEL32.dll
 0001:000424ea       _GetLastError@0            004434ea f   kernel32:KERNEL32.dll
 0001:000424f0       _MultiByteToWideChar@24    004434f0 f   kernel32:KERNEL32.dll
 0001:000424f6       _lstrlenA@4                004434f6 f   kernel32:KERNEL32.dll
 0001:000424fc       _InterlockedDecrement@4    004434fc f   kernel32:KERNEL32.dll
 0001:00042502       _DeleteFileA@4             00443502 f   kernel32:KERNEL32.dll
 0001:00042508       _KillTimer@8               00443508 f   user32:USER32.dll
 0001:0004250e       _SetTimer@16               0044350e f   user32:USER32.dll
 0001:00042514       _PostMessageA@16           00443514 f   user32:USER32.dll
 0001:0004251a       _wsprintfA                 0044351a f   user32:USER32.dll
 0001:00042520       _DispatchMessageA@4        00443520 f   user32:USER32.dll
 0001:00042526       _TranslateMessage@4        00443526 f   user32:USER32.dll
 0001:0004252c       _TranslateAcceleratorA@12  0044352c f   user32:USER32.dll
 0001:00042532       _GetMessageA@16            00443532 f   user32:USER32.dll
 0001:00042538       _LoadAcceleratorsA@8       00443538 f   user32:USER32.dll
 0001:0004253e       _LoadStringA@16            0044353e f   user32:USER32.dll
 0001:00042544       _MessageBoxA@16            00443544 f   user32:USER32.dll
 0001:0004254a       _DialogBoxParamA@20        0044354a f   user32:USER32.dll
 0001:00042550       _RegisterClassExA@4        00443550 f   user32:USER32.dll
 0001:00042556       _LoadCursorA@8             00443556 f   user32:USER32.dll
 0001:0004255c       _LoadIconA@8               0044355c f   user32:USER32.dll
 0001:00042562       _SendMessageA@16           00443562 f   user32:USER32.dll
 0001:00042568       _UpdateWindow@4            00443568 f   user32:USER32.dll
 0001:0004256e       _ShowWindow@8              0044356e f   user32:USER32.dll
 0001:00042574       _GetClientRect@8           00443574 f   user32:USER32.dll
 0001:0004257a       _CreateWindowExA@48        0044357a f   user32:USER32.dll
 0001:00042580       _DefWindowProcA@16         00443580 f   user32:USER32.dll
 0001:00042586       _DestroyWindow@4           00443586 f   user32:USER32.dll
 0001:0004258c       _PostQuitMessage@4         0044358c f   user32:USER32.dll
 0001:00042592       _MoveWindow@24             00443592 f   user32:USER32.dll
 0001:00042598       _EndPaint@8                00443598 f   user32:USER32.dll
 0001:0004259e       _BeginPaint@8              0044359e f   user32:USER32.dll
 0001:000425a4       _EndDialog@8               004435a4 f   user32:USER32.dll
 0001:000425aa       _GetDlgItemTextA@16        004435aa f   user32:USER32.dll
 0001:000425b0       _CoInitializeEx@8          004435b0 f   ole32:ole32.dll
 0001:000425b6       _CoUninitialize@0          004435b6 f   ole32:ole32.dll
 0001:000425bc       _OleRun@4                  004435bc f   ole32:ole32.dll
 0001:000425c2       _CoCreateInstance@20       004435c2 f   ole32:ole32.dll
 0001:000425c8       _CLSIDFromProgID@8         004435c8 f   ole32:ole32.dll
 0001:000425ce       _CLSIDFromString@8         004435ce f   ole32:ole32.dll
 0001:000425d4       _VariantClear@4            004435d4 f   oleaut32:OLEAUT32.dll
 0001:000425da       _VariantInit@4             004435da f   oleaut32:OLEAUT32.dll
 0001:000425e0       _SysFreeString@4           004435e0 f   oleaut32:OLEAUT32.dll
 0001:000425e6       _inet_ntoa@4               004435e6 f   Ws2_32:WS2_32.dll
 0001:000425ec       _inet_addr@4               004435ec f   Ws2_32:WS2_32.dll
 0001:000425f2       _lua_tostring              004435f2 f   lualibdll:LuaLibDll.dll
 0001:000425f8       _lua_gettop                004435f8 f   lualibdll:LuaLibDll.dll
 0001:000425fe       _lua_tonumber              004435fe f   lualibdll:LuaLibDll.dll
 0001:00042604       _lua_pushstring            00443604 f   lualibdll:LuaLibDll.dll
 0001:00042610       ??2@YAPAXI@Z               00443610 f   LIBCMTD:new.obj
 0001:00042630       ?_JumpToContinuation@@YGXPAXPAUEHRegistrationNode@@@Z 00443630 f   LIBCMTD:trnsctrl.obj
 0001:00042670       ?_CallMemberFunction0@@YGXPAX0@Z 00443670 f   LIBCMTD:trnsctrl.obj
 0001:00042680       ?_CallMemberFunction1@@YGXPAX00@Z 00443680 f   LIBCMTD:trnsctrl.obj
 0001:00042690       ?_CallMemberFunction2@@YGXPAX00H@Z 00443690 f   LIBCMTD:trnsctrl.obj
 0001:000426a0       ?_UnwindNestedFrames@@YGXPAUEHRegistrationNode@@PAUEHExceptionRecord@@@Z 004436a0 f   LIBCMTD:trnsctrl.obj
 0001:00042700       ___CxxFrameHandler         00443700 f   LIBCMTD:trnsctrl.obj
 0001:00042740       ___CxxLongjmpUnwind@4      00443740 f   LIBCMTD:trnsctrl.obj
 0001:00042770       ?_CallCatchBlock2@@YAPAXPAUEHRegistrationNode@@PBU_s_FuncInfo@@PAXHK@Z 00443770 f   LIBCMTD:trnsctrl.obj
 0001:00042820       ?_CallSETranslator@@YAHPAUEHExceptionRecord@@PAUEHRegistrationNode@@PAX2PBU_s_FuncInfo@@H1@Z 00443820 f   LIBCMTD:trnsctrl.obj
 0001:00042980       ?_GetRangeOfTrysToCheck@@YAPBU_s_TryBlockMapEntry@@PBU_s_FuncInfo@@HHPAI1@Z 00443980 f   LIBCMTD:trnsctrl.obj
 0001:00042a10       __global_unwind2           00443a10 f   LIBCMTD:exsup.obj
 0001:00042a52       __local_unwind2            00443a52 f   LIBCMTD:exsup.obj
 0001:00042aaa       __NLG_Return2              00443aaa f   LIBCMTD:exsup.obj
 0001:00042aba       __abnormal_termination     00443aba f   LIBCMTD:exsup.obj
 0001:00042add       __NLG_Notify1              00443add f   LIBCMTD:exsup.obj
 0001:00042ae6       __NLG_Notify               00443ae6 f   LIBCMTD:exsup.obj
 0001:00042af9       __NLG_Dispatch             00443af9 f   LIBCMTD:exsup.obj
 0001:00042b00       ??3@YAXPAX@Z               00443b00 f   LIBCMTD:dbgdel.obj
 0001:00042bb0       __mbscmp                   00443bb0 f   LIBCMTD:mbscmp.obj
 0001:00042d20       __chkstk                   00443d20 f   LIBCMTD:chkstk.obj
 0001:00042d20       __alloca_probe             00443d20 f   LIBCMTD:chkstk.obj
 0001:00042d50       _atol                      00443d50 f   LIBCMTD:atox.obj
 0001:00042e50       _atoi                      00443e50 f   LIBCMTD:atox.obj
 0001:00042e70       __atoi64                   00443e70 f   LIBCMTD:atox.obj
 0001:00042fa0       __itoa                     00443fa0 f   LIBCMTD:xtoa.obj
 0001:00042fa0       _itoa                      00443fa0 f   LIBCMTD:xtoa.obj
 0001:000430c0       __ltoa                     004440c0 f   LIBCMTD:xtoa.obj
 0001:00043100       __ultoa                    00444100 f   LIBCMTD:xtoa.obj
 0001:00043120       __i64toa                   00444120 f   LIBCMTD:xtoa.obj
 0001:00043270       __ui64toa                  00444270 f   LIBCMTD:xtoa.obj
 0001:00043290       _memmove                   00444290 f   LIBCMTD:memmove.obj
 0001:000435d0       _memchr                    004445d0 f   LIBCMTD:memchr.obj
 0001:00043680       __onexit                   00444680 f   LIBCMTD:onexit.obj
 0001:00043740       _atexit                    00444740 f   LIBCMTD:onexit.obj
 0001:00043760       ___onexitinit              00444760 f   LIBCMTD:onexit.obj
 0001:000437b0       _sprintf                   004447b0 f   LIBCMTD:sprintf.obj
 0001:000438b0       _strncpy                   004448b0 f   LIBCMTD:strncpy.obj
 0001:000439b0       __fpmath                   004449b0 f   LIBCMTD:fpinit.obj
 0001:000439e0       __fpclear                  004449e0 f   LIBCMTD:fpinit.obj
 0001:000439f0       __cfltcvt_init             004449f0 f   LIBCMTD:fpinit.obj
 0001:00043a40       ___setfflag                00444a40 f   LIBCMTD:fpinit.obj
 0001:00043a5c       __ftol                     00444a5c f   LIBCMTD:ftol.obj
 0001:00043a90       _malloc                    00444a90 f   LIBCMTD:dbgheap.obj
 0001:00043ab0       __malloc_dbg               00444ab0 f   LIBCMTD:dbgheap.obj
 0001:00043ae0       __nh_malloc                00444ae0 f   LIBCMTD:dbgheap.obj
 0001:00043b00       __nh_malloc_dbg            00444b00 f   LIBCMTD:dbgheap.obj
 0001:00043b60       __heap_alloc               00444b60 f   LIBCMTD:dbgheap.obj
 0001:00043b80       __heap_alloc_dbg           00444b80 f   LIBCMTD:dbgheap.obj
 0001:00043ea0       _calloc                    00444ea0 f   LIBCMTD:dbgheap.obj
 0001:00043ec0       __calloc_dbg               00444ec0 f   LIBCMTD:dbgheap.obj
 0001:00043f20       _realloc                   00444f20 f   LIBCMTD:dbgheap.obj
 0001:00043f40       __realloc_dbg              00444f40 f   LIBCMTD:dbgheap.obj
 0001:000444a0       __expand                   004454a0 f   LIBCMTD:dbgheap.obj
 0001:000444c0       __expand_dbg               004454c0 f   LIBCMTD:dbgheap.obj
 0001:00044500       _free                      00445500 f   LIBCMTD:dbgheap.obj
 0001:00044520       __free_lk                  00445520 f   LIBCMTD:dbgheap.obj
 0001:00044540       __free_dbg                 00445540 f   LIBCMTD:dbgheap.obj
 0001:00044570       __free_dbg_lk              00445570 f   LIBCMTD:dbgheap.obj
 0001:00044960       __msize                    00445960 f   LIBCMTD:dbgheap.obj
 0001:00044980       __msize_dbg                00445980 f   LIBCMTD:dbgheap.obj
 0001:00044ae0       __CrtSetBreakAlloc         00445ae0 f   LIBCMTD:dbgheap.obj
 0001:00044b00       __CrtSetDbgBlockType       00445b00 f   LIBCMTD:dbgheap.obj
 0001:00044ba0       __CrtSetAllocHook          00445ba0 f   LIBCMTD:dbgheap.obj
 0001:00044c50       __CrtCheckMemory           00445c50 f   LIBCMTD:dbgheap.obj
 0001:00044fc0       __CrtSetDbgFlag            00445fc0 f   LIBCMTD:dbgheap.obj
 0001:00044ff0       __CrtDoForAllClientObjects 00445ff0 f   LIBCMTD:dbgheap.obj
 0001:00045060       __CrtIsValidPointer        00446060 f   LIBCMTD:dbgheap.obj
 0001:000450b0       __CrtIsValidHeapPointer    004460b0 f   LIBCMTD:dbgheap.obj
 0001:00045140       __CrtIsMemoryBlock         00446140 f   LIBCMTD:dbgheap.obj
 0001:00045230       __CrtSetDumpClient         00446230 f   LIBCMTD:dbgheap.obj
 0001:00045250       __CrtMemCheckpoint         00446250 f   LIBCMTD:dbgheap.obj
 0001:000453c0       __CrtMemDifference         004463c0 f   LIBCMTD:dbgheap.obj
 0001:000454f0       __CrtMemDumpAllObjectsSince 004464f0 f   LIBCMTD:dbgheap.obj
 0001:000458d0       __CrtDumpMemoryLeaks       004468d0 f   LIBCMTD:dbgheap.obj
 0001:00045950       __CrtMemDumpStatistics     00446950 f   LIBCMTD:dbgheap.obj
 0001:00045a20       __mbsrchr                  00446a20 f   LIBCMTD:mbsrchr.obj
 0001:00045af0       _fwrite                    00446af0 f   LIBCMTD:fwrite.obj
 0001:00045b30       __fwrite_lk                00446b30 f   LIBCMTD:fwrite.obj
 0001:00045d50       _fclose                    00446d50 f   LIBCMTD:fclose.obj
 0001:00045de0       __fclose_lk                00446de0 f   LIBCMTD:fclose.obj
 0001:00045ea0       _fread                     00446ea0 f   LIBCMTD:fread.obj
 0001:00045ee0       __fread_lk                 00446ee0 f   LIBCMTD:fread.obj
 0001:000460b0       _ftell                     004470b0 f   LIBCMTD:ftell.obj
 0001:00046120       __ftell_lk                 00447120 f   LIBCMTD:ftell.obj
 0001:000463c0       _fseek                     004473c0 f   LIBCMTD:fseek.obj
 0001:00046430       __fseek_lk                 00447430 f   LIBCMTD:fseek.obj
 0001:00046560       __fsopen                   00447560 f   LIBCMTD:fopen.obj
 0001:00046660       _fopen                     00447660 f   LIBCMTD:fopen.obj
 0001:00046680       __mbsnbcmp                 00447680 f   LIBCMTD:mbsnbcmp.obj
 0001:00046870       _vfprintf                  00447870 f   LIBCMTD:vfprintf.obj
 0001:00046930       __mbsicmp                  00447930 f   LIBCMTD:mbsicmp.obj
 0001:00046bd0       __purecall                 00447bd0 f   LIBCMTD:purevirt.obj
 0001:00046be0       __beginthreadex            00447be0 f   LIBCMTD:threadex.obj
 0001:00046d70       __endthreadex              00447d70 f   LIBCMTD:threadex.obj
 0001:00046dc0       ??1type_info@@UAE@XZ       00447dc0 f   LIBCMTD:typinfo.obj
 0001:00046e00       ??_Gtype_info@@UAEPAXI@Z   00447e00 f i LIBCMTD:typinfo.obj
 0001:00046e00       ??_Etype_info@@UAEPAXI@Z   00447e00 f i LIBCMTD:typinfo.obj
 0001:00046e30       ??8type_info@@QBEHABV0@@Z  00447e30 f   LIBCMTD:typinfo.obj
 0001:00046e60       ??9type_info@@QBEHABV0@@Z  00447e60 f   LIBCMTD:typinfo.obj
 0001:00046e90       ?before@type_info@@QBEHABV1@@Z 00447e90 f   LIBCMTD:typinfo.obj
 0001:00046ec0       ?raw_name@type_info@@QBEPBDXZ 00447ec0 f   LIBCMTD:typinfo.obj
 0001:00046ee0       ??0type_info@@AAE@ABV0@@Z  00447ee0 f   LIBCMTD:typinfo.obj
 0001:00046f00       ??4type_info@@AAEAAV0@ABV0@@Z 00447f00 f   LIBCMTD:typinfo.obj
 0001:00046f10       __CxxThrowException@8      00447f10 f   LIBCMTD:throw.obj
 0001:00046f70       _strchr                    00447f70 f   LIBCMTD:strchr.obj
 0001:00046f76       ___from_strstr_to_strchr   00447f76 f   LIBCMTD:strchr.obj
 0001:00047030       _vsprintf                  00448030 f   LIBCMTD:vsprintf.obj
 0001:00047130       _localtime                 00448130 f   LIBCMTD:localtim.obj
 0001:00047390       _time                      00448390 f   LIBCMTD:time.obj
 0001:00047520       _WinMainCRTStartup         00448520 f   LIBCMTD:wincrt0.obj
 0001:00047690       __amsg_exit                00448690 f   LIBCMTD:wincrt0.obj
 0001:000476f0       ___InternalCxxFrameHandler 004486f0 f   LIBCMTD:frame.obj
 0001:00047c60       ___FrameUnwindToState      00448c60 f   LIBCMTD:frame.obj
 0001:00048270       ?_DestructExceptionObject@@YAXPAUEHExceptionRecord@@E@Z 00449270 f   LIBCMTD:frame.obj
 0001:00048350       __CallSettingFrame@12      00449350 f   LIBCMTD:lowhelpr.obj
 0001:00048377       __NLG_Return               00449377 f   LIBCMTD:lowhelpr.obj
 0001:000483a0       __mtinit                   004493a0 f   LIBCMTD:tidtable.obj
 0001:00048430       __mtterm                   00449430 f   LIBCMTD:tidtable.obj
 0001:00048460       __initptd                  00449460 f   LIBCMTD:tidtable.obj
 0001:00048480       __getptd                   00449480 f   LIBCMTD:tidtable.obj
 0001:00048520       __freeptd                  00449520 f   LIBCMTD:tidtable.obj
 0001:00048630       ___threadid                00449630 f   LIBCMTD:tidtable.obj
 0001:00048640       ___threadhandle            00449640 f   LIBCMTD:tidtable.obj
 0001:00048650       ?terminate@@YAXXZ          00449650 f   LIBCMTD:hooks.obj
 0001:000486e0       ?unexpected@@YAXXZ         004496e0 f   LIBCMTD:hooks.obj
 0001:00048700       ?_inconsistency@@YAXXZ     00449700 f   LIBCMTD:hooks.obj
 0001:00048790       __mtinitlocks              00449790 f   LIBCMTD:mlock.obj
 0001:000487d0       __mtdeletelocks            004497d0 f   LIBCMTD:mlock.obj
 0001:00048870       __lock                     00449870 f   LIBCMTD:mlock.obj
 0001:00048910       __unlock                   00449910 f   LIBCMTD:mlock.obj
 0001:00048930       __lockerr_exit             00449930 f   LIBCMTD:mlock.obj
 0001:00048950       __CrtDbgBreak              00449950 f   LIBCMTD:dbgrpt.obj
 0001:00048960       __CrtSetReportMode         00449960 f   LIBCMTD:dbgrpt.obj
 0001:000489c0       __CrtSetReportFile         004499c0 f   LIBCMTD:dbgrpt.obj
 0001:00048a40       __CrtSetReportHook         00449a40 f   LIBCMTD:dbgrpt.obj
 0001:00048a60       __CrtDbgReport             00449a60 f   LIBCMTD:dbgrpt.obj
 0001:00049100       __setmbcp                  0044a100 f   LIBCMTD:mbctype.obj
 0001:000498c0       __getmbcp                  0044a8c0 f   LIBCMTD:mbctype.obj
 0001:000498e0       ___initmbctable            0044a8e0 f   LIBCMTD:mbctype.obj
 0001:00049910       _strcmp                    0044a910 f   LIBCMTD:strcmp.obj
 0001:000499a0       __isctype                  0044a9a0 f   LIBCMTD:isctype.obj
 0001:00049a60       __allmul                   0044aa60 f   LIBCMTD:llmul.obj
 0001:00049aa0       __aulldiv                  0044aaa0 f   LIBCMTD:ulldiv.obj
 0001:00049b10       __aullrem                  0044ab10 f   LIBCMTD:ullrem.obj
 0001:00049b90       __cinit                    0044ab90 f   LIBCMTD:crt0dat.obj
 0001:00049bd0       _exit                      0044abd0 f   LIBCMTD:crt0dat.obj
 0001:00049bf0       __exit                     0044abf0 f   LIBCMTD:crt0dat.obj
 0001:00049c10       __cexit                    0044ac10 f   LIBCMTD:crt0dat.obj
 0001:00049c30       __c_exit                   0044ac30 f   LIBCMTD:crt0dat.obj
 0001:00049d40       __lockexit                 0044ad40 f   LIBCMTD:crt0dat.obj
 0001:00049d50       __unlockexit               0044ad50 f   LIBCMTD:crt0dat.obj
 0001:00049d90       __flsbuf                   0044ad90 f   LIBCMTD:_flsbuf.obj
 0001:0004a010       __output                   0044b010 f   LIBCMTD:output.obj
 0001:0004aeb0       __setdefaultprecision      0044beb0 f   LIBCMTD:fp8.obj
 0001:0004aed0       __ms_p5_test_fdiv          0044bed0 f   LIBCMTD:testfdiv.obj
 0001:0004af30       __ms_p5_mp_test_fdiv       0044bf30 f   LIBCMTD:testfdiv.obj
 0001:0004af80       __forcdecpt                0044bf80 f   LIBCMTD:cvt.obj
 0001:0004b030       __cropzeros                0044c030 f   LIBCMTD:cvt.obj
 0001:0004b110       __positive                 0044c110 f   LIBCMTD:cvt.obj
 0001:0004b140       __fassign                  0044c140 f   LIBCMTD:cvt.obj
 0001:0004b190       __cftoe                    0044c190 f   LIBCMTD:cvt.obj
 0001:0004b380       __cftof                    0044c380 f   LIBCMTD:cvt.obj
 0001:0004b530       __cftog                    0044c530 f   LIBCMTD:cvt.obj
 0001:0004b620       __cfltcvt                  0044c620 f   LIBCMTD:cvt.obj
 0001:0004b6b0       ?_set_new_handler@@YAP6AHI@ZP6AHI@Z@Z 0044c6b0 f   LIBCMTD:handler.obj
 0001:0004b6e0       ?_query_new_handler@@YAP6AHI@ZXZ 0044c6e0 f   LIBCMTD:handler.obj
 0001:0004b6f0       __callnewh                 0044c6f0 f   LIBCMTD:handler.obj
 0001:0004b720       _memset                    0044c720 f   LIBCMTD:memset.obj
 0001:0004b780       __malloc_base              0044c780 f   LIBCMTD:malloc.obj
 0001:0004b7a0       __nh_malloc_base           0044c7a0 f   LIBCMTD:malloc.obj
 0001:0004b800       __heap_alloc_base          0044c800 f   LIBCMTD:malloc.obj
 0001:0004b870       __CrtDefaultAllocHook      0044c870 f   LIBCMTD:dbghook.obj
 0001:0004b880       __expand_base              0044c880 f   LIBCMTD:expand.obj
 0001:0004b930       __realloc_base             0044c930 f   LIBCMTD:realloc.obj
 0001:0004bb20       __free_base                0044cb20 f   LIBCMTD:free.obj
 0001:0004bb90       __heapchk                  0044cb90 f   LIBCMTD:heapchk.obj
 0001:0004bc10       __heapset                  0044cc10 f   LIBCMTD:heapchk.obj
 0001:0004bc20       __heap_init                0044cc20 f   LIBCMTD:heapinit.obj
 0001:0004bc70       __heap_term                0044cc70 f   LIBCMTD:heapinit.obj
 0001:0004bd10       __get_sbh_threshold        0044cd10 f   LIBCMTD:sbheap.obj
 0001:0004bd20       __set_sbh_threshold        0044cd20 f   LIBCMTD:sbheap.obj
 0001:0004bd40       ___sbh_heap_init           0044cd40 f   LIBCMTD:sbheap.obj
 0001:0004bda0       ___sbh_find_block          0044cda0 f   LIBCMTD:sbheap.obj
 0001:0004be00       ___sbh_verify_block        0044ce00 f   LIBCMTD:sbheap.obj
 0001:0004be60       ___sbh_free_block          0044ce60 f   LIBCMTD:sbheap.obj
 0001:0004c430       ___sbh_alloc_block         0044d430 f   LIBCMTD:sbheap.obj
 0001:0004c970       ___sbh_alloc_new_region    0044d970 f   LIBCMTD:sbheap.obj
 0001:0004ca80       ___sbh_alloc_new_group     0044da80 f   LIBCMTD:sbheap.obj
 0001:0004cc70       ___sbh_resize_block        0044dc70 f   LIBCMTD:sbheap.obj
 0001:0004d260       ___sbh_heapmin             0044e260 f   LIBCMTD:sbheap.obj
 0001:0004d390       ___sbh_heap_check          0044e390 f   LIBCMTD:sbheap.obj
 0001:0004d9b0       _strrchr                   0044e9b0 f   LIBCMTD:strrchr.obj
 0001:0004d9e0       ___initstdio               0044e9e0 f   LIBCMTD:_file.obj
 0001:0004db10       ___endstdio                0044eb10 f   LIBCMTD:_file.obj
 0001:0004db30       __lock_file                0044eb30 f   LIBCMTD:_file.obj
 0001:0004db70       __lock_file2               0044eb70 f   LIBCMTD:_file.obj
 0001:0004dba0       __unlock_file              0044eba0 f   LIBCMTD:_file.obj
 0001:0004dbe0       __unlock_file2             0044ebe0 f   LIBCMTD:_file.obj
 0001:0004dc10       __write                    0044ec10 f   LIBCMTD:write.obj
 0001:0004dca0       __write_lk                 0044eca0 f   LIBCMTD:write.obj
 0001:0004df20       _fflush                    0044ef20 f   LIBCMTD:fflush.obj
 0001:0004df70       __fflush_lk                0044ef70 f   LIBCMTD:fflush.obj
 0001:0004dfc0       __flush                    0044efc0 f   LIBCMTD:fflush.obj
 0001:0004e080       __flushall                 0044f080 f   LIBCMTD:fflush.obj
 0001:0004e1d0       _memcpy                    0044f1d0 f   LIBCMTD:memcpy.obj
 0001:0004e510       __close                    0044f510 f   LIBCMTD:close.obj
 0001:0004e510       _close                     0044f510 f   LIBCMTD:close.obj
 0001:0004e590       __close_lk                 0044f590 f   LIBCMTD:close.obj
 0001:0004e640       __freebuf                  0044f640 f   LIBCMTD:_freebuf.obj
 0001:0004e6e0       __filbuf                   0044f6e0 f   LIBCMTD:_filbuf.obj
 0001:0004e8d0       __read                     0044f8d0 f   LIBCMTD:read.obj
 0001:0004e960       __read_lk                  0044f960 f   LIBCMTD:read.obj
 0001:0004edb0       __dosmaperr                0044fdb0 f   LIBCMTD:dosmap.obj
 0001:0004ee50       __errno                    0044fe50 f   LIBCMTD:dosmap.obj
 0001:0004ee60       ___doserrno                0044fe60 f   LIBCMTD:dosmap.obj
 0001:0004ee70       __ioinit                   0044fe70 f   LIBCMTD:ioinit.obj
 0001:0004f1a0       __ioterm                   004501a0 f   LIBCMTD:ioinit.obj
 0001:0004f240       __lseek                    00450240 f   LIBCMTD:lseek.obj
 0001:0004f2d0       __lseek_lk                 004502d0 f   LIBCMTD:lseek.obj
 0001:0004f390       __openfile                 00450390 f   LIBCMTD:_open.obj
 0001:0004f720       __getstream                00450720 f   LIBCMTD:stream.obj
 0001:0004f8a0       _strncmp                   004508a0 f   LIBCMTD:strncmp.obj
 0001:0004f8e0       __stbuf                    004508e0 f   LIBCMTD:_sftbuf.obj
 0001:0004fa40       __ftbuf                    00450a40 f   LIBCMTD:_sftbuf.obj
 0001:0004fae0       ___crtLCMapStringA         00450ae0 f   LIBCMTD:a_map.obj
 0001:0004fe40       __strcmpi                  00450e40 f   LIBCMTD:stricmp.obj
 0001:0004fe40       __stricmp                  00450e40 f   LIBCMTD:stricmp.obj
 0001:0004ff10       __XcptFilter               00450f10 f   LIBCMTD:winxfltr.obj
 0001:00050134       __except_handler3          00451134 f   LIBCMTD:exsup3.obj
 0001:000501f1       __seh_longjmp_unwind@4     004511f1 f   LIBCMTD:exsup3.obj
 0001:00050210       ?__CxxUnhandledExceptionFilter@@YGJPAU_EXCEPTION_POINTERS@@@Z 00451210 f   LIBCMTD:unhandld.obj
 0001:00050270       ?__CxxSetUnhandledExceptionFilter@@YAXXZ 00451270 f   LIBCMTD:unhandld.obj
 0001:00050290       ?__CxxRestoreUnhandledExceptionFilter@@YAXXZ 00451290 f   LIBCMTD:unhandld.obj
 0001:000502b0       ___tzset                   004512b0 f   LIBCMTD:tzset.obj
 0001:000502f0       __tzset                    004512f0 f   LIBCMTD:tzset.obj
 0001:000506c0       __isindst                  004516c0 f   LIBCMTD:tzset.obj
 0001:00050bf0       _gmtime                    00451bf0 f   LIBCMTD:gmtime.obj
 0001:00050df0       ___loctotime_t             00451df0 f   LIBCMTD:dtoxtime.obj
 0001:00050ee0       __wincmdln                 00451ee0 f   LIBCMTD:wincmdln.obj
 0001:00050fa0       __setenvp                  00451fa0 f   LIBCMTD:stdenvp.obj
 0001:000510f0       __setargv                  004520f0 f   LIBCMTD:stdargv.obj
 0001:00051600       ___crtGetEnvironmentStringsA 00452600 f   LIBCMTD:a_env.obj
 0001:00051820       __FF_MSGBANNER             00452820 f   LIBCMTD:crt0msg.obj
 0001:00051870       __NMSG_WRITE               00452870 f   LIBCMTD:crt0msg.obj
 0001:00051a30       __GET_RTERRMSG             00452a30 f   LIBCMTD:crt0msg.obj
 0001:00051a80       ?_ValidateRead@@YAHPBXI@Z  00452a80 f   LIBCMTD:validate.obj
 0001:00051ab0       ?_ValidateWrite@@YAHPAXI@Z 00452ab0 f   LIBCMTD:validate.obj
 0001:00051ae0       ?_ValidateExecute@@YAHP6GHXZ@Z 00452ae0 f   LIBCMTD:validate.obj
 0001:00051b10       _abort                     00452b10 f   LIBCMTD:abort.obj
 0001:00051b30       _strlen                    00452b30 f   LIBCMTD:strlen.obj
 0001:00051bb0       __snprintf                 00452bb0 f   LIBCMTD:snprintf.obj
 0001:00051cb0       _strcpy                    00452cb0 f   LIBCMTD:strcat.obj
 0001:00051cc0       _strcat                    00452cc0 f   LIBCMTD:strcat.obj
 0001:00051da0       __vsnprintf                00452da0 f   LIBCMTD:vsnprint.obj
 0001:00051ea0       _signal                    00452ea0 f   LIBCMTD:winsig.obj
 0001:00052170       _raise                     00453170 f   LIBCMTD:winsig.obj
 0001:00052410       ___fpecode                 00453410 f   LIBCMTD:winsig.obj
 0001:00052420       ___pxcptinfoptrs           00453420 f   LIBCMTD:winsig.obj
 0001:00052430       ___crtMessageBoxA          00453430 f   LIBCMTD:crtmbox.obj
 0001:000524f0       ___crtGetStringTypeA       004534f0 f   LIBCMTD:a_str.obj
 0001:000526b0       __getbuf                   004536b0 f   LIBCMTD:_getbuf.obj
 0001:00052780       __isatty                   00453780 f   LIBCMTD:isatty.obj
 0001:000527c0       _wctomb                    004537c0 f   LIBCMTD:wctomb.obj
 0001:00052840       __wctomb_lk                00453840 f   LIBCMTD:wctomb.obj
 0001:000528e0       __statusfp                 004538e0 f   LIBCMTD:ieee87.obj
 0001:00052900       __clearfp                  00453900 f   LIBCMTD:ieee87.obj
 0001:00052920       __control87                00453920 f   LIBCMTD:ieee87.obj
 0001:00052970       __controlfp                00453970 f   LIBCMTD:ieee87.obj
 0001:00052990       __fpreset                  00453990 f   LIBCMTD:ieee87.obj
 0001:00052d80       __tolower                  00453d80 f   LIBCMTD:tolower.obj
 0001:00052d90       _tolower                   00453d90 f   LIBCMTD:tolower.obj
 0001:00052e30       __tolower_lk               00453e30 f   LIBCMTD:tolower.obj
 0001:00052f60       __ZeroTail                 00453f60 f   LIBCMTD:intrncvt.obj
 0001:00052ff0       __IncMan                   00453ff0 f   LIBCMTD:intrncvt.obj
 0001:000530a0       __RoundMan                 004540a0 f   LIBCMTD:intrncvt.obj
 0001:00053180       __CopyMan                  00454180 f   LIBCMTD:intrncvt.obj
 0001:000531d0       __FillZeroMan              004541d0 f   LIBCMTD:intrncvt.obj
 0001:00053200       __IsZeroMan                00454200 f   LIBCMTD:intrncvt.obj
 0001:00053240       __ShrMan                   00454240 f   LIBCMTD:intrncvt.obj
 0001:00053330       __ld12cvt                  00454330 f   LIBCMTD:intrncvt.obj
 0001:00053580       __ld12tod                  00454580 f   LIBCMTD:intrncvt.obj
 0001:000535a0       __ld12tof                  004545a0 f   LIBCMTD:intrncvt.obj
 0001:000535c0       __ld12told                 004545c0 f   LIBCMTD:intrncvt.obj
 0001:00053680       __atodbl                   00454680 f   LIBCMTD:intrncvt.obj
 0001:000536c0       __atoldbl                  004546c0 f   LIBCMTD:intrncvt.obj
 0001:00053700       __atoflt                   00454700 f   LIBCMTD:intrncvt.obj
 0001:00053740       __fptostr                  00454740 f   LIBCMTD:_fptostr.obj
 0001:00053840       __fltout2                  00454840 f   LIBCMTD:cfout.obj
 0001:000538c0       ___dtold                   004548c0 f   LIBCMTD:cfout.obj
 0001:00053a30       __fptrap                   00454a30 f   LIBCMTD:crt0fp.obj
 0001:00053a40       __fcloseall                00454a40 f   LIBCMTD:closeall.obj
 0001:00053b20       __alloc_osfhnd             00454b20 f   LIBCMTD:osfinfo.obj
 0001:00053d10       __set_osfhnd               00454d10 f   LIBCMTD:osfinfo.obj
 0001:00053dd0       __free_osfhnd              00454dd0 f   LIBCMTD:osfinfo.obj
 0001:00053eb0       __get_osfhandle            00454eb0 f   LIBCMTD:osfinfo.obj
 0001:00053f20       __open_osfhandle           00454f20 f   LIBCMTD:osfinfo.obj
 0001:00054030       __lock_fhandle             00455030 f   LIBCMTD:osfinfo.obj
 0001:000540c0       __unlock_fhandle           004550c0 f   LIBCMTD:osfinfo.obj
 0001:000540f0       __commit                   004550f0 f   LIBCMTD:commit.obj
 0001:000541d0       _open                      004551d0 f   LIBCMTD:open.obj
 0001:000541d0       __open                     004551d0 f   LIBCMTD:open.obj
 0001:00054210       __sopen                    00455210 f   LIBCMTD:open.obj
 0001:00054770       _setlocale                 00455770 f   LIBCMTD:setlocal.obj
 0001:00054e00       __expandlocale             00455e00 f   LIBCMTD:setlocal.obj
 0001:00054f90       ___init_dummy              00455f90 f   LIBCMTD:setlocal.obj
 0001:00054fa0       __strcats                  00455fa0 f   LIBCMTD:setlocal.obj
 0001:00054ff0       ___lc_strtolc              00455ff0 f   LIBCMTD:setlocal.obj
 0001:00055150       ___lc_lctostr              00456150 f   LIBCMTD:setlocal.obj
 0001:000551c0       _getenv                    004561c0 f   LIBCMTD:getenv.obj
 0001:000551f0       __getenv_lk                004561f0 f   LIBCMTD:getenv.obj
 0001:000552c0       __ismbbkalnum              004562c0 f   LIBCMTD:ismbbyte.obj
 0001:000552e0       __ismbbkprint              004562e0 f   LIBCMTD:ismbbyte.obj
 0001:00055300       __ismbbkpunct              00456300 f   LIBCMTD:ismbbyte.obj
 0001:00055320       __ismbbalnum               00456320 f   LIBCMTD:ismbbyte.obj
 0001:00055340       __ismbbalpha               00456340 f   LIBCMTD:ismbbyte.obj
 0001:00055360       __ismbbgraph               00456360 f   LIBCMTD:ismbbyte.obj
 0001:00055380       __ismbbprint               00456380 f   LIBCMTD:ismbbyte.obj
 0001:000553a0       __ismbbpunct               004563a0 f   LIBCMTD:ismbbyte.obj
 0001:000553c0       __ismbblead                004563c0 f   LIBCMTD:ismbbyte.obj
 0001:000553e0       __ismbbtrail               004563e0 f   LIBCMTD:ismbbyte.obj
 0001:00055400       __ismbbkana                00456400 f   LIBCMTD:ismbbyte.obj
 0001:000554b0       ___addl                    004564b0 f   LIBCMTD:mantold.obj
 0001:000554f0       ___add_12                  004564f0 f   LIBCMTD:mantold.obj
 0001:000555a0       ___shl_12                  004565a0 f   LIBCMTD:mantold.obj
 0001:00055600       ___shr_12                  00456600 f   LIBCMTD:mantold.obj
 0001:00055670       ___mtold12                 00456670 f   LIBCMTD:mantold.obj
 0001:000557b0       ___strgtold12              004567b0 f   LIBCMTD:strgtold.obj
 0001:000562e0       ___STRINGTOLD              004572e0 f   LIBCMTD:strgtold.obj
 0001:00056330       _$I10_OUTPUT               00457330 f   LIBCMTD:x10fout.obj
 0001:00056850       __chsize                   00457850 f   LIBCMTD:chsize.obj
 0001:000568d0       __chsize_lk                004578d0 f   LIBCMTD:chsize.obj
 0001:00056b00       ___init_time               00457b00 f   LIBCMTD:inittime.obj
 0001:00057480       ___init_numeric            00458480 f   LIBCMTD:initnum.obj
 0001:000577b0       ___init_monetary           004587b0 f   LIBCMTD:initmon.obj
 0001:00057c10       ___init_ctype              00458c10 f   LIBCMTD:initctyp.obj
 0001:00057fb0       ___init_collate            00458fb0 f   LIBCMTD:initcoll.obj
 0001:00057fc0       _strcspn                   00458fc0 f   LIBCMTD:strcspn.obj
 0001:00058000       _strpbrk                   00459000 f   LIBCMTD:strpbrk.obj
 0001:00058040       ___get_qualified_locale    00459040 f   LIBCMTD:getqloc.obj
 0001:00058de0       __mbsnbicoll               00459de0 f   LIBCMTD:mbsnbico.obj
 0001:00058e30       ___wtomb_environ           00459e30 f   LIBCMTD:wtombenv.obj
 0001:00058ee0       ___ld12mul                 00459ee0 f   LIBCMTD:tenpow.obj
 0001:00059320       ___multtenpow12            0045a320 f   LIBCMTD:tenpow.obj
 0001:000593f0       __setmode                  0045a3f0 f   LIBCMTD:setmode.obj
 0001:00059470       __setmode_lk               0045a470 f   LIBCMTD:setmode.obj
 0001:00059540       __Getdays                  0045a540 f   LIBCMTD:strftime.obj
 0001:00059670       __Getmonths                0045a670 f   LIBCMTD:strftime.obj
 0001:000597a0       __Gettnames                0045a7a0 f   LIBCMTD:strftime.obj
 0001:00059b10       _strftime                  0045ab10 f   LIBCMTD:strftime.obj
 0001:00059b30       __Strftime                 0045ab30 f   LIBCMTD:strftime.obj
 0001:0005a9b0       ___getlocaleinfo           0045b9b0 f   LIBCMTD:inithelp.obj
 0001:0005ac40       _localeconv                0045bc40 f   LIBCMTD:lconv.obj
 0001:0005ac50       ___crtGetStringTypeW       0045bc50 f   LIBCMTD:w_str.obj
 0001:0005aec0       __strnicmp                 0045bec0 f   LIBCMTD:strnicmp.obj
 0001:0005afd0       ___crtCompareStringA       0045bfd0 f   LIBCMTD:a_cmp.obj
 0001:0005b420       ___crtsetenv               0045c420 f   LIBCMTD:setenv.obj
 0001:0005b870       ___crtGetLocaleInfoW       0045c870 f   LIBCMTD:w_loc.obj
 0001:0005ba10       ___crtGetLocaleInfoA       0045ca10 f   LIBCMTD:a_loc.obj
 0001:0005bbc0       __mbschr                   0045cbc0 f   LIBCMTD:mbschr.obj
 0001:0005bcae       ??0KLuaScript@@QAE@XZ      0045ccae f   engine:Engine.dll
 0001:0005bcb4       ??1KLuaScript@@UAE@XZ      0045ccb4 f   engine:Engine.dll
 0001:0005bcba       ?RegisterFunctions@KLuaScript@@QAEHQAUTLua_Funcs@@H@Z 0045ccba f   engine:Engine.dll
 0001:0005bcc0       ?Init@KLuaScript@@UAEHXZ   0045ccc0 f   engine:Engine.dll
 0001:0005bcc6       ?ExecuteCode@KLuaScript@@QAEHXZ 0045ccc6 f   engine:Engine.dll
 0001:0005bccc       ?LoadBuffer@KLuaScript@@QAEHPAEK@Z 0045cccc f   engine:Engine.dll
 0001:0005bcd2       ?KSG_StringToMD5String@@YAHQADQBD@Z 0045ccd2 f   engine:Engine.dll
 0001:0005bce0       _db_env_create             0045cce0 f   libdb41s:env_method.obj
 0001:0005c3e0       ___db_mi_env               0045d3e0 f   libdb41s:env_method.obj
 0001:0005c400       ___db_mi_open              0045d400 f   libdb41s:env_method.obj
 0001:0005c430       ___db_env_config           0045d430 f   libdb41s:env_method.obj
 0001:0005c4c0       _db_create                 0045d4c0 f   libdb41s:db_method.obj
 0001:0005c7c0       ___dbh_am_chk              0045d7c0 f   libdb41s:db_method.obj
 0001:0005cca0       ___db_set_lorder           0045dca0 f   libdb41s:db_method.obj
 0001:0005ce80       ___os_umalloc              0045de80 f   libdb41s:os_alloc.obj
 0001:0005cf30       ___os_urealloc             0045df30 f   libdb41s:os_alloc.obj
 0001:0005cff0       ___os_ufree                0045dff0 f   libdb41s:os_alloc.obj
 0001:0005d040       ___os_strdup               0045e040 f   libdb41s:os_alloc.obj
 0001:0005d0a0       ___os_calloc               0045e0a0 f   libdb41s:os_alloc.obj
 0001:0005d0f0       ___os_malloc               0045e0f0 f   libdb41s:os_alloc.obj
 0001:0005d170       ___os_realloc              0045e170 f   libdb41s:os_alloc.obj
 0001:0005d200       ___os_free                 0045e200 f   libdb41s:os_alloc.obj
 0001:0005d220       ___ua_memcpy               0045e220 f   libdb41s:os_alloc.obj
 0001:0005d250       ___txn_dbenv_create        0045e250 f   libdb41s:txn_method.obj
 0001:0005d300       ___rep_dbenv_create        0045e300 f   libdb41s:rep_method.obj
 0001:0005e860       ___memp_dbenv_create       0045f860 f   libdb41s:mp_method.obj
 0001:0005e9b0       ___lock_dbenv_create       0045f9b0 f   libdb41s:lock_method.obj
 0001:0005ea70       ___lock_dbenv_close        0045fa70 f   libdb41s:lock_method.obj
 0001:0005eca0       ___log_dbenv_create        0045fca0 f   libdb41s:log_method.obj
 0001:0005ee90       _db_version                0045fe90 f   libdb41s:env_open.obj
 0001:0005eec0       ___dbenv_open              0045fec0 f   libdb41s:env_open.obj
 0001:0005f350       ___dbenv_remove            00460350 f   libdb41s:env_open.obj
 0001:0005f5c0       ___dbenv_close             004605c0 f   libdb41s:env_open.obj
 0001:0005f880       ___db_appname              00460880 f   libdb41s:env_open.obj
 0001:0005fb70       ___db_home                 00460b70 f   libdb41s:env_open.obj
 0001:000609c0       ___dbenv_dbrename          004619c0 f   libdb41s:db_rename.obj
 0001:00060b20       ___db_rename               00461b20 f   libdb41s:db_rename.obj
 0001:00060be0       ___db_rename_i             00461be0 f   libdb41s:db_rename.obj
 0001:00060e20       ___dbenv_dbremove          00461e20 f   libdb41s:db_remove.obj
 0001:00060f80       ___db_remove               00461f80 f   libdb41s:db_remove.obj
 0001:00061030       ___db_remove_i             00462030 f   libdb41s:db_remove.obj
 0001:000612e0       ___db_fchk                 004622e0 f   libdb41s:db_err.obj
 0001:00061310       ___db_fcchk                00462310 f   libdb41s:db_err.obj
 0001:00061340       ___db_ferr                 00462340 f   libdb41s:db_err.obj
 0001:00061370       ___db_pgerr                00462370 f   libdb41s:db_err.obj
 0001:000613a0       ___db_pgfmt                004623a0 f   libdb41s:db_err.obj
 0001:000613d0       ___db_eopnotsup            004623d0 f   libdb41s:db_err.obj
 0001:000613f0       ___db_panic_msg            004623f0 f   libdb41s:db_err.obj
 0001:00061410       ___db_panic                00462410 f   libdb41s:db_err.obj
 0001:00061460       _db_strerror               00462460 f   libdb41s:db_err.obj
 0001:00061570       ___db_err                  00462570 f   libdb41s:db_err.obj
 0001:000615c0       ___db_errcall              004625c0 f   libdb41s:db_err.obj
 0001:00061680       ___db_errfile              00462680 f   libdb41s:db_err.obj
 0001:00061710       ___db_logmsg               00462710 f   libdb41s:db_err.obj
 0001:000617c0       ___db_unknown_flag         004627c0 f   libdb41s:db_err.obj
 0001:000617f0       ___db_unknown_type         004627f0 f   libdb41s:db_err.obj
 0001:00061820       ___db_check_txn            00462820 f   libdb41s:db_err.obj
 0001:00061930       ___db_not_txn_env          00462930 f   libdb41s:db_err.obj
 0001:00061950       ___db_xa_create            00462950 f   libdb41s:xa_db.obj
 0001:00061b70       ___qam_db_create           00462b70 f   libdb41s:qam_method.obj
 0001:00061bb0       ___qam_db_close            00462bb0 f   libdb41s:qam_method.obj
 0001:00061cd0       ___db_prqueue              00462cd0 f   libdb41s:qam_method.obj
 0001:00061e50       ___qam_remove              00462e50 f   libdb41s:qam_method.obj
 0001:000620b0       ___qam_rename              004630b0 f   libdb41s:qam_method.obj
 0001:00062300       ___ham_db_create           00463300 f   libdb41s:hash_method.obj
 0001:00062350       ___ham_db_close            00463350 f   libdb41s:hash_method.obj
 0001:00062470       ___bam_db_create           00463470 f   libdb41s:bt_method.obj
 0001:00062530       ___bam_db_close            00463530 f   libdb41s:bt_method.obj
 0001:00062580       ___bam_set_flags           00463580 f   libdb41s:bt_method.obj
 0001:00062800       ___ram_set_flags           00463800 f   libdb41s:bt_method.obj
 0001:00062a00       ___db_verify               00463a00 f   libdb41s:db_vrfy.obj
 0001:00062a30       ___db_verify_callback      00463a30 f   libdb41s:db_vrfy.obj
 0001:00062a70       ___db_verify_internal      00463a70 f   libdb41s:db_vrfy.obj
 0001:00063c30       ___db_vrfy_datapage        00464c30 f   libdb41s:db_vrfy.obj
 0001:00063e20       ___db_vrfy_meta            00464e20 f   libdb41s:db_vrfy.obj
 0001:000643f0       ___db_vrfy_struct_feedback 004653f0 f   libdb41s:db_vrfy.obj
 0001:00064b80       ___db_vrfy_inpitem         00465b80 f   libdb41s:db_vrfy.obj
 0001:00064d40       ___db_vrfy_duptype         00465d40 f   libdb41s:db_vrfy.obj
 0001:00064e70       ___db_salvage_duptree      00465e70 f   libdb41s:db_vrfy.obj
 0001:000657a0       ___db_upgrade              004667a0 f   libdb41s:db_upg.obj
 0001:00065d20       ___db_lastpgno             00466d20 f   libdb41s:db_upg.obj
 0001:00065dc0       ___db_cursor               00466dc0 f   libdb41s:db_am.obj
 0001:00065f20       ___db_icursor              00466f20 f   libdb41s:db_am.obj
 0001:00066370       ___db_fd                   00467370 f   libdb41s:db_am.obj
 0001:00066410       ___db_get                  00467410 f   libdb41s:db_am.obj
 0001:00066550       ___db_put                  00467550 f   libdb41s:db_am.obj
 0001:00066870       ___db_delete               00467870 f   libdb41s:db_am.obj
 0001:00066af0       ___db_sync                 00467af0 f   libdb41s:db_am.obj
 0001:00066bb0       ___db_associate            00467bb0 f   libdb41s:db_am.obj
 0001:000670a0       ___db_pget                 004680a0 f   libdb41s:db_am.obj
 0001:00067590       ___db_truncate             00468590 f   libdb41s:db_truncate.obj
 0001:000676e0       ___db_master_open          004686e0 f   libdb41s:db.obj
 0001:000677e0       ___db_master_update        004687e0 f   libdb41s:db.obj
 0001:00067c90       ___db_dbenv_setup          00468c90 f   libdb41s:db.obj
 0001:00068000       ___db_close                00469000 f   libdb41s:db.obj
 0001:00068060       ___db_close_i              00469060 f   libdb41s:db.obj
 0001:00068130       ___db_refresh              00469130 f   libdb41s:db.obj
 0001:000684f0       ___db_log_page             004694f0 f   libdb41s:db.obj
 0001:00068570       ___db_backup_name          00469570 f   libdb41s:db.obj
 0001:000686b0       ___dblist_get              004696b0 f   libdb41s:db.obj
 0001:00068790       ___db_open                 00469790 f   libdb41s:db_open.obj
 0001:000689d0       ___db_dbopen               004699d0 f   libdb41s:db_open.obj
 0001:00068c10       ___db_new_file             00469c10 f   libdb41s:db_open.obj
 0001:00068cc0       ___db_init_subdb           00469cc0 f   libdb41s:db_open.obj
 0001:00068dc0       ___db_chk_meta             00469dc0 f   libdb41s:db_open.obj
 0001:00068e20       ___db_meta_setup           00469e20 f   libdb41s:db_open.obj
 0001:00069260       ___db_join                 0046a260 f   libdb41s:db_join.obj
 0001:00069e80       ___db_isbigendian          0046ae80 f   libdb41s:db_byteorder.obj
 0001:00069e90       ___db_byteorder            0046ae90 f   libdb41s:db_byteorder.obj
 0001:00069ee0       ___os_get_errno            0046aee0 f   libdb41s:os_errno.obj
 0001:00069ef0       ___os_set_errno            0046aef0 f   libdb41s:os_errno.obj
 0001:00069f00       ___os_win32_errno          0046af00 f   libdb41s:os_errno.obj
 0001:00069fd0       _txn_abort                 0046afd0 f   libdb41s:txn.obj
 0001:00069fe0       _txn_begin                 0046afe0 f   libdb41s:txn.obj
 0001:0006a000       _txn_commit                0046b000 f   libdb41s:txn.obj
 0001:0006a020       ___txn_begin               0046b020 f   libdb41s:txn.obj
 0001:0006a230       ___txn_xa_begin            0046b230 f   libdb41s:txn.obj
 0001:0006a2a0       ___txn_compensate_begin    0046b2a0 f   libdb41s:txn.obj
 0001:0006a700       ___txn_commit              0046b700 f   libdb41s:txn.obj
 0001:0006a9b0       ___txn_abort               0046b9b0 f   libdb41s:txn.obj
 0001:0006aba0       ___txn_discard             0046bba0 f   libdb41s:txn.obj
 0001:0006ac70       ___txn_prepare             0046bc70 f   libdb41s:txn.obj
 0001:0006ae30       ___txn_id                  0046be30 f   libdb41s:txn.obj
 0001:0006b400       ___txn_checkpoint          0046c400 f   libdb41s:txn.obj
 0001:0006b6a0       ___txn_getckp              0046c6a0 f   libdb41s:txn.obj
 0001:0006b700       ___txn_activekids          0046c700 f   libdb41s:txn.obj
 0001:0006b740       ___txn_force_abort         0046c740 f   libdb41s:txn.obj
 0001:0006b830       ___txn_preclose            0046c830 f   libdb41s:txn.obj
 0001:0006b8c0       ___txn_reset               0046c8c0 f   libdb41s:txn.obj
 0001:0006b900       ___txn_updateckp           0046c900 f   libdb41s:txn.obj
 0001:0006b970       ___txn_stat                0046c970 f   libdb41s:txn_stat.obj
 0001:0006bb60       ___txn_continue            0046cb60 f   libdb41s:txn_recover.obj
 0001:0006bbc0       ___txn_map_gid             0046cbc0 f   libdb41s:txn_recover.obj
 0001:0006bc70       ___txn_recover             0046cc70 f   libdb41s:txn_recover.obj
 0001:0006bd00       ___txn_get_prepared        0046cd00 f   libdb41s:txn_recover.obj
 0001:0006c160       ___rep_process_message     0046d160 f   libdb41s:rep_record.obj
 0001:0006df40       ___rep_process_txn         0046ef40 f   libdb41s:rep_record.obj
 0001:0006e410       ___rep_check_alloc         0046f410 f   libdb41s:rep_util.obj
 0001:0006e470       ___rep_send_message        0046f470 f   libdb41s:rep_util.obj
 0001:0006e580       ___rep_new_master          0046f580 f   libdb41s:rep_util.obj
 0001:0006e7e0       ___rep_lockpgno_init       0046f7e0 f   libdb41s:rep_util.obj
 0001:0006e880       ___rep_unlockpages         0046f880 f   libdb41s:rep_util.obj
 0001:0006e8b0       ___rep_lockpages           0046f8b0 f   libdb41s:rep_util.obj
 0001:0006ed10       ___rep_is_client           0046fd10 f   libdb41s:rep_util.obj
 0001:0006ed60       ___rep_send_vote           0046fd60 f   libdb41s:rep_util.obj
 0001:0006edd0       ___rep_grow_sites          0046fdd0 f   libdb41s:rep_util.obj
 0001:0006ee80       ___db_win32_mutex_init     0046fe80 f   libdb41s:mut_win32.obj
 0001:0006ef00       ___db_win32_mutex_lock     0046ff00 f   libdb41s:mut_win32.obj
 0001:0006efe0       ___db_win32_mutex_unlock   0046ffe0 f   libdb41s:mut_win32.obj
 0001:0006f070       ___db_win32_mutex_destroy  00470070 f   libdb41s:mut_win32.obj
 0001:0006f080       ___rep_region_init         00470080 f   libdb41s:rep_region.obj
 0001:0006f1f0       ___rep_region_destroy      004701f0 f   libdb41s:rep_region.obj
 0001:0006f240       ___rep_dbenv_close         00470240 f   libdb41s:rep_region.obj
 0001:0006f270       ___rep_preclose            00470270 f   libdb41s:rep_region.obj
 0001:0006f300       ___dbreg_add_dbentry       00470300 f   libdb41s:dbreg_util.obj
 0001:0006f3c0       ___dbreg_rem_dbentry       004703c0 f   libdb41s:dbreg_util.obj
 0001:0006f420       ___dbreg_open_files        00470420 f   libdb41s:dbreg_util.obj
 0001:0006f520       ___dbreg_close_files       00470520 f   libdb41s:dbreg_util.obj
 0001:0006f620       ___dbreg_nofiles           00470620 f   libdb41s:dbreg_util.obj
 0001:0006f6a0       ___dbreg_id_to_db          004706a0 f   libdb41s:dbreg_util.obj
 0001:0006f6d0       ___dbreg_id_to_db_int      004706d0 f   libdb41s:dbreg_util.obj
 0001:0006f7e0       ___dbreg_id_to_fname       004707e0 f   libdb41s:dbreg_util.obj
 0001:0006f860       ___dbreg_fid_to_fname      00470860 f   libdb41s:dbreg_util.obj
 0001:0006f900       ___dbreg_get_name          00470900 f   libdb41s:dbreg_util.obj
 0001:0006f950       ___dbreg_do_open           00470950 f   libdb41s:dbreg_util.obj
 0001:0006fb70       ___dbreg_lazy_id           00470b70 f   libdb41s:dbreg_util.obj
 0001:0006fbd0       ___dbreg_push_id           00470bd0 f   libdb41s:dbreg_util.obj
 0001:0006fcf0       ___dbreg_pop_id            00470cf0 f   libdb41s:dbreg_util.obj
 0001:0006fd40       ___dbreg_pluck_id          00470d40 f   libdb41s:dbreg_util.obj
 0001:0006fda0       ___db_dispatch             00470da0 f   libdb41s:db_dispatch.obj
 0001:000700a0       ___db_add_recovery         004710a0 f   libdb41s:db_dispatch.obj
 0001:00070100       ___db_txnlist_init         00471100 f   libdb41s:db_dispatch.obj
 0001:00070260       ___db_txnlist_add          00471260 f   libdb41s:db_dispatch.obj
 0001:00070330       ___db_txnlist_remove       00471330 f   libdb41s:db_dispatch.obj
 0001:00070360       ___db_txnlist_ckp          00471360 f   libdb41s:db_dispatch.obj
 0001:000703a0       ___db_txnlist_end          004713a0 f   libdb41s:db_dispatch.obj
 0001:00070440       ___db_txnlist_find         00471440 f   libdb41s:db_dispatch.obj
 0001:00070470       ___db_txnlist_update       00471470 f   libdb41s:db_dispatch.obj
 0001:00070650       ___db_txnlist_gen          00471650 f   libdb41s:db_dispatch.obj
 0001:000706f0       ___db_txnlist_lsnadd       004716f0 f   libdb41s:db_dispatch.obj
 0001:00070820       ___db_txnlist_lsninit      00471820 f   libdb41s:db_dispatch.obj
 0001:000708e0       ___db_add_limbo            004718e0 f   libdb41s:db_dispatch.obj
 0001:00070970       ___db_do_the_limbo         00471970 f   libdb41s:db_dispatch.obj
 0001:00071320       ___txn_regop_log           00472320 f   libdb41s:txn_auto.obj
 0001:00071460       ___txn_regop_getpgnos      00472460 f   libdb41s:txn_auto.obj
 0001:000714e0       ___txn_regop_print         004724e0 f   libdb41s:txn_auto.obj
 0001:00071570       ___txn_regop_read          00472570 f   libdb41s:txn_auto.obj
 0001:000715f0       ___txn_ckp_log             004725f0 f   libdb41s:txn_auto.obj
 0001:00071760       ___txn_ckp_getpgnos        00472760 f   libdb41s:txn_auto.obj
 0001:000717e0       ___txn_ckp_print           004727e0 f   libdb41s:txn_auto.obj
 0001:00071890       ___txn_ckp_read            00472890 f   libdb41s:txn_auto.obj
 0001:00071930       ___txn_child_log           00472930 f   libdb41s:txn_auto.obj
 0001:00071a80       ___txn_child_getpgnos      00472a80 f   libdb41s:txn_auto.obj
 0001:00071b00       ___txn_child_print         00472b00 f   libdb41s:txn_auto.obj
 0001:00071b90       ___txn_child_read          00472b90 f   libdb41s:txn_auto.obj
 0001:00071c20       ___txn_xa_regop_log        00472c20 f   libdb41s:txn_auto.obj
 0001:00071dc0       ___txn_xa_regop_getpgnos   00472dc0 f   libdb41s:txn_auto.obj
 0001:00071e40       ___txn_xa_regop_print      00472e40 f   libdb41s:txn_auto.obj
 0001:00071f90       ___txn_xa_regop_read       00472f90 f   libdb41s:txn_auto.obj
 0001:00072070       ___txn_recycle_log         00473070 f   libdb41s:txn_auto.obj
 0001:000721b0       ___txn_recycle_getpgnos    004731b0 f   libdb41s:txn_auto.obj
 0001:00072230       ___txn_recycle_print       00473230 f   libdb41s:txn_auto.obj
 0001:000722c0       ___txn_recycle_read        004732c0 f   libdb41s:txn_auto.obj
 0001:00072340       ___txn_init_print          00473340 f   libdb41s:txn_auto.obj
 0001:000723c0       ___txn_init_getpgnos       004733c0 f   libdb41s:txn_auto.obj
 0001:00072440       ___txn_init_recover        00473440 f   libdb41s:txn_auto.obj
 0001:000724c0       ___txn_regop_recover       004734c0 f   libdb41s:txn_rec.obj
 0001:00072630       ___txn_xa_regop_recover    00473630 f   libdb41s:txn_rec.obj
 0001:00072790       ___txn_ckp_recover         00473790 f   libdb41s:txn_rec.obj
 0001:000727f0       ___txn_child_recover       004737f0 f   libdb41s:txn_rec.obj
 0001:00072970       ___txn_restore_txn         00473970 f   libdb41s:txn_rec.obj
 0001:00072b40       ___txn_recycle_recover     00473b40 f   libdb41s:txn_rec.obj
 0001:00072bb0       _log_compare               00473bb0 f   libdb41s:log_compare.obj
 0001:00072be0       ___os_clock                00473be0 f   libdb41s:os_clock.obj
 0001:00072c30       ___os_id                   00473c30 f   libdb41s:os_id.obj
 0001:00072c40       ___os_sleep                00473c40 f   libdb41s:os_sleep.obj
 0001:00072ca0       ___memp_trickle            00473ca0 f   libdb41s:mp_trickle.obj
 0001:00072e00       ___memp_sync               00473e00 f   libdb41s:mp_sync.obj
 0001:00072f60       ___memp_fsync              00473f60 f   libdb41s:mp_sync.obj
 0001:00072fc0       ___mp_xxx_fh               00473fc0 f   libdb41s:mp_sync.obj
 0001:00072ff0       ___memp_sync_int           00473ff0 f   libdb41s:mp_sync.obj
 0001:00073820       ___memp_stat               00474820 f   libdb41s:mp_stat.obj
 0001:00073d60       ___memp_dump_region        00474d60 f   libdb41s:mp_stat.obj
 0001:000742b0       ___memp_stat_hash          004752b0 f   libdb41s:mp_stat.obj
 0001:00074360       ___memp_register           00475360 f   libdb41s:mp_register.obj
 0001:000744c0       ___memp_open               004754c0 f   libdb41s:mp_region.obj
 0001:00074b10       ___memp_dbenv_refresh      00475b10 f   libdb41s:mp_region.obj
 0001:00074bf0       ___mpool_region_destroy    00475bf0 f   libdb41s:mp_region.obj
 0001:00074c00       ___memp_nameop             00475c00 f   libdb41s:mp_region.obj
 0001:00074dc0       ___memp_fcreate            00475dc0 f   libdb41s:mp_fopen.obj
 0001:00075220       ___memp_fopen_int          00476220 f   libdb41s:mp_fopen.obj
 0001:00075c00       ___memp_fclose_int         00476c00 f   libdb41s:mp_fopen.obj
 0001:00075e60       ___memp_mf_discard         00476e60 f   libdb41s:mp_fopen.obj
 0001:00076040       ___memp_fn                 00477040 f   libdb41s:mp_fopen.obj
 0001:00076060       ___memp_fns                00477060 f   libdb41s:mp_fopen.obj
 0001:00076080       ___lock_id                 00477080 f   libdb41s:lock.obj
 0001:00076210       ___lock_id_free            00477210 f   libdb41s:lock.obj
 0001:00076300       ___lock_vec                00477300 f   libdb41s:lock.obj
 0001:000769d0       ___lock_get                004779d0 f   libdb41s:lock.obj
 0001:00077560       ___lock_put                00478560 f   libdb41s:lock.obj
 0001:000776d0       ___lock_downgrade          004786d0 f   libdb41s:lock.obj
 0001:00077c40       ___lock_addfamilylocker    00478c40 f   libdb41s:lock.obj
 0001:00077d80       ___lock_freefamilylocker   00478d80 f   libdb41s:lock.obj
 0001:00077f40       ___lock_set_timeout        00478f40 f   libdb41s:lock.obj
 0001:00078050       ___lock_inherit_timeout    00479050 f   libdb41s:lock.obj
 0001:00078150       ___lock_getlocker          00479150 f   libdb41s:lock.obj
 0001:00078520       ___lock_promote            00479520 f   libdb41s:lock.obj
 0001:00078870       ___lock_expired            00479870 f   libdb41s:lock.obj
 0001:000789d0       ___lock_stat               004799d0 f   libdb41s:lock_stat.obj
 0001:00078b80       ___lock_dump_region        00479b80 f   libdb41s:lock_stat.obj
 0001:00079070       ___lock_printlock          0047a070 f   libdb41s:lock_stat.obj
 0001:00079250       ___lock_detect             0047a250 f   libdb41s:lock_deadlock.obj
 0001:0007a370       ___log_open                0047b370 f   libdb41s:log.obj
 0001:0007a8c0       ___log_find                0047b8c0 f   libdb41s:log.obj
 0001:0007aaf0       ___log_valid               0047baf0 f   libdb41s:log.obj
 0001:0007ada0       ___log_dbenv_refresh       0047bda0 f   libdb41s:log.obj
 0001:0007ae40       ___log_stat                0047be40 f   libdb41s:log.obj
 0001:0007afe0       ___log_get_cached_ckp_lsn  0047bfe0 f   libdb41s:log.obj
 0001:0007b040       ___log_region_destroy      0047c040 f   libdb41s:log.obj
 0001:0007b050       ___log_vtruncate           0047c050 f   libdb41s:log.obj
 0001:0007b290       ___log_is_outdated         0047c290 f   libdb41s:log.obj
 0001:0007b4a0       ___log_put                 0047c4a0 f   libdb41s:log_put.obj
 0001:0007b830       ___log_txn_lsn             0047c830 f   libdb41s:log_put.obj
 0001:0007ba40       ___log_newfile             0047ca40 f   libdb41s:log_put.obj
 0001:0007bd80       ___log_flush               0047cd80 f   libdb41s:log_put.obj
 0001:0007c6e0       ___log_file                0047d6e0 f   libdb41s:log_put.obj
 0001:0007c880       ___log_name                0047d880 f   libdb41s:log_put.obj
 0001:0007c9c0       ___log_rep_put             0047d9c0 f   libdb41s:log_put.obj
 0001:0007cb40       ___log_cursor              0047db40 f   libdb41s:log_get.obj
 0001:0007db20       ___log_archive             0047eb20 f   libdb41s:log_archive.obj
 0001:0007e6e0       ___db_mutex_setup          0047f6e0 f   libdb41s:mutex.obj
 0001:0007e7a0       ___db_mutex_free           0047f7a0 f   libdb41s:mutex.obj
 0001:0007e7b0       ___db_apprec               0047f7b0 f   libdb41s:env_recover.obj
 0001:0007f5f0       ___env_openfiles           004805f0 f   libdb41s:env_recover.obj
 0001:0007f700       ___qam_incfirst_log        00480700 f   libdb41s:qam_auto.obj
 0001:0007f860       ___qam_incfirst_getpgnos   00480860 f   libdb41s:qam_auto.obj
 0001:0007f980       ___qam_incfirst_print      00480980 f   libdb41s:qam_auto.obj
 0001:0007fa20       ___qam_incfirst_read       00480a20 f   libdb41s:qam_auto.obj
 0001:0007fab0       ___qam_mvptr_log           00480ab0 f   libdb41s:qam_auto.obj
 0001:0007fc50       ___qam_mvptr_getpgnos      00480c50 f   libdb41s:qam_auto.obj
 0001:0007fd70       ___qam_mvptr_print         00480d70 f   libdb41s:qam_auto.obj
 0001:0007fe70       ___qam_mvptr_read          00480e70 f   libdb41s:qam_auto.obj
 0001:0007ff50       ___qam_del_log             00480f50 f   libdb41s:qam_auto.obj
 0001:000800e0       ___qam_del_getpgnos        004810e0 f   libdb41s:qam_auto.obj
 0001:00080200       ___qam_del_print           00481200 f   libdb41s:qam_auto.obj
 0001:000802d0       ___qam_del_read            004812d0 f   libdb41s:qam_auto.obj
 0001:00080380       ___qam_add_log             00481380 f   libdb41s:qam_auto.obj
 0001:00080580       ___qam_add_getpgnos        00481580 f   libdb41s:qam_auto.obj
 0001:000806a0       ___qam_add_print           004816a0 f   libdb41s:qam_auto.obj
 0001:00080880       ___qam_add_read            00481880 f   libdb41s:qam_auto.obj
 0001:000809a0       ___qam_delext_log          004819a0 f   libdb41s:qam_auto.obj
 0001:00080b60       ___qam_delext_getpgnos     00481b60 f   libdb41s:qam_auto.obj
 0001:00080be0       ___qam_delext_print        00481be0 f   libdb41s:qam_auto.obj
 0001:00080d30       ___qam_delext_read         00481d30 f   libdb41s:qam_auto.obj
 0001:00080e10       ___qam_init_print          00481e10 f   libdb41s:qam_auto.obj
 0001:00080e90       ___qam_init_getpgnos       00481e90 f   libdb41s:qam_auto.obj
 0001:00080f10       ___qam_init_recover        00481f10 f   libdb41s:qam_auto.obj
 0001:00080f90       ___ham_insdel_log          00481f90 f   libdb41s:hash_auto.obj
 0001:000811a0       ___ham_insdel_getpgnos     004821a0 f   libdb41s:hash_auto.obj
 0001:000812c0       ___ham_insdel_print        004822c0 f   libdb41s:hash_auto.obj
 0001:00081490       ___ham_insdel_read         00482490 f   libdb41s:hash_auto.obj
 0001:000815a0       ___ham_newpage_log         004825a0 f   libdb41s:hash_auto.obj
 0001:00081780       ___ham_newpage_getpgnos    00482780 f   libdb41s:hash_auto.obj
 0001:000819d0       ___ham_newpage_print       004829d0 f   libdb41s:hash_auto.obj
 0001:00081ae0       ___ham_newpage_read        00482ae0 f   libdb41s:hash_auto.obj
 0001:00081bd0       ___ham_splitdata_log       00482bd0 f   libdb41s:hash_auto.obj
 0001:00081d90       ___ham_splitdata_getpgnos  00482d90 f   libdb41s:hash_auto.obj
 0001:00081eb0       ___ham_splitdata_print     00482eb0 f   libdb41s:hash_auto.obj
 0001:00081ff0       ___ham_splitdata_read      00482ff0 f   libdb41s:hash_auto.obj
 0001:000820d0       ___ham_replace_log         004830d0 f   libdb41s:hash_auto.obj
 0001:000822e0       ___ham_replace_getpgnos    004832e0 f   libdb41s:hash_auto.obj
 0001:00082400       ___ham_replace_print       00483400 f   libdb41s:hash_auto.obj
 0001:000825f0       ___ham_replace_read        004835f0 f   libdb41s:hash_auto.obj
 0001:00082710       ___ham_copypage_log        00483710 f   libdb41s:hash_auto.obj
 0001:00082910       ___ham_copypage_getpgnos   00483910 f   libdb41s:hash_auto.obj
 0001:00082b40       ___ham_copypage_print      00483b40 f   libdb41s:hash_auto.obj
 0001:00082cc0       ___ham_copypage_read       00483cc0 f   libdb41s:hash_auto.obj
 0001:00082dd0       ___ham_metagroup_log       00483dd0 f   libdb41s:hash_auto.obj
 0001:00082fb0       ___ham_metagroup_getpgnos  00483fb0 f   libdb41s:hash_auto.obj
 0001:000831f0       ___ham_metagroup_print     004841f0 f   libdb41s:hash_auto.obj
 0001:00083310       ___ham_metagroup_read      00484310 f   libdb41s:hash_auto.obj
 0001:00083410       ___ham_groupalloc_log      00484410 f   libdb41s:hash_auto.obj
 0001:000835a0       ___ham_groupalloc_getpgnos 004845a0 f   libdb41s:hash_auto.obj
 0001:000836c0       ___ham_groupalloc_print    004846c0 f   libdb41s:hash_auto.obj
 0001:00083790       ___ham_groupalloc_read     00484790 f   libdb41s:hash_auto.obj
 0001:00083840       ___ham_curadj_log          00484840 f   libdb41s:hash_auto.obj
 0001:000839d0       ___ham_curadj_getpgnos     004849d0 f   libdb41s:hash_auto.obj
 0001:00083a50       ___ham_curadj_print        00484a50 f   libdb41s:hash_auto.obj
 0001:00083b50       ___ham_curadj_read         00484b50 f   libdb41s:hash_auto.obj
 0001:00083c20       ___ham_chgpg_log           00484c20 f   libdb41s:hash_auto.obj
 0001:00083da0       ___ham_chgpg_getpgnos      00484da0 f   libdb41s:hash_auto.obj
 0001:00083e20       ___ham_chgpg_print         00484e20 f   libdb41s:hash_auto.obj
 0001:00083f00       ___ham_chgpg_read          00484f00 f   libdb41s:hash_auto.obj
 0001:00083fc0       ___ham_init_print          00484fc0 f   libdb41s:hash_auto.obj
 0001:000840b0       ___ham_init_getpgnos       004850b0 f   libdb41s:hash_auto.obj
 0001:000841a0       ___ham_init_recover        004851a0 f   libdb41s:hash_auto.obj
 0001:00084290       ___fop_create_log          00485290 f   libdb41s:fileops_auto.obj
 0001:00084400       ___fop_create_getpgnos     00485400 f   libdb41s:fileops_auto.obj
 0001:00084480       ___fop_create_print        00485480 f   libdb41s:fileops_auto.obj
 0001:00084590       ___fop_create_read         00485590 f   libdb41s:fileops_auto.obj
 0001:00084640       ___fop_remove_log          00485640 f   libdb41s:fileops_auto.obj
 0001:00084800       ___fop_remove_getpgnos     00485800 f   libdb41s:fileops_auto.obj
 0001:00084880       ___fop_remove_print        00485880 f   libdb41s:fileops_auto.obj
 0001:00084a00       ___fop_remove_read         00485a00 f   libdb41s:fileops_auto.obj
 0001:00084ad0       ___fop_write_log           00485ad0 f   libdb41s:fileops_auto.obj
 0001:00084ca0       ___fop_write_getpgnos      00485ca0 f   libdb41s:fileops_auto.obj
 0001:00084d20       ___fop_write_print         00485d20 f   libdb41s:fileops_auto.obj
 0001:00084ed0       ___fop_write_read          00485ed0 f   libdb41s:fileops_auto.obj
 0001:00084fb0       ___fop_rename_log          00485fb0 f   libdb41s:fileops_auto.obj
 0001:000851c0       ___fop_rename_getpgnos     004861c0 f   libdb41s:fileops_auto.obj
 0001:00085240       ___fop_rename_print        00486240 f   libdb41s:fileops_auto.obj
 0001:00085440       ___fop_rename_read         00486440 f   libdb41s:fileops_auto.obj
 0001:00085540       ___fop_file_remove_log     00486540 f   libdb41s:fileops_auto.obj
 0001:00085750       ___fop_file_remove_getpgnos 00486750 f   libdb41s:fileops_auto.obj
 0001:000857d0       ___fop_file_remove_print   004867d0 f   libdb41s:fileops_auto.obj
 0001:000859e0       ___fop_file_remove_read    004869e0 f   libdb41s:fileops_auto.obj
 0001:00085ae0       ___fop_init_print          00486ae0 f   libdb41s:fileops_auto.obj
 0001:00085b70       ___fop_init_getpgnos       00486b70 f   libdb41s:fileops_auto.obj
 0001:00085c00       ___fop_init_recover        00486c00 f   libdb41s:fileops_auto.obj
 0001:00085c90       ___dbreg_register_log      00486c90 f   libdb41s:dbreg_auto.obj
 0001:00085e70       ___dbreg_register_getpgnos 00486e70 f   libdb41s:dbreg_auto.obj
 0001:00085ef0       ___dbreg_register_print    00486ef0 f   libdb41s:dbreg_auto.obj
 0001:000860c0       ___dbreg_register_read     004870c0 f   libdb41s:dbreg_auto.obj
 0001:000861c0       ___dbreg_init_print        004871c0 f   libdb41s:dbreg_auto.obj
 0001:000861e0       ___dbreg_init_getpgnos     004871e0 f   libdb41s:dbreg_auto.obj
 0001:00086200       ___dbreg_init_recover      00487200 f   libdb41s:dbreg_auto.obj
 0001:00086220       ___db_addrem_log           00487220 f   libdb41s:db_auto.obj
 0001:00086440       ___db_addrem_getpgnos      00487440 f   libdb41s:db_auto.obj
 0001:00086560       ___db_addrem_print         00487560 f   libdb41s:db_auto.obj
 0001:00086740       ___db_addrem_read          00487740 f   libdb41s:db_auto.obj
 0001:00086860       ___db_big_log              00487860 f   libdb41s:db_auto.obj
 0001:00086a70       ___db_big_getpgnos         00487a70 f   libdb41s:db_auto.obj
 0001:00086cc0       ___db_big_print            00487cc0 f   libdb41s:db_auto.obj
 0001:00086e50       ___db_big_read             00487e50 f   libdb41s:db_auto.obj
 0001:00086f70       ___db_ovref_log            00487f70 f   libdb41s:db_auto.obj
 0001:000870f0       ___db_ovref_getpgnos       004880f0 f   libdb41s:db_auto.obj
 0001:00087210       ___db_ovref_print          00488210 f   libdb41s:db_auto.obj
 0001:000872d0       ___db_ovref_read           004882d0 f   libdb41s:db_auto.obj
 0001:00087380       ___db_relink_log           00488380 f   libdb41s:db_auto.obj
 0001:00087560       ___db_relink_getpgnos      00488560 f   libdb41s:db_auto.obj
 0001:000877b0       ___db_relink_print         004887b0 f   libdb41s:db_auto.obj
 0001:000878c0       ___db_relink_read          004888c0 f   libdb41s:db_auto.obj
 0001:000879b0       ___db_debug_log            004889b0 f   libdb41s:db_auto.obj
 0001:00087b90       ___db_debug_getpgnos       00488b90 f   libdb41s:db_auto.obj
 0001:00087c10       ___db_debug_print          00488c10 f   libdb41s:db_auto.obj
 0001:00087e20       ___db_debug_read           00488e20 f   libdb41s:db_auto.obj
 0001:00087f20       ___db_noop_log             00488f20 f   libdb41s:db_auto.obj
 0001:00088090       ___db_noop_getpgnos        00489090 f   libdb41s:db_auto.obj
 0001:000881b0       ___db_noop_print           004891b0 f   libdb41s:db_auto.obj
 0001:00088250       ___db_noop_read            00489250 f   libdb41s:db_auto.obj
 0001:000882f0       ___db_pg_alloc_log         004892f0 f   libdb41s:db_auto.obj
 0001:000884a0       ___db_pg_alloc_getpgnos    004894a0 f   libdb41s:db_auto.obj
 0001:00088650       ___db_pg_alloc_print       00489650 f   libdb41s:db_auto.obj
 0001:00088750       ___db_pg_alloc_read        00489750 f   libdb41s:db_auto.obj
 0001:00088830       ___db_pg_free_log          00489830 f   libdb41s:db_auto.obj
 0001:000889f0       ___db_pg_free_getpgnos     004899f0 f   libdb41s:db_auto.obj
 0001:00088ba0       ___db_pg_free_print        00489ba0 f   libdb41s:db_auto.obj
 0001:00088cf0       ___db_pg_free_read         00489cf0 f   libdb41s:db_auto.obj
 0001:00088dd0       ___db_cksum_log            00489dd0 f   libdb41s:db_auto.obj
 0001:00088f00       ___db_cksum_getpgnos       00489f00 f   libdb41s:db_auto.obj
 0001:00088f80       ___db_cksum_print          00489f80 f   libdb41s:db_auto.obj
 0001:00088ff0       ___db_cksum_read           00489ff0 f   libdb41s:db_auto.obj
 0001:00089050       ___db_init_print           0048a050 f   libdb41s:db_auto.obj
 0001:00089140       ___db_init_getpgnos        0048a140 f   libdb41s:db_auto.obj
 0001:00089230       ___db_init_recover         0048a230 f   libdb41s:db_auto.obj
 0001:00089320       ___crdel_metasub_log       0048a320 f   libdb41s:crdel_auto.obj
 0001:000894d0       ___crdel_metasub_getpgnos  0048a4d0 f   libdb41s:crdel_auto.obj
 0001:000895f0       ___crdel_metasub_print     0048a5f0 f   libdb41s:crdel_auto.obj
 0001:00089720       ___crdel_metasub_read      0048a720 f   libdb41s:crdel_auto.obj
 0001:000897f0       ___crdel_init_print        0048a7f0 f   libdb41s:crdel_auto.obj
 0001:00089820       ___crdel_init_getpgnos     0048a820 f   libdb41s:crdel_auto.obj
 0001:00089850       ___crdel_init_recover      0048a850 f   libdb41s:crdel_auto.obj
 0001:00089880       ___bam_split_log           0048a880 f   libdb41s:btree_auto.obj
 0001:00089ab0       ___bam_split_getpgnos      0048aab0 f   libdb41s:btree_auto.obj
 0001:00089ce0       ___bam_split_print         0048ace0 f   libdb41s:btree_auto.obj
 0001:00089e90       ___bam_split_read          0048ae90 f   libdb41s:btree_auto.obj
 0001:00089fd0       ___bam_rsplit_log          0048afd0 f   libdb41s:btree_auto.obj
 0001:0008a1e0       ___bam_rsplit_getpgnos     0048b1e0 f   libdb41s:btree_auto.obj
 0001:0008a390       ___bam_rsplit_print        0048b390 f   libdb41s:btree_auto.obj
 0001:0008a560       ___bam_rsplit_read         0048b560 f   libdb41s:btree_auto.obj
 0001:0008a670       ___bam_adj_log             0048b670 f   libdb41s:btree_auto.obj
 0001:0008a800       ___bam_adj_getpgnos        0048b800 f   libdb41s:btree_auto.obj
 0001:0008a920       ___bam_adj_print           0048b920 f   libdb41s:btree_auto.obj
 0001:0008aa00       ___bam_adj_read            0048ba00 f   libdb41s:btree_auto.obj
 0001:0008aac0       ___bam_cadjust_log         0048bac0 f   libdb41s:btree_auto.obj
 0001:0008ac50       ___bam_cadjust_getpgnos    0048bc50 f   libdb41s:btree_auto.obj
 0001:0008ad70       ___bam_cadjust_print       0048bd70 f   libdb41s:btree_auto.obj
 0001:0008ae50       ___bam_cadjust_read        0048be50 f   libdb41s:btree_auto.obj
 0001:0008af10       ___bam_cdel_log            0048bf10 f   libdb41s:btree_auto.obj
 0001:0008b090       ___bam_cdel_getpgnos       0048c090 f   libdb41s:btree_auto.obj
 0001:0008b1b0       ___bam_cdel_print          0048c1b0 f   libdb41s:btree_auto.obj
 0001:0008b270       ___bam_cdel_read           0048c270 f   libdb41s:btree_auto.obj
 0001:0008b320       ___bam_repl_log            0048c320 f   libdb41s:btree_auto.obj
 0001:0008b530       ___bam_repl_getpgnos       0048c530 f   libdb41s:btree_auto.obj
 0001:0008b650       ___bam_repl_print          0048c650 f   libdb41s:btree_auto.obj
 0001:0008b850       ___bam_repl_read           0048c850 f   libdb41s:btree_auto.obj
 0001:0008b970       ___bam_root_log            0048c970 f   libdb41s:btree_auto.obj
 0001:0008baf0       ___bam_root_getpgnos       0048caf0 f   libdb41s:btree_auto.obj
 0001:0008bca0       ___bam_root_print          0048cca0 f   libdb41s:btree_auto.obj
 0001:0008bd60       ___bam_root_read           0048cd60 f   libdb41s:btree_auto.obj
 0001:0008be10       ___bam_curadj_log          0048ce10 f   libdb41s:btree_auto.obj
 0001:0008bfa0       ___bam_curadj_getpgnos     0048cfa0 f   libdb41s:btree_auto.obj
 0001:0008c020       ___bam_curadj_print        0048d020 f   libdb41s:btree_auto.obj
 0001:0008c120       ___bam_curadj_read         0048d120 f   libdb41s:btree_auto.obj
 0001:0008c1f0       ___bam_rcuradj_log         0048d1f0 f   libdb41s:btree_auto.obj
 0001:0008c370       ___bam_rcuradj_getpgnos    0048d370 f   libdb41s:btree_auto.obj
 0001:0008c3f0       ___bam_rcuradj_print       0048d3f0 f   libdb41s:btree_auto.obj
 0001:0008c4c0       ___bam_rcuradj_read        0048d4c0 f   libdb41s:btree_auto.obj
 0001:0008c570       ___bam_init_print          0048d570 f   libdb41s:btree_auto.obj
 0001:0008c660       ___bam_init_getpgnos       0048d660 f   libdb41s:btree_auto.obj
 0001:0008c750       ___bam_init_recover        0048d750 f   libdb41s:btree_auto.obj
 0001:0008c840       ___txn_open                0048d840 f   libdb41s:txn_region.obj
 0001:0008cbb0       ___txn_dbenv_refresh       0048dbb0 f   libdb41s:txn_region.obj
 0001:0008ccc0       ___txn_region_destroy      0048dcc0 f   libdb41s:txn_region.obj
 0001:0008ccd0       ___lock_open               0048dcd0 f   libdb41s:lock_region.obj
 0001:0008d280       ___lock_dbenv_refresh      0048e280 f   libdb41s:lock_region.obj
 0001:0008d370       ___lock_region_destroy     0048e370 f   libdb41s:lock_region.obj
 0001:0008d380       ___db_e_attach             0048e380 f   libdb41s:env_region.obj
 0001:0008dac0       ___db_e_detach             0048eac0 f   libdb41s:env_region.obj
 0001:0008dba0       ___db_e_remove             0048eba0 f   libdb41s:env_region.obj
 0001:0008e020       ___db_e_stat               0048f020 f   libdb41s:env_region.obj
 0001:0008e120       ___db_r_attach             0048f120 f   libdb41s:env_region.obj
 0001:0008e2b0       ___db_r_detach             0048f2b0 f   libdb41s:env_region.obj
 0001:0008e640       ___db_oflags               0048f640 f   libdb41s:os_oflags.obj
 0001:0008e670       ___db_omode                0048f670 f   libdb41s:os_oflags.obj
 0001:0008e690       ___os_tmpdir               0048f690 f   libdb41s:os_tmpdir.obj
 0001:0008e880       ___os_exists               0048f880 f   libdb41s:os_stat.obj
 0001:0008e8e0       ___os_ioinfo               0048f8e0 f   libdb41s:os_stat.obj
 0001:0008e9d0       ___os_abspath              0048f9d0 f   libdb41s:os_abs.obj
 0001:0008ea30       ___os_isroot               0048fa30 f   libdb41s:os_root.obj
 0001:0008ea40       ___db_Cstrcasecmp          0048fa40 f   libdb41s:strcasecmp.obj
 0001:0008eab0       ___db_Cstrncasecmp         0048fab0 f   libdb41s:strcasecmp.obj
 0001:0008eb30       ___os_open                 0048fb30 f   libdb41s:os_open.obj
 0001:0008ee30       ___db_cursorchk            0048fe30 f   libdb41s:db_iface.obj
 0001:0008ef20       ___db_ccountchk            0048ff20 f   libdb41s:db_iface.obj
 0001:0008ef60       ___db_cdelchk              0048ff60 f   libdb41s:db_iface.obj
 0001:0008efd0       ___db_cgetchk              0048ffd0 f   libdb41s:db_iface.obj
 0001:0008f1d0       ___db_cputchk              004901d0 f   libdb41s:db_iface.obj
 0001:0008f340       ___db_pgetchk              00490340 f   libdb41s:db_iface.obj
 0001:0008f400       ___db_cpgetchk             00490400 f   libdb41s:db_iface.obj
 0001:0008f500       ___db_delchk               00490500 f   libdb41s:db_iface.obj
 0001:0008f560       ___db_getchk               00490560 f   libdb41s:db_iface.obj
 0001:0008f700       ___db_joinchk              00490700 f   libdb41s:db_iface.obj
 0001:0008f790       ___db_joingetchk           00490790 f   libdb41s:db_iface.obj
 0001:0008f810       ___db_putchk               00490810 f   libdb41s:db_iface.obj
 0001:0008f950       ___db_statchk              00490950 f   libdb41s:db_iface.obj
 0001:0008f9d0       ___db_syncchk              004909d0 f   libdb41s:db_iface.obj
 0001:0008fb20       ___db_secondary_corrupt    00490b20 f   libdb41s:db_iface.obj
 0001:0008fb40       ___db_associatechk         00490b40 f   libdb41s:db_iface.obj
 0001:0008fc10       ___db_txn_auto             00490c10 f   libdb41s:db_iface.obj
 0001:0008fc70       ___fop_lock_handle         00490c70 f   libdb41s:fop_util.obj
 0001:0008fe00       ___fop_file_setup          00490e00 f   libdb41s:fop_util.obj
 0001:000907e0       ___fop_subdb_setup         004917e0 f   libdb41s:fop_util.obj
 0001:00090a20       ___fop_remove_setup        00491a20 f   libdb41s:fop_util.obj
 0001:00090b90       ___fop_read_meta           00491b90 f   libdb41s:fop_util.obj
 0001:00090c90       ___fop_dummy               00491c90 f   libdb41s:fop_util.obj
 0001:00091090       ___fop_dbrename            00492090 f   libdb41s:fop_util.obj
 0001:000911c0       ___fop_create              004921c0 f   libdb41s:fop_basic.obj
 0001:00091300       ___fop_remove              00492300 f   libdb41s:fop_basic.obj
 0001:00091420       ___fop_write               00492420 f   libdb41s:fop_basic.obj
 0001:000915b0       ___fop_rename              004925b0 f   libdb41s:fop_basic.obj
 0001:00091710       ___bam_reclaim             00492710 f   libdb41s:bt_reclaim.obj
 0001:00091770       ___bam_truncate            00492770 f   libdb41s:bt_reclaim.obj
 0001:000917f0       ___ham_reclaim             004927f0 f   libdb41s:hash_reclaim.obj
 0001:000918a0       ___ham_truncate            004928a0 f   libdb41s:hash_reclaim.obj
 0001:00091970       ___qam_fprobe              00492970 f   libdb41s:qam_files.obj
 0001:00091eb0       ___qam_fclose              00492eb0 f   libdb41s:qam_files.obj
 0001:00091f40       ___qam_fremove             00492f40 f   libdb41s:qam_files.obj
 0001:00092050       ___qam_sync                00493050 f   libdb41s:qam_files.obj
 0001:00092220       ___qam_gen_filelist        00493220 f   libdb41s:qam_files.obj
 0001:00092370       ___qam_extent_names        00493370 f   libdb41s:qam_files.obj
 0001:00092560       ___qam_exid                00493560 f   libdb41s:qam_files.obj
 0001:00092590       ___db_loadme               00493590 f   libdb41s:db_pr.obj
 0001:000925a0       ___db_dump                 004935a0 f   libdb41s:db_pr.obj
 0001:00092650       ___db_inmemdbflags         00493650 f   libdb41s:db_pr.obj
 0001:000928c0       ___db_prnpage              004938c0 f   libdb41s:db_pr.obj
 0001:00092920       ___db_prpage               00493920 f   libdb41s:db_pr.obj
 0001:00093530       ___db_pr                   00494530 f   libdb41s:db_pr.obj
 0001:00093630       ___db_prdbt                00494630 f   libdb41s:db_pr.obj
 0001:000938f0       ___db_prflags              004948f0 f   libdb41s:db_pr.obj
 0001:00093950       ___db_dbtype_to_string     00494950 f   libdb41s:db_pr.obj
 0001:00093a20       ___db_prheader             00494a20 f   libdb41s:db_pr.obj
 0001:00094180       ___db_prfooter             00495180 f   libdb41s:db_pr.obj
 0001:000941a0       ___txn_remevent            004951a0 f   libdb41s:txn_util.obj
 0001:00094270       ___txn_lockevent           00495270 f   libdb41s:txn_util.obj
 0001:00094310       ___txn_remlock             00495310 f   libdb41s:txn_util.obj
 0001:00094380       ___txn_doevents            00495380 f   libdb41s:txn_util.obj
 0001:00094590       ___db_rpath                00495590 f   libdb41s:os_rpath.obj
 0001:000945f0       ___bam_cmp                 004955f0 f   libdb41s:bt_compare.obj
 0001:00094770       ___bam_defcmp              00495770 f   libdb41s:bt_compare.obj
 0001:000947c0       ___bam_defpfx              004957c0 f   libdb41s:bt_compare.obj
 0001:00094820       ___db_vrfy_dbinfo_create   00495820 f   libdb41s:db_vrfyutil.obj
 0001:000949b0       ___db_vrfy_dbinfo_destroy  004959b0 f   libdb41s:db_vrfyutil.obj
 0001:00094a30       ___db_vrfy_getpageinfo     00495a30 f   libdb41s:db_vrfyutil.obj
 0001:00094b40       ___db_vrfy_putpageinfo     00495b40 f   libdb41s:db_vrfyutil.obj
 0001:00094bf0       ___db_vrfy_pgset           00495bf0 f   libdb41s:db_vrfyutil.obj
 0001:00094c70       ___db_vrfy_pgset_get       00495c70 f   libdb41s:db_vrfyutil.obj
 0001:00094d00       ___db_vrfy_pgset_inc       00495d00 f   libdb41s:db_vrfyutil.obj
 0001:00094d20       ___db_vrfy_pgset_dec       00495d20 f   libdb41s:db_vrfyutil.obj
 0001:00094df0       ___db_vrfy_pgset_next      00495df0 f   libdb41s:db_vrfyutil.obj
 0001:00094e60       ___db_vrfy_childcursor     00495e60 f   libdb41s:db_vrfyutil.obj
 0001:00094e90       ___db_vrfy_childput        00495e90 f   libdb41s:db_vrfyutil.obj
 0001:00094f90       ___db_vrfy_ccset           00495f90 f   libdb41s:db_vrfyutil.obj
 0001:00094ff0       ___db_vrfy_ccnext          00495ff0 f   libdb41s:db_vrfyutil.obj
 0001:00095040       ___db_vrfy_ccclose         00496040 f   libdb41s:db_vrfyutil.obj
 0001:00095090       ___db_salvage_init         00496090 f   libdb41s:db_vrfyutil.obj
 0001:00095110       ___db_salvage_destroy      00496110 f   libdb41s:db_vrfyutil.obj
 0001:00095130       ___db_salvage_getnext      00496130 f   libdb41s:db_vrfyutil.obj
 0001:00095200       ___db_salvage_isdone       00496200 f   libdb41s:db_vrfyutil.obj
 0001:000952a0       ___db_salvage_markdone     004962a0 f   libdb41s:db_vrfyutil.obj
 0001:00095350       ___db_salvage_markneeded   00496350 f   libdb41s:db_vrfyutil.obj
 0001:000953c0       ___os_openhandle           004963c0 f   libdb41s:os_handle.obj
 0001:00095490       ___os_closehandle          00496490 f   libdb41s:os_handle.obj
 0001:00095510       ___os_io                   00496510 f   libdb41s:os_rw.obj
 0001:00095660       ___os_read                 00496660 f   libdb41s:os_rw.obj
 0001:00095720       ___os_write                00496720 f   libdb41s:os_rw.obj
 0001:00095a60       ___os_seek                 00496a60 f   libdb41s:os_seek.obj
 0001:00095bc0       ___qam_vrfy_meta           00496bc0 f   libdb41s:qam_verify.obj
 0001:00095d00       ___qam_vrfy_data           00496d00 f   libdb41s:qam_verify.obj
 0001:00095db0       ___qam_vrfy_structure      00496db0 f   libdb41s:qam_verify.obj
 0001:00095ef0       ___bam_vrfy_meta           00496ef0 f   libdb41s:bt_verify.obj
 0001:00096240       ___ram_vrfy_leaf           00497240 f   libdb41s:bt_verify.obj
 0001:00096460       ___bam_vrfy                00497460 f   libdb41s:bt_verify.obj
 0001:00096fa0       ___bam_vrfy_itemorder      00497fa0 f   libdb41s:bt_verify.obj
 0001:00097480       ___bam_vrfy_structure      00498480 f   libdb41s:bt_verify.obj
 0001:000976f0       ___bam_vrfy_subtree        004986f0 f   libdb41s:bt_verify.obj
 0001:000985d0       ___bam_salvage             004995d0 f   libdb41s:bt_verify.obj
 0001:00098a10       ___bam_salvage_walkdupint  00499a10 f   libdb41s:bt_verify.obj
 0001:00098b30       ___bam_meta2pgset          00499b30 f   libdb41s:bt_verify.obj
 0001:00098de0       ___ham_vrfy_meta           00499de0 f   libdb41s:hash_verify.obj
 0001:00099080       ___ham_vrfy                0049a080 f   libdb41s:hash_verify.obj
 0001:00099660       ___ham_vrfy_structure      0049a660 f   libdb41s:hash_verify.obj
 0001:00099d90       ___ham_vrfy_hashing        0049ad90 f   libdb41s:hash_verify.obj
 0001:00099ed0       ___ham_salvage             0049aed0 f   libdb41s:hash_verify.obj
 0001:0009a2e0       ___ham_meta2pgset          0049b2e0 f   libdb41s:hash_verify.obj
 0001:0009a4c0       ___db_goff                 0049b4c0 f   libdb41s:db_overflow.obj
 0001:0009a6a0       ___db_poff                 0049b6a0 f   libdb41s:db_overflow.obj
 0001:0009a920       ___db_ovref                0049b920 f   libdb41s:db_overflow.obj
 0001:0009a9f0       ___db_doff                 0049b9f0 f   libdb41s:db_overflow.obj
 0001:0009ab70       ___db_moff                 0049bb70 f   libdb41s:db_overflow.obj
 0001:0009ad00       ___db_vrfy_overflow        0049bd00 f   libdb41s:db_overflow.obj
 0001:0009ade0       ___db_vrfy_ovfl_structure  0049bde0 f   libdb41s:db_overflow.obj
 0001:0009b090       ___db_safe_goff            0049c090 f   libdb41s:db_overflow.obj
 0001:0009b270       ___db_c_close              0049c270 f   libdb41s:db_cam.obj
 0001:0009b490       ___db_c_destroy            0049c490 f   libdb41s:db_cam.obj
 0001:0009b570       ___db_c_count              0049c570 f   libdb41s:db_cam.obj
 0001:0009b650       ___db_c_del                0049c650 f   libdb41s:db_cam.obj
 0001:0009b7b0       ___db_c_dup                0049c7b0 f   libdb41s:db_cam.obj
 0001:0009b910       ___db_c_idup               0049c910 f   libdb41s:db_cam.obj
 0001:0009bad0       ___db_c_newopd             0049cad0 f   libdb41s:db_cam.obj
 0001:0009bb90       ___db_c_get                0049cb90 f   libdb41s:db_cam.obj
 0001:0009c260       ___db_c_put                0049d260 f   libdb41s:db_cam.obj
 0001:0009cd30       ___db_duperr               0049dd30 f   libdb41s:db_cam.obj
 0001:0009ce90       ___db_c_secondary_get      0049de90 f   libdb41s:db_cam.obj
 0001:0009ceb0       ___db_c_pget               0049deb0 f   libdb41s:db_cam.obj
 0001:0009d3c0       ___db_c_del_primary        0049e3c0 f   libdb41s:db_cam.obj
 0001:0009d5e0       ___db_s_first              0049e5e0 f   libdb41s:db_cam.obj
 0001:0009d630       ___db_s_next               0049e630 f   libdb41s:db_cam.obj
 0001:0009d6e0       ___db_s_done               0049e6e0 f   libdb41s:db_cam.obj
 0001:0009d880       ___db_partsize             0049e880 f   libdb41s:db_cam.obj
 0001:0009d8b0       ___db_log2                 0049e8b0 f   libdb41s:db_log2.obj
 0001:0009d8d0       ___ham_func2               0049e8d0 f   libdb41s:hash_func.obj
 0001:0009d910       ___ham_func3               0049e910 f   libdb41s:hash_func.obj
 0001:0009da10       ___ham_func4               0049ea10 f   libdb41s:hash_func.obj
 0001:0009dad0       ___ham_func5               0049ead0 f   libdb41s:hash_func.obj
 0001:0009db00       ___ham_test                0049eb00 f   libdb41s:hash_func.obj
 0001:0009db10       ___bam_30_btreemeta        0049eb10 f   libdb41s:bt_upgrade.obj
 0001:0009db70       ___bam_31_btreemeta        0049eb70 f   libdb41s:bt_upgrade.obj
 0001:0009dbf0       ___bam_31_lbtree           0049ebf0 f   libdb41s:bt_upgrade.obj
 0001:0009dd30       ___ham_30_hashmeta         0049ed30 f   libdb41s:hash_upgrade.obj
 0001:0009de50       ___ham_30_sizefix          0049ee50 f   libdb41s:hash_upgrade.obj
 0001:0009df00       ___ham_31_hashmeta         0049ef00 f   libdb41s:hash_upgrade.obj
 0001:0009dfa0       ___ham_31_hash             0049efa0 f   libdb41s:hash_upgrade.obj
 0001:0009e040       ___os_fsync                0049f040 f   libdb41s:os_fsync.obj
 0001:0009e0c0       ___qam_31_qammeta          0049f0c0 f   libdb41s:qam_upgrade.obj
 0001:0009e120       ___qam_32_qammeta          0049f120 f   libdb41s:qam_upgrade.obj
 0001:0009e170       ___bam_c_init              0049f170 f   libdb41s:bt_cursor.obj
 0001:0009e280       ___bam_c_refresh           0049f280 f   libdb41s:bt_cursor.obj
 0001:0009e800       ___bam_c_count             0049f800 f   libdb41s:bt_cursor.obj
 0001:0009ec20       ___bam_c_dup               0049fc20 f   libdb41s:bt_cursor.obj
 0001:0009fba0       ___bam_bulk_overflow       004a0ba0 f   libdb41s:bt_cursor.obj
 0001:0009fbf0       ___bam_bulk_duplicates     004a0bf0 f   libdb41s:bt_cursor.obj
 0001:000a0c50       ___bam_c_rget              004a1c50 f   libdb41s:bt_cursor.obj
 0001:000a1fc0       ___qam_position            004a2fc0 f   libdb41s:qam.obj
 0001:000a2140       ___qam_pitem               004a3140 f   libdb41s:qam.obj
 0001:000a2420       ___qam_append              004a3420 f   libdb41s:qam.obj
 0001:000a2780       ___qam_c_dup               004a3780 f   libdb41s:qam.obj
 0001:000a27f0       ___qam_c_init              004a37f0 f   libdb41s:qam.obj
 0001:000a44a0       ___qam_truncate            004a54a0 f   libdb41s:qam.obj
 0001:000a4680       ___ham_quick_delete        004a5680 f   libdb41s:hash.obj
 0001:000a46c0       ___ham_c_init              004a56c0 f   libdb41s:hash.obj
 0001:000a4930       ___ham_c_count             004a5930 f   libdb41s:hash.obj
 0001:000a4d00       ___ham_c_dup               004a5d00 f   libdb41s:hash.obj
 0001:000a62e0       ___ham_call_hash           004a72e0 f   libdb41s:hash.obj
 0001:000a6e80       ___ham_init_dbt            004a7e80 f   libdb41s:hash.obj
 0001:000a6ee0       ___ham_c_update            004a7ee0 f   libdb41s:hash.obj
 0001:000a72f0       ___ham_get_clist           004a82f0 f   libdb41s:hash.obj
 0001:000a7560       ___ram_open                004a8560 f   libdb41s:bt_recno.obj
 0001:000a7610       ___ram_append              004a8610 f   libdb41s:bt_recno.obj
 0001:000a7680       ___ram_c_del               004a8680 f   libdb41s:bt_recno.obj
 0001:000a7910       ___ram_c_get               004a8910 f   libdb41s:bt_recno.obj
 0001:000a7d70       ___ram_c_put               004a8d70 f   libdb41s:bt_recno.obj
 0001:000a81f0       ___ram_ca                  004a91f0 f   libdb41s:bt_recno.obj
 0001:000a8650       ___ram_getno               004a9650 f   libdb41s:bt_recno.obj
 0001:000a8800       ___ram_writeback           004a9800 f   libdb41s:bt_recno.obj
 0001:000a8e10       ___db_new                  004a9e10 f   libdb41s:db_meta.obj
 0001:000a9120       ___db_free                 004aa120 f   libdb41s:db_meta.obj
 0001:000a9310       ___db_lget                 004aa310 f   libdb41s:db_meta.obj
 0001:000a9560       ___db_lput                 004aa560 f   libdb41s:db_meta.obj
 0001:000a95e0       ___dbreg_setup             004aa5e0 f   libdb41s:dbreg.obj
 0001:000a9750       ___dbreg_teardown          004aa750 f   libdb41s:dbreg.obj
 0001:000a97c0       ___dbreg_new_id            004aa7c0 f   libdb41s:dbreg.obj
 0001:000a9950       ___dbreg_assign_id         004aa950 f   libdb41s:dbreg.obj
 0001:000a9a90       ___dbreg_revoke_id         004aaa90 f   libdb41s:dbreg.obj
 0001:000a9b50       ___dbreg_close_id          004aab50 f   libdb41s:dbreg.obj
 0001:000a9c50       ___db_pgin                 004aac50 f   libdb41s:db_conv.obj
 0001:000a9f10       ___db_pgout                004aaf10 f   libdb41s:db_conv.obj
 0001:000aa0f0       ___db_metaswap             004ab0f0 f   libdb41s:db_conv.obj
 0001:000aa290       ___db_byteswap             004ab290 f   libdb41s:db_conv.obj
 0001:000aa9f0       ___qam_open                004ab9f0 f   libdb41s:qam_open.obj
 0001:000aac40       ___qam_metachk             004abc40 f   libdb41s:qam_open.obj
 0001:000aad50       ___qam_new_file            004abd50 f   libdb41s:qam_open.obj
 0001:000aafc0       ___ham_open                004abfc0 f   libdb41s:hash_open.obj
 0001:000ab180       ___ham_metachk             004ac180 f   libdb41s:hash_open.obj
 0001:000ab340       ___ham_new_file            004ac340 f   libdb41s:hash_open.obj
 0001:000ab730       ___ham_new_subdb           004ac730 f   libdb41s:hash_open.obj
 0001:000aba70       ___bam_open                004aca70 f   libdb41s:bt_open.obj
 0001:000abb70       ___bam_metachk             004acb70 f   libdb41s:bt_open.obj
 0001:000abe90       ___bam_read_root           004ace90 f   libdb41s:bt_open.obj
 0001:000ac000       ___bam_new_file            004ad000 f   libdb41s:bt_open.obj
 0001:000ac3a0       ___bam_new_subdb           004ad3a0 f   libdb41s:bt_open.obj
 0001:000ac5d0       ___db_chksum               004ad5d0 f   libdb41s:hmac.obj
 0001:000ac780       ___db_derive_mac           004ad780 f   libdb41s:hmac.obj
 0001:000ac7e0       ___db_check_chksum         004ad7e0 f   libdb41s:hmac.obj
 0001:000ac8e0       ___db_ret                  004ad8e0 f   libdb41s:db_ret.obj
 0001:000acaa0       ___db_retcopy              004adaa0 f   libdb41s:db_ret.obj
 0001:000acbb0       ___db_shalloc_init         004adbb0 f   libdb41s:db_salloc.obj
 0001:000acc10       ___db_shalloc_size         004adc10 f   libdb41s:db_salloc.obj
 0001:000acc40       ___db_shalloc              004adc40 f   libdb41s:db_salloc.obj
 0001:000acd10       ___db_shalloc_free         004add10 f   libdb41s:db_salloc.obj
 0001:000acee0       ___db_shsizeof             004adee0 f   libdb41s:db_salloc.obj
 0001:000acf00       ___db_shalloc_dump         004adf00 f   libdb41s:db_salloc.obj
 0001:000acf70       ___db_idspace              004adf70 f   libdb41s:db_idspace.obj
 0001:000ad040       ___os_spin                 004ae040 f   libdb41s:os_spin.obj
 0001:000ad090       ___os_yield                004ae090 f   libdb41s:os_spin.obj
 0001:000ad0c0       ___memp_bhwrite            004ae0c0 f   libdb41s:mp_bh.obj
 0001:000ad310       ___memp_pgread             004ae310 f   libdb41s:mp_bh.obj
 0001:000ad680       ___memp_pg                 004ae680 f   libdb41s:mp_bh.obj
 0001:000ad7e0       ___memp_bhfree             004ae7e0 f   libdb41s:mp_bh.obj
 0001:000ada10       ___db_tablesize            004aea10 f   libdb41s:db_shash.obj
 0001:000ada50       ___db_hashinit             004aea50 f   libdb41s:db_shash.obj
 0001:000ada70       ___os_rename               004aea70 f   libdb41s:os_rename.obj
 0001:000adb20       ___os_region_unlink        004aeb20 f   libdb41s:os_unlink.obj
 0001:000adb50       ___os_unlink               004aeb50 f   libdb41s:os_unlink.obj
 0001:000adbb0       ___memp_alloc              004aebb0 f   libdb41s:mp_alloc.obj
 0001:000ae130       ___memp_fset               004af130 f   libdb41s:mp_fset.obj
 0001:000ae2c0       ___memp_fput               004af2c0 f   libdb41s:mp_fput.obj
 0001:000ae660       ___memp_fget               004af660 f   libdb41s:mp_fget.obj
 0001:000af0c0       ___os_r_sysattach          004b00c0 f   libdb41s:os_map.obj
 0001:000af180       ___os_r_sysdetach          004b0180 f   libdb41s:os_map.obj
 0001:000af220       ___os_mapfile              004b0220 f   libdb41s:os_map.obj
 0001:000af280       ___os_unmapfile            004b0280 f   libdb41s:os_map.obj
 0001:000af540       ___os_fileid               004b0540 f   libdb41s:os_fid.obj
 0001:000af6c0       ___lock_cmp                004b06c0 f   libdb41s:lock_util.obj
 0001:000af6f0       ___lock_locker_cmp         004b06f0 f   libdb41s:lock_util.obj
 0001:000af710       ___lock_ohash              004b0710 f   libdb41s:lock_util.obj
 0001:000af770       ___lock_lhash              004b0770 f   libdb41s:lock_util.obj
 0001:000af7d0       ___lock_locker_hash        004b07d0 f   libdb41s:lock_util.obj
 0001:000af7e0       ___os_dirlist              004b07e0 f   libdb41s:os_dir.obj
 0001:000af940       ___os_dirfree              004b0940 f   libdb41s:os_dir.obj
 0001:000af9a0       ___qam_incfirst_recover    004b09a0 f   libdb41s:qam_rec.obj
 0001:000afd60       ___qam_mvptr_recover       004b0d60 f   libdb41s:qam_rec.obj
 0001:000b0020       ___qam_del_recover         004b1020 f   libdb41s:qam_rec.obj
 0001:000b03a0       ___qam_delext_recover      004b13a0 f   libdb41s:qam_rec.obj
 0001:000b0750       ___qam_add_recover         004b1750 f   libdb41s:qam_rec.obj
 0001:000b0b60       ___ham_insdel_recover      004b1b60 f   libdb41s:hash_rec.obj
 0001:000b0ec0       ___ham_newpage_recover     004b1ec0 f   libdb41s:hash_rec.obj
 0001:000b1460       ___ham_replace_recover     004b2460 f   libdb41s:hash_rec.obj
 0001:000b1770       ___ham_splitdata_recover   004b2770 f   libdb41s:hash_rec.obj
 0001:000b1a50       ___ham_copypage_recover    004b2a50 f   libdb41s:hash_rec.obj
 0001:000b1f80       ___ham_metagroup_recover   004b2f80 f   libdb41s:hash_rec.obj
 0001:000b24a0       ___ham_groupalloc_recover  004b34a0 f   libdb41s:hash_rec.obj
 0001:000b2890       ___ham_curadj_recover      004b3890 f   libdb41s:hash_rec.obj
 0001:000b2a00       ___ham_chgpg_recover       004b3a00 f   libdb41s:hash_rec.obj
 0001:000b2d80       ___fop_create_recover      004b3d80 f   libdb41s:fop_rec.obj
 0001:000b2e80       ___fop_remove_recover      004b3e80 f   libdb41s:fop_rec.obj
 0001:000b2f50       ___fop_write_recover       004b3f50 f   libdb41s:fop_rec.obj
 0001:000b2ff0       ___fop_rename_recover      004b3ff0 f   libdb41s:fop_rec.obj
 0001:000b31b0       ___fop_file_remove_recover 004b41b0 f   libdb41s:fop_rec.obj
 0001:000b3390       ___dbreg_register_recover  004b4390 f   libdb41s:dbreg_rec.obj
 0001:000b3870       ___db_addrem_recover       004b4870 f   libdb41s:db_rec.obj
 0001:000b3b70       ___db_big_recover          004b4b70 f   libdb41s:db_rec.obj
 0001:000b4190       ___db_ovref_recover        004b5190 f   libdb41s:db_rec.obj
 0001:000b43e0       ___db_relink_recover       004b53e0 f   libdb41s:db_rec.obj
 0001:000b4930       ___db_debug_recover        004b5930 f   libdb41s:db_rec.obj
 0001:000b4980       ___db_noop_recover         004b5980 f   libdb41s:db_rec.obj
 0001:000b4b80       ___db_pg_alloc_recover     004b5b80 f   libdb41s:db_rec.obj
 0001:000b5090       ___db_pg_free_recover      004b6090 f   libdb41s:db_rec.obj
 0001:000b5490       ___db_cksum_recover        004b6490 f   libdb41s:db_rec.obj
 0001:000b5500       ___crdel_metasub_recover   004b6500 f   libdb41s:crdel_rec.obj
 0001:000b5750       ___bam_split_recover       004b6750 f   libdb41s:bt_rec.obj
 0001:000b62e0       ___bam_rsplit_recover      004b72e0 f   libdb41s:bt_rec.obj
 0001:000b6750       ___bam_adj_recover         004b7750 f   libdb41s:bt_rec.obj
 0001:000b6a10       ___bam_cadjust_recover     004b7a10 f   libdb41s:bt_rec.obj
 0001:000b6de0       ___bam_cdel_recover        004b7de0 f   libdb41s:bt_rec.obj
 0001:000b7100       ___bam_repl_recover        004b8100 f   libdb41s:bt_rec.obj
 0001:000b75b0       ___bam_root_recover        004b85b0 f   libdb41s:bt_rec.obj
 0001:000b7820       ___bam_curadj_recover      004b8820 f   libdb41s:bt_rec.obj
 0001:000b79d0       ___bam_rcuradj_recover     004b89d0 f   libdb41s:bt_rec.obj
 0001:000b7b80       ___os_r_attach             004b8b80 f   libdb41s:os_region.obj
 0001:000b7c10       ___os_r_detach             004b8c10 f   libdb41s:os_region.obj
 0001:000b7c70       ___db_fileinit             004b8c70 f   libdb41s:env_file.obj
 0001:000b7d90       ___db_overwrite            004b8d90 f   libdb41s:env_file.obj
 0001:000b7fb0       ___os_is_winnt             004b8fb0 f   libdb41s:os_type.obj
 0001:000b7fd0       ___bam_stat                004b8fd0 f   libdb41s:bt_stat.obj
 0001:000b8500       ___bam_traverse            004b9500 f   libdb41s:bt_stat.obj
 0001:000b8990       ___bam_stat_callback       004b9990 f   libdb41s:bt_stat.obj
 0001:000b8d50       ___bam_key_range           004b9d50 f   libdb41s:bt_stat.obj
 0001:000b8f70       ___db_traverse_big         004b9f70 f   libdb41s:db_reclaim.obj
 0001:000b9010       ___db_reclaim_callback     004ba010 f   libdb41s:db_reclaim.obj
 0001:000b9040       ___db_truncate_callback    004ba040 f   libdb41s:db_reclaim.obj
 0001:000b95b0       ___ham_get_meta            004ba5b0 f   libdb41s:hash_meta.obj
 0001:000b9660       ___ham_release_meta        004ba660 f   libdb41s:hash_meta.obj
 0001:000b96d0       ___ham_dirty_meta          004ba6d0 f   libdb41s:hash_meta.obj
 0001:000b97a0       ___ham_stat                004ba7a0 f   libdb41s:hash_stat.obj
 0001:000b9a40       ___ham_traverse            004baa40 f   libdb41s:hash_stat.obj
 0001:000b9fe0       ___os_fs_notzero           004bafe0 f   libdb41s:os_config.obj
 0001:000b9ff0       ___db_31_offdup            004baff0 f   libdb41s:db_upg_opd.obj
 0001:000baa50       ___bam_ca_delete           004bba50 f   libdb41s:bt_curadj.obj
 0001:000bab60       ___ram_ca_delete           004bbb60 f   libdb41s:bt_curadj.obj
 0001:000bac30       ___bam_ca_di               004bbc30 f   libdb41s:bt_curadj.obj
 0001:000badc0       ___bam_ca_dup              004bbdc0 f   libdb41s:bt_curadj.obj
 0001:000bb030       ___bam_ca_undodup          004bc030 f   libdb41s:bt_curadj.obj
 0001:000bb160       ___bam_ca_rsplit           004bc160 f   libdb41s:bt_curadj.obj
 0001:000bb2d0       ___bam_ca_split            004bc2d0 f   libdb41s:bt_curadj.obj
 0001:000bb490       ___bam_ca_undosplit        004bc490 f   libdb41s:bt_curadj.obj
 0001:000bb590       ___bam_search              004bc590 f   libdb41s:bt_search.obj
 0001:000bc110       ___bam_stkrel              004bd110 f   libdb41s:bt_search.obj
 0001:000bc1f0       ___bam_stkgrow             004bd1f0 f   libdb41s:bt_search.obj
 0001:000bc2a0       ___bam_rsearch             004bd2a0 f   libdb41s:bt_rsearch.obj
 0001:000bc9d0       ___bam_adjust              004bd9d0 f   libdb41s:bt_rsearch.obj
 0001:000bcb30       ___bam_nrecs               004bdb30 f   libdb41s:bt_rsearch.obj
 0001:000bcbe0       ___bam_total               004bdbe0 f   libdb41s:bt_rsearch.obj
 0001:000bcde0       ___bam_split               004bdde0 f   libdb41s:bt_split.obj
 0001:000beb20       ___bam_copy                004bfb20 f   libdb41s:bt_split.obj
 0001:000bede0       ___bam_iitem               004bfde0 f   libdb41s:bt_put.obj
 0001:000bf860       ___bam_ritem               004c0860 f   libdb41s:bt_put.obj
 0001:000bffd0       ___bam_ditem               004c0fd0 f   libdb41s:bt_delete.obj
 0001:000c0230       ___bam_adjindx             004c1230 f   libdb41s:bt_delete.obj
 0001:000c0360       ___bam_dpages              004c1360 f   libdb41s:bt_delete.obj
 0001:000c09e0       ___ham_item                004c19e0 f   libdb41s:hash_page.obj
 0001:000c0ba0       ___ham_item_reset          004c1ba0 f   libdb41s:hash_page.obj
 0001:000c0be0       ___ham_item_init           004c1be0 f   libdb41s:hash_page.obj
 0001:000c0c40       ___ham_item_last           004c1c40 f   libdb41s:hash_page.obj
 0001:000c0ca0       ___ham_item_first          004c1ca0 f   libdb41s:hash_page.obj
 0001:000c0d00       ___ham_item_prev           004c1d00 f   libdb41s:hash_page.obj
 0001:000c0ef0       ___ham_item_next           004c1ef0 f   libdb41s:hash_page.obj
 0001:000c1080       ___ham_putitem             004c2080 f   libdb41s:hash_page.obj
 0001:000c11a0       ___ham_reputpair           004c21a0 f   libdb41s:hash_page.obj
 0001:000c1320       ___ham_del_pair            004c2320 f   libdb41s:hash_page.obj
 0001:000c1b00       ___ham_replpair            004c2b00 f   libdb41s:hash_page.obj
 0001:000c1fc0       ___ham_onpage_replace      004c2fc0 f   libdb41s:hash_page.obj
 0001:000c2250       ___ham_split_page          004c3250 f   libdb41s:hash_page.obj
 0001:000c2af0       ___ham_add_el              004c3af0 f   libdb41s:hash_page.obj
 0001:000c2ec0       ___ham_copy_item           004c3ec0 f   libdb41s:hash_page.obj
 0001:000c2ff0       ___ham_add_ovflpage        004c3ff0 f   libdb41s:hash_page.obj
 0001:000c30e0       ___ham_get_cpage           004c40e0 f   libdb41s:hash_page.obj
 0001:000c3250       ___ham_next_cpage          004c4250 f   libdb41s:hash_page.obj
 0001:000c32c0       ___ham_lock_bucket         004c42c0 f   libdb41s:hash_page.obj
 0001:000c3340       ___ham_dpair               004c4340 f   libdb41s:hash_page.obj
 0001:000c3760       ___ham_add_dup             004c4760 f   libdb41s:hash_dup.obj
 0001:000c3cb0       ___ham_dup_convert         004c4cb0 f   libdb41s:hash_dup.obj
 0001:000c4230       ___ham_make_dup            004c5230 f   libdb41s:hash_dup.obj
 0001:000c4cb0       ___ham_dsearch             004c5cb0 f   libdb41s:hash_dup.obj
 0001:000c5060       ___db_ditem                004c6060 f   libdb41s:db_dup.obj
 0001:000c51f0       ___db_pitem                004c61f0 f   libdb41s:db_dup.obj
 0001:000c53d0       ___db_relink               004c63d0 f   libdb41s:db_dup.obj
 0001:000c56d0       ___bam_pgin                004c66d0 f   libdb41s:bt_conv.obj
 0001:000c5720       ___bam_pgout               004c6720 f   libdb41s:bt_conv.obj
 0001:000c5770       ___bam_mswap               004c6770 f   libdb41s:bt_conv.obj
 0001:000c5860       ___ham_pgin                004c6860 f   libdb41s:hash_conv.obj
 0001:000c58e0       ___ham_pgout               004c68e0 f   libdb41s:hash_conv.obj
 0001:000c5930       ___ham_mswap               004c6930 f   libdb41s:hash_conv.obj
 0001:000c5a70       ___qam_mswap               004c6a70 f   libdb41s:qam_conv.obj
 0001:000c5b80       ___qam_pgin_out            004c6b80 f   libdb41s:qam_conv.obj
 0001:000c5c00       ___qam_stat                004c6c00 f   libdb41s:qam_stat.obj
 0001:000c6190       ___db_SHA1Transform        004c7190 f   libdb41s:sha1.obj
 0001:000c8080       ___db_SHA1Init             004c9080 f   libdb41s:sha1.obj
 0001:000c80b0       ___db_SHA1Update           004c90b0 f   libdb41s:sha1.obj
 0001:000c8170       ___db_SHA1Final            004c9170 f   libdb41s:sha1.obj
 0001:000c8260       ??0_Lockit@std@@QAE@XZ     004c9260 f   libcpmt:xlock.obj
 0001:000c82fc       ??1_Lockit@std@@QAE@XZ     004c92fc f   libcpmt:xlock.obj
 0001:000c8311       ?_Xlen@std@@YAXXZ          004c9311 f   libcpmt:string.obj
 0001:000c836b       ??0logic_error@std@@QAE@ABV?$basic_string@DU?$char_traits@D@std@@V?$allocator@D@2@@1@@Z 004c936b f i libcpmt:string.obj
 0001:000c83cf       ?what@logic_error@std@@UBEPBDXZ 004c93cf f i libcpmt:string.obj
 0001:000c83dc       ?_Doraise@logic_error@std@@MBEXXZ 004c93dc f i libcpmt:string.obj
 0001:000c83f9       ??1logic_error@std@@UAE@XZ 004c93f9 f i libcpmt:string.obj
 0001:000c8436       ??_Glogic_error@std@@UAEPAXI@Z 004c9436 f i libcpmt:string.obj
 0001:000c8436       ??_Elogic_error@std@@UAEPAXI@Z 004c9436 f i libcpmt:string.obj
 0001:000c8452       ??0logic_error@std@@QAE@ABV01@@Z 004c9452 f i libcpmt:string.obj
 0001:000c84af       ??1length_error@std@@UAE@XZ 004c94af f i libcpmt:string.obj
 0001:000c84ec       ?_Doraise@length_error@std@@MBEXXZ 004c94ec f i libcpmt:string.obj
 0001:000c8509       ??_Elength_error@std@@UAEPAXI@Z 004c9509 f i libcpmt:string.obj
 0001:000c8509       ??_Glength_error@std@@UAEPAXI@Z 004c9509 f i libcpmt:string.obj
 0001:000c8525       ??0length_error@std@@QAE@ABV01@@Z 004c9525 f i libcpmt:string.obj
 0001:000c853d       ?_Xran@std@@YAXXZ          004c953d f   libcpmt:string.obj
 0001:000c8597       ??1out_of_range@std@@UAE@XZ 004c9597 f i libcpmt:string.obj
 0001:000c85d4       ?_Doraise@out_of_range@std@@MBEXXZ 004c95d4 f i libcpmt:string.obj
 0001:000c85f1       ??_Gout_of_range@std@@UAEPAXI@Z 004c95f1 f i libcpmt:string.obj
 0001:000c85f1       ??_Eout_of_range@std@@UAEPAXI@Z 004c95f1 f i libcpmt:string.obj
 0001:000c860d       ??0out_of_range@std@@QAE@ABV01@@Z 004c960d f i libcpmt:string.obj
 0001:000c8667       ?id@?$collate@D@std@@$E    004c9667 f i libcpmt:string.obj
 0001:000c8668       ?_com_issue_error@@YGXJ@Z  004c9668 f   comsupp:comsupp.obj
 0001:000c8676       ?_com_issue_errorex@@YGXJPAUIUnknown@@ABU_GUID@@@Z 004c9676 f   comsupp:comsupp.obj
 0001:000c86d7       ?_com_dispatch_raw_method@@YAJPAUIDispatch@@JGGPAXPBGZZ 004c96d7 f   comsupp:comsupp.obj
 0001:000c8bbc       ?_com_dispatch_method@@YAJPAUIDispatch@@JGGPAXPBGZZ 004c9bbc f   comsupp:comsupp.obj
 0001:000c8bf6       ?_com_dispatch_raw_propget@@YGJPAUIDispatch@@JGPAX@Z 004c9bf6 f   comsupp:comsupp.obj
 0001:000c8c15       ?_com_dispatch_propget@@YGJPAUIDispatch@@JGPAX@Z 004c9c15 f   comsupp:comsupp.obj
 0001:000c8c34       ?_com_dispatch_raw_propput@@YAJPAUIDispatch@@JGZZ 004c9c34 f   comsupp:comsupp.obj
 0001:000c8c8d       ?_com_dispatch_propput@@YAJPAUIDispatch@@JGZZ 004c9c8d f   comsupp:comsupp.obj
 0001:000c8d22       ?ConvertStringToBSTR@_com_util@@YGPAGPBD@Z 004c9d22 f   comsupp:comutil.obj
 0001:000c8d97       ?ConvertBSTRToString@_com_util@@YGPADPAG@Z 004c9d97 f   comsupp:comutil.obj
 0001:000c8e0b       ??0_variant_t@@QAE@JG@Z    004c9e0b f i comsupp:comutil.obj
 0001:000c8e67       ?_com_raise_error@@YGXJPAUIErrorInfo@@@Z 004c9e67 f   comsupp:comraise.obj
 0001:000c8e8b       ??0_com_error@@QAE@JPAUIErrorInfo@@_N@Z 004c9e8b f i comsupp:comraise.obj
 0001:000c8ebd       ??_E_com_error@@UAEPAXI@Z  004c9ebd f i comsupp:comraise.obj
 0001:000c8ebd       ??_G_com_error@@UAEPAXI@Z  004c9ebd f i comsupp:comraise.obj
 0001:000c8ed9       ??0_com_error@@QAE@ABV0@@Z 004c9ed9 f i comsupp:comraise.obj
 0001:000c8f06       ??1_com_error@@UAE@XZ      004c9f06 f i comsupp:comraise.obj
 0001:000c8f30       _RtlUnwind@16              004c9f30 f   kernel32:KERNEL32.dll
 0001:000c8f36       _IsBadWritePtr@8           004c9f36 f   kernel32:KERNEL32.dll
 0001:000c8f3c       _IsBadReadPtr@8            004c9f3c f   kernel32:KERNEL32.dll
 0001:000c8f42       _HeapValidate@12           004c9f42 f   kernel32:KERNEL32.dll
 0001:000c8f48       _CreateThread@24           004c9f48 f   kernel32:KERNEL32.dll
 0001:000c8f4e       _GetCurrentThreadId@0      004c9f4e f   kernel32:KERNEL32.dll
 0001:000c8f54       _TlsSetValue@8             004c9f54 f   kernel32:KERNEL32.dll
 0001:000c8f5a       _ExitThread@4              004c9f5a f   kernel32:KERNEL32.dll
 0001:000c8f60       _RaiseException@16         004c9f60 f   kernel32:KERNEL32.dll
 0001:000c8f66       _GetTimeZoneInformation@4  004c9f66 f   kernel32:KERNEL32.dll
 0001:000c8f6c       _GetSystemTime@4           004c9f6c f   kernel32:KERNEL32.dll
 0001:000c8f72       _GetModuleHandleA@4        004c9f72 f   kernel32:KERNEL32.dll
 0001:000c8f78       _GetStartupInfoA@4         004c9f78 f   kernel32:KERNEL32.dll
 0001:000c8f7e       _GetCommandLineA@0         004c9f7e f   kernel32:KERNEL32.dll
 0001:000c8f84       _GetVersion@0              004c9f84 f   kernel32:KERNEL32.dll
 0001:000c8f8a       _ExitProcess@4             004c9f8a f   kernel32:KERNEL32.dll
 0001:000c8f90       _TlsAlloc@0                004c9f90 f   kernel32:KERNEL32.dll
 0001:000c8f96       _TlsFree@4                 004c9f96 f   kernel32:KERNEL32.dll
 0001:000c8f9c       _SetLastError@4            004c9f9c f   kernel32:KERNEL32.dll
 0001:000c8fa2       _TlsGetValue@4             004c9fa2 f   kernel32:KERNEL32.dll
 0001:000c8fa8       _GetCurrentThread@0        004c9fa8 f   kernel32:KERNEL32.dll
 0001:000c8fae       _FatalAppExitA@8           004c9fae f   kernel32:KERNEL32.dll
 0001:000c8fb4       _DebugBreak@0              004c9fb4 f   kernel32:KERNEL32.dll
 0001:000c8fba       _GetStdHandle@4            004c9fba f   kernel32:KERNEL32.dll
 0001:000c8fc0       _OutputDebugStringA@4      004c9fc0 f   kernel32:KERNEL32.dll
 0001:000c8fc6       _InterlockedIncrement@4    004c9fc6 f   kernel32:KERNEL32.dll
 0001:000c8fcc       _GetCPInfo@8               004c9fcc f   kernel32:KERNEL32.dll
 0001:000c8fd2       _GetACP@0                  004c9fd2 f   kernel32:KERNEL32.dll
 0001:000c8fd8       _GetOEMCP@0                004c9fd8 f   kernel32:KERNEL32.dll
 0001:000c8fde       _TerminateProcess@8        004c9fde f   kernel32:KERNEL32.dll
 0001:000c8fe4       _GetCurrentProcess@0       004c9fe4 f   kernel32:KERNEL32.dll
 0001:000c8fea       _HeapAlloc@12              004c9fea f   kernel32:KERNEL32.dll
 0001:000c8ff0       _HeapReAlloc@16            004c9ff0 f   kernel32:KERNEL32.dll
 0001:000c8ff6       _HeapFree@12               004c9ff6 f   kernel32:KERNEL32.dll
 0001:000c8ffc       _HeapDestroy@4             004c9ffc f   kernel32:KERNEL32.dll
 0001:000c9002       _HeapCreate@12             004ca002 f   kernel32:KERNEL32.dll
 0001:000c9008       _VirtualFree@12            004ca008 f   kernel32:KERNEL32.dll
 0001:000c900e       _VirtualAlloc@16           004ca00e f   kernel32:KERNEL32.dll
 0001:000c9014       _ReadFile@20               004ca014 f   kernel32:KERNEL32.dll
 0001:000c901a       _SetHandleCount@4          004ca01a f   kernel32:KERNEL32.dll
 0001:000c9020       _GetFileType@4             004ca020 f   kernel32:KERNEL32.dll
 0001:000c9026       _SetFilePointer@16         004ca026 f   kernel32:KERNEL32.dll
 0001:000c902c       _WideCharToMultiByte@32    004ca02c f   kernel32:KERNEL32.dll
 0001:000c9032       _LCMapStringA@24           004ca032 f   kernel32:KERNEL32.dll
 0001:000c9038       _LCMapStringW@24           004ca038 f   kernel32:KERNEL32.dll
 0001:000c903e       _UnhandledExceptionFilter@4 004ca03e f   kernel32:KERNEL32.dll
 0001:000c9044       _SetUnhandledExceptionFilter@4 004ca044 f   kernel32:KERNEL32.dll
 0001:000c904a       _FreeEnvironmentStringsA@4 004ca04a f   kernel32:KERNEL32.dll
 0001:000c9050       _FreeEnvironmentStringsW@4 004ca050 f   kernel32:KERNEL32.dll
 0001:000c9056       _GetEnvironmentStrings@0   004ca056 f   kernel32:KERNEL32.dll
 0001:000c905c       _GetEnvironmentStringsW@0  004ca05c f   kernel32:KERNEL32.dll
 0001:000c9062       _IsBadCodePtr@4            004ca062 f   kernel32:KERNEL32.dll
 0001:000c9068       _SetConsoleCtrlHandler@8   004ca068 f   kernel32:KERNEL32.dll
 0001:000c906e       _GetStringTypeA@20         004ca06e f   kernel32:KERNEL32.dll
 0001:000c9074       _GetStringTypeW@16         004ca074 f   kernel32:KERNEL32.dll
 0001:000c907a       _SetStdHandle@8            004ca07a f   kernel32:KERNEL32.dll
 0001:000c9080       _FlushFileBuffers@4        004ca080 f   kernel32:KERNEL32.dll
 0001:000c9086       _SetEndOfFile@4            004ca086 f   kernel32:KERNEL32.dll
 0001:000c908c       _IsValidLocale@8           004ca08c f   kernel32:KERNEL32.dll
 0001:000c9092       _IsValidCodePage@4         004ca092 f   kernel32:KERNEL32.dll
 0001:000c9098       _GetLocaleInfoA@16         004ca098 f   kernel32:KERNEL32.dll
 0001:000c909e       _EnumSystemLocalesA@8      004ca09e f   kernel32:KERNEL32.dll
 0001:000c90a4       _GetUserDefaultLCID@0      004ca0a4 f   kernel32:KERNEL32.dll
 0001:000c90aa       _GetVersionExA@4           004ca0aa f   kernel32:KERNEL32.dll
 0001:000c90b0       _CompareStringA@24         004ca0b0 f   kernel32:KERNEL32.dll
 0001:000c90b6       _CompareStringW@24         004ca0b6 f   kernel32:KERNEL32.dll
 0001:000c90bc       _SetEnvironmentVariableA@8 004ca0bc f   kernel32:KERNEL32.dll
 0001:000c90c2       _GetLocaleInfoW@16         004ca0c2 f   kernel32:KERNEL32.dll
 0001:000c90c8       _InterlockedExchange@8     004ca0c8 f   kernel32:KERNEL32.dll
 0001:000c90ce       _PulseEvent@4              004ca0ce f   kernel32:KERNEL32.dll
 0001:000c90d4       _GetTempPathA@8            004ca0d4 f   kernel32:KERNEL32.dll
 0001:000c90da       _GetFileInformationByHandle@8 004ca0da f   kernel32:KERNEL32.dll
 0001:000c90e0       _GetDiskFreeSpaceA@20      004ca0e0 f   kernel32:KERNEL32.dll
 0001:000c90e6       _GetSystemInfo@4           004ca0e6 f   kernel32:KERNEL32.dll
 0001:000c90ec       _MoveFileExA@12            004ca0ec f   kernel32:KERNEL32.dll
 0001:000c90f2       _MoveFileA@8               004ca0f2 f   kernel32:KERNEL32.dll
 0001:000c90f8       _UnmapViewOfFile@4         004ca0f8 f   kernel32:KERNEL32.dll
 0001:000c90fe       _MapViewOfFile@20          004ca0fe f   kernel32:KERNEL32.dll
 0001:000c9104       _CreateFileMappingA@24     004ca104 f   kernel32:KERNEL32.dll
 0001:000c910a       _OpenFileMappingA@12       004ca10a f   kernel32:KERNEL32.dll
 0001:000c9110       _lstrlenW@4                004ca110 f   kernel32:KERNEL32.dll
 0001:000c9116       _GetErrorInfo@8            004ca116 f   oleaut32:OLEAUT32.dll
 0001:000c911c       _SetErrorInfo@8            004ca11c f   oleaut32:OLEAUT32.dll
 0001:000c9122       _VariantChangeType@16      004ca122 f   oleaut32:OLEAUT32.dll
 0001:000c9128       _CreateErrorInfo@4         004ca128 f   oleaut32:OLEAUT32.dll
 0001:000c912e       _SysAllocString@4          004ca12e f   oleaut32:OLEAUT32.dll
 0001:000c9140       _strerror                  004ca140 f   LIBCMTD:strerror.obj
 0001:000c91d0       _srand                     004ca1d0 f   LIBCMTD:rand.obj
 0001:000c91e0       _rand                      004ca1e0 f   LIBCMTD:rand.obj
 0001:000c9220       _fgets                     004ca220 f   LIBCMTD:fgets.obj
 0001:000c9360       _sscanf                    004ca360 f   LIBCMTD:sscanf.obj
 0001:000c9420       _fprintf                   004ca420 f   LIBCMTD:fprintf.obj
 0001:000c94f0       _qsort                     004ca4f0 f   LIBCMTD:qsort.obj
 0001:000c97f0       _printf                    004ca7f0 f   LIBCMTD:printf.obj
 0001:000c9890       __ftime                    004ca890 f   LIBCMTD:ftime.obj
 0001:000c99a0       __getcwd                   004ca9a0 f   LIBCMTD:getcwd.obj
 0001:000c99a0       _getcwd                    004ca9a0 f   LIBCMTD:getcwd.obj
 0001:000c99e0       __getdcwd                  004ca9e0 f   LIBCMTD:getcwd.obj
 0001:000c9a20       __getdcwd_lk               004caa20 f   LIBCMTD:getcwd.obj
 0001:000c9b40       __validdrive               004cab40 f   LIBCMTD:getcwd.obj
 0001:000c9b90       _ctime                     004cab90 f   LIBCMTD:ctime.obj
 0001:000c9bc0       __aullshr                  004cabc0 f   LIBCMTD:ullshr.obj
 0001:000c9be0       _fgetc                     004cabe0 f   LIBCMTD:fgetc.obj
 0001:000c9c90       _getc                      004cac90 f   LIBCMTD:fgetc.obj
 0001:000c9cb0       __findfirst                004cacb0 f   LIBCMTD:findfile.obj
 0001:000c9df0       __findnext                 004cadf0 f   LIBCMTD:findfile.obj
 0001:000c9f20       __findclose                004caf20 f   LIBCMTD:findfile.obj
 0001:000c9f50       ___timet_from_ft           004caf50 f   LIBCMTD:findfile.obj
 0001:000c9fe0       ??0exception@@QAE@XZ       004cafe0 f   LIBCMTD:stdexcpt.obj
 0001:000ca010       ??_Eexception@@UAEPAXI@Z   004cb010 f i LIBCMTD:stdexcpt.obj
 0001:000ca010       ??_Gexception@@UAEPAXI@Z   004cb010 f i LIBCMTD:stdexcpt.obj
 0001:000ca040       ??0exception@@QAE@ABQBD@Z  004cb040 f   LIBCMTD:stdexcpt.obj
 0001:000ca0b0       ??0exception@@QAE@ABV0@@Z  004cb0b0 f   LIBCMTD:stdexcpt.obj
 0001:000ca140       ??4exception@@QAEAAV0@ABV0@@Z 004cb140 f   LIBCMTD:stdexcpt.obj
 0001:000ca170       ??1exception@@UAE@XZ       004cb170 f   LIBCMTD:stdexcpt.obj
 0001:000ca1b0       ?what@exception@@UBEPBDXZ  004cb1b0 f   LIBCMTD:stdexcpt.obj
 0001:000ca1d4       __EH_prolog                004cb1d4 f   LIBCMTD:ehprolog.obj
 0001:000ca200       _wcslen                    004cb200 f   LIBCMTD:wcslen.obj
 0001:000ca230       __mkdir                    004cb230 f   LIBCMTD:mkdir.obj
 0001:000ca230       _mkdir                     004cb230 f   LIBCMTD:mkdir.obj
 0001:000ca280       _getpid                    004cb280 f   LIBCMTD:getpid.obj
 0001:000ca280       __getpid                   004cb280 f   LIBCMTD:getpid.obj
 0001:000ca290       _remove                    004cb290 f   LIBCMTD:unlink.obj
 0001:000ca2e0       __unlink                   004cb2e0 f   LIBCMTD:unlink.obj
 0001:000ca2e0       _unlink                    004cb2e0 f   LIBCMTD:unlink.obj
 0001:000ca300       __input                    004cb300 f   LIBCMTD:input.obj
 0001:000cb800       _asctime                   004cc800 f   LIBCMTD:asctime.obj
 0001:000cba00       _mbtowc                    004cca00 f   LIBCMTD:mbtowc.obj
 0001:000cba80       __mbtowc_lk                004cca80 f   LIBCMTD:mbtowc.obj
 0001:000cbbe0       _isalpha                   004ccbe0 f   LIBCMTD:_ctype.obj
 0001:000cbc30       _isupper                   004ccc30 f   LIBCMTD:_ctype.obj
 0001:000cbc70       _islower                   004ccc70 f   LIBCMTD:_ctype.obj
 0001:000cbcb0       _isdigit                   004cccb0 f   LIBCMTD:_ctype.obj
 0001:000cbcf0       _isxdigit                  004cccf0 f   LIBCMTD:_ctype.obj
 0001:000cbd40       _isspace                   004ccd40 f   LIBCMTD:_ctype.obj
 0001:000cbd80       _ispunct                   004ccd80 f   LIBCMTD:_ctype.obj
 0001:000cbdc0       _isalnum                   004ccdc0 f   LIBCMTD:_ctype.obj
 0001:000cbe10       _isprint                   004cce10 f   LIBCMTD:_ctype.obj
 0001:000cbe60       _isgraph                   004cce60 f   LIBCMTD:_ctype.obj
 0001:000cbeb0       _iscntrl                   004cceb0 f   LIBCMTD:_ctype.obj
 0001:000cbef0       ___isascii                 004ccef0 f   LIBCMTD:_ctype.obj
 0001:000cbf00       ___toascii                 004ccf00 f   LIBCMTD:_ctype.obj
 0001:000cbf10       ___iscsymf                 004ccf10 f   LIBCMTD:_ctype.obj
 0001:000cbf70       ___iscsym                  004ccf70 f   LIBCMTD:_ctype.obj
 0001:000cbfd0       __allshl                   004ccfd0 f   LIBCMTD:llshl.obj
 0001:000cbff0       _ungetc                    004ccff0 f   LIBCMTD:ungetc.obj
 0001:000cc060       __ungetc_lk                004cd060 f   LIBCMTD:ungetc.obj
 0001:000cc19e       _GetSystemTimeAsFileTime@4 004cd19e f   kernel32:KERNEL32.dll
 0001:000cc1a4       _GetCurrentDirectoryA@8    004cd1a4 f   kernel32:KERNEL32.dll
 0001:000cc1aa       _GetFullPathNameA@16       004cd1aa f   kernel32:KERNEL32.dll
 0001:000cc1b0       _GetDriveTypeA@4           004cd1b0 f   kernel32:KERNEL32.dll
 0001:000cc1b6       _FindFirstFileA@8          004cd1b6 f   kernel32:KERNEL32.dll
 0001:000cc1bc       _FindNextFileA@8           004cd1bc f   kernel32:KERNEL32.dll
 0001:000cc1c2       _FindClose@4               004cd1c2 f   kernel32:KERNEL32.dll
 0001:000cc1c8       _FileTimeToSystemTime@8    004cd1c8 f   kernel32:KERNEL32.dll
 0001:000cc1ce       _FileTimeToLocalFileTime@8 004cd1ce f   kernel32:KERNEL32.dll
 0001:000cc1d4       _GetCurrentProcessId@0     004cd1d4 f   kernel32:KERNEL32.dll
 0002:00000000       __imp_?LoadBuffer@KLuaScript@@QAEHPAEK@Z 004d2000     engine:Engine.dll
 0002:00000004       __imp_?ExecuteCode@KLuaScript@@QAEHXZ 004d2004     engine:Engine.dll
 0002:00000008       __imp_?Init@KLuaScript@@UAEHXZ 004d2008     engine:Engine.dll
 0002:0000000c       __imp_?RegisterFunctions@KLuaScript@@QAEHQAUTLua_Funcs@@H@Z 004d200c     engine:Engine.dll
 0002:00000010       __imp_??1KLuaScript@@UAE@XZ 004d2010     engine:Engine.dll
 0002:00000014       __imp_??0KLuaScript@@QAE@XZ 004d2014     engine:Engine.dll
 0002:00000018       __imp_?KSG_StringToMD5String@@YAHQADQBD@Z 004d2018     engine:Engine.dll
 0002:0000001c       \177Engine_NULL_THUNK_DATA 004d201c     engine:Engine.dll
 0002:00000020       __imp__LoadLibraryA@4      004d2020     kernel32:KERNEL32.dll
 0002:00000024       __imp__Sleep@4             004d2024     kernel32:KERNEL32.dll
 0002:00000028       __imp__WaitForSingleObject@8 004d2028     kernel32:KERNEL32.dll
 0002:0000002c       __imp__CreateMutexA@12     004d202c     kernel32:KERNEL32.dll
 0002:00000030       __imp__ReleaseMutex@4      004d2030     kernel32:KERNEL32.dll
 0002:00000034       __imp__CreateEventA@16     004d2034     kernel32:KERNEL32.dll
 0002:00000038       __imp__CloseHandle@4       004d2038     kernel32:KERNEL32.dll
 0002:0000003c       __imp__TerminateThread@8   004d203c     kernel32:KERNEL32.dll
 0002:00000040       __imp__SetEvent@4          004d2040     kernel32:KERNEL32.dll
 0002:00000044       __imp__InitializeCriticalSection@4 004d2044     kernel32:KERNEL32.dll
 0002:00000048       __imp__DeleteCriticalSection@4 004d2048     kernel32:KERNEL32.dll
 0002:0000004c       __imp__EnterCriticalSection@4 004d204c     kernel32:KERNEL32.dll
 0002:00000050       __imp__LeaveCriticalSection@4 004d2050     kernel32:KERNEL32.dll
 0002:00000054       __imp__ResetEvent@4        004d2054     kernel32:KERNEL32.dll
 0002:00000058       __imp__GetFileAttributesA@4 004d2058     kernel32:KERNEL32.dll
 0002:0000005c       __imp__WriteFile@20        004d205c     kernel32:KERNEL32.dll
 0002:00000060       __imp__GetLocalTime@4      004d2060     kernel32:KERNEL32.dll
 0002:00000064       __imp__GetFileSize@8       004d2064     kernel32:KERNEL32.dll
 0002:00000068       __imp__CreateDirectoryA@8  004d2068     kernel32:KERNEL32.dll
 0002:0000006c       __imp__CreateFileA@28      004d206c     kernel32:KERNEL32.dll
 0002:00000070       __imp__LocalFree@4         004d2070     kernel32:KERNEL32.dll
 0002:00000074       __imp__LocalAlloc@8        004d2074     kernel32:KERNEL32.dll
 0002:00000078       __imp__FormatMessageA@28   004d2078     kernel32:KERNEL32.dll
 0002:0000007c       __imp__GetLastError@0      004d207c     kernel32:KERNEL32.dll
 0002:00000080       __imp__MultiByteToWideChar@24 004d2080     kernel32:KERNEL32.dll
 0002:00000084       __imp__lstrlenA@4          004d2084     kernel32:KERNEL32.dll
 0002:00000088       __imp__InterlockedDecrement@4 004d2088     kernel32:KERNEL32.dll
 0002:0000008c       __imp__DeleteFileA@4       004d208c     kernel32:KERNEL32.dll
 0002:00000090       __imp__FileTimeToLocalFileTime@8 004d2090     kernel32:KERNEL32.dll
 0002:00000094       __imp__FileTimeToSystemTime@8 004d2094     kernel32:KERNEL32.dll
 0002:00000098       __imp__FindClose@4         004d2098     kernel32:KERNEL32.dll
 0002:0000009c       __imp__FindNextFileA@8     004d209c     kernel32:KERNEL32.dll
 0002:000000a0       __imp__FindFirstFileA@8    004d20a0     kernel32:KERNEL32.dll
 0002:000000a4       __imp__GetDriveTypeA@4     004d20a4     kernel32:KERNEL32.dll
 0002:000000a8       __imp__GetFullPathNameA@16 004d20a8     kernel32:KERNEL32.dll
 0002:000000ac       __imp__GetCurrentDirectoryA@8 004d20ac     kernel32:KERNEL32.dll
 0002:000000b0       __imp__GetSystemTimeAsFileTime@4 004d20b0     kernel32:KERNEL32.dll
 0002:000000b4       __imp__GetProcAddress@8    004d20b4     kernel32:KERNEL32.dll
 0002:000000b8       __imp__OpenFileMappingA@12 004d20b8     kernel32:KERNEL32.dll
 0002:000000bc       __imp__CreateFileMappingA@24 004d20bc     kernel32:KERNEL32.dll
 0002:000000c0       __imp__MapViewOfFile@20    004d20c0     kernel32:KERNEL32.dll
 0002:000000c4       __imp__UnmapViewOfFile@4   004d20c4     kernel32:KERNEL32.dll
 0002:000000c8       __imp__MoveFileA@8         004d20c8     kernel32:KERNEL32.dll
 0002:000000cc       __imp__MoveFileExA@12      004d20cc     kernel32:KERNEL32.dll
 0002:000000d0       __imp__GetSystemInfo@4     004d20d0     kernel32:KERNEL32.dll
 0002:000000d4       __imp__GetDiskFreeSpaceA@20 004d20d4     kernel32:KERNEL32.dll
 0002:000000d8       __imp__GetFileInformationByHandle@8 004d20d8     kernel32:KERNEL32.dll
 0002:000000dc       __imp__GetTempPathA@8      004d20dc     kernel32:KERNEL32.dll
 0002:000000e0       __imp__PulseEvent@4        004d20e0     kernel32:KERNEL32.dll
 0002:000000e4       __imp__InterlockedExchange@8 004d20e4     kernel32:KERNEL32.dll
 0002:000000e8       __imp__GetLocaleInfoW@16   004d20e8     kernel32:KERNEL32.dll
 0002:000000ec       __imp__SetEnvironmentVariableA@8 004d20ec     kernel32:KERNEL32.dll
 0002:000000f0       __imp__CompareStringW@24   004d20f0     kernel32:KERNEL32.dll
 0002:000000f4       __imp__CompareStringA@24   004d20f4     kernel32:KERNEL32.dll
 0002:000000f8       __imp__GetVersionExA@4     004d20f8     kernel32:KERNEL32.dll
 0002:000000fc       __imp__GetUserDefaultLCID@0 004d20fc     kernel32:KERNEL32.dll
 0002:00000100       __imp__EnumSystemLocalesA@8 004d2100     kernel32:KERNEL32.dll
 0002:00000104       __imp__GetLocaleInfoA@16   004d2104     kernel32:KERNEL32.dll
 0002:00000108       __imp__IsValidCodePage@4   004d2108     kernel32:KERNEL32.dll
 0002:0000010c       __imp__IsValidLocale@8     004d210c     kernel32:KERNEL32.dll
 0002:00000110       __imp__SetEndOfFile@4      004d2110     kernel32:KERNEL32.dll
 0002:00000114       __imp__FlushFileBuffers@4  004d2114     kernel32:KERNEL32.dll
 0002:00000118       __imp__SetStdHandle@8      004d2118     kernel32:KERNEL32.dll
 0002:0000011c       __imp__GetStringTypeW@16   004d211c     kernel32:KERNEL32.dll
 0002:00000120       __imp__GetStringTypeA@20   004d2120     kernel32:KERNEL32.dll
 0002:00000124       __imp__SetConsoleCtrlHandler@8 004d2124     kernel32:KERNEL32.dll
 0002:00000128       __imp__IsBadCodePtr@4      004d2128     kernel32:KERNEL32.dll
 0002:0000012c       __imp__GetEnvironmentStringsW@0 004d212c     kernel32:KERNEL32.dll
 0002:00000130       __imp__GetEnvironmentStrings@0 004d2130     kernel32:KERNEL32.dll
 0002:00000134       __imp__FreeEnvironmentStringsW@4 004d2134     kernel32:KERNEL32.dll
 0002:00000138       __imp__FreeEnvironmentStringsA@4 004d2138     kernel32:KERNEL32.dll
 0002:0000013c       __imp__SetUnhandledExceptionFilter@4 004d213c     kernel32:KERNEL32.dll
 0002:00000140       __imp__UnhandledExceptionFilter@4 004d2140     kernel32:KERNEL32.dll
 0002:00000144       __imp__LCMapStringW@24     004d2144     kernel32:KERNEL32.dll
 0002:00000148       __imp__LCMapStringA@24     004d2148     kernel32:KERNEL32.dll
 0002:0000014c       __imp__WideCharToMultiByte@32 004d214c     kernel32:KERNEL32.dll
 0002:00000150       __imp__FreeLibrary@4       004d2150     kernel32:KERNEL32.dll
 0002:00000154       __imp__GetPrivateProfileSectionNamesA@12 004d2154     kernel32:KERNEL32.dll
 0002:00000158       __imp__GetPrivateProfileSectionA@16 004d2158     kernel32:KERNEL32.dll
 0002:0000015c       __imp__GetPrivateProfileIntA@16 004d215c     kernel32:KERNEL32.dll
 0002:00000160       __imp__GetPrivateProfileStringA@24 004d2160     kernel32:KERNEL32.dll
 0002:00000164       __imp__GetModuleFileNameA@12 004d2164     kernel32:KERNEL32.dll
 0002:00000168       __imp__lstrlenW@4          004d2168     kernel32:KERNEL32.dll
 0002:0000016c       __imp__GetTickCount@0      004d216c     kernel32:KERNEL32.dll
 0002:00000170       __imp__RtlUnwind@16        004d2170     kernel32:KERNEL32.dll
 0002:00000174       __imp__IsBadWritePtr@8     004d2174     kernel32:KERNEL32.dll
 0002:00000178       __imp__IsBadReadPtr@8      004d2178     kernel32:KERNEL32.dll
 0002:0000017c       __imp__HeapValidate@12     004d217c     kernel32:KERNEL32.dll
 0002:00000180       __imp__CreateThread@24     004d2180     kernel32:KERNEL32.dll
 0002:00000184       __imp__GetCurrentThreadId@0 004d2184     kernel32:KERNEL32.dll
 0002:00000188       __imp__TlsSetValue@8       004d2188     kernel32:KERNEL32.dll
 0002:0000018c       __imp__ExitThread@4        004d218c     kernel32:KERNEL32.dll
 0002:00000190       __imp__RaiseException@16   004d2190     kernel32:KERNEL32.dll
 0002:00000194       __imp__GetTimeZoneInformation@4 004d2194     kernel32:KERNEL32.dll
 0002:00000198       __imp__GetSystemTime@4     004d2198     kernel32:KERNEL32.dll
 0002:0000019c       __imp__GetModuleHandleA@4  004d219c     kernel32:KERNEL32.dll
 0002:000001a0       __imp__GetStartupInfoA@4   004d21a0     kernel32:KERNEL32.dll
 0002:000001a4       __imp__GetCommandLineA@0   004d21a4     kernel32:KERNEL32.dll
 0002:000001a8       __imp__GetVersion@0        004d21a8     kernel32:KERNEL32.dll
 0002:000001ac       __imp__ExitProcess@4       004d21ac     kernel32:KERNEL32.dll
 0002:000001b0       __imp__TlsAlloc@0          004d21b0     kernel32:KERNEL32.dll
 0002:000001b4       __imp__TlsFree@4           004d21b4     kernel32:KERNEL32.dll
 0002:000001b8       __imp__SetLastError@4      004d21b8     kernel32:KERNEL32.dll
 0002:000001bc       __imp__TlsGetValue@4       004d21bc     kernel32:KERNEL32.dll
 0002:000001c0       __imp__GetCurrentThread@0  004d21c0     kernel32:KERNEL32.dll
 0002:000001c4       __imp__FatalAppExitA@8     004d21c4     kernel32:KERNEL32.dll
 0002:000001c8       __imp__DebugBreak@0        004d21c8     kernel32:KERNEL32.dll
 0002:000001cc       __imp__GetStdHandle@4      004d21cc     kernel32:KERNEL32.dll
 0002:000001d0       __imp__OutputDebugStringA@4 004d21d0     kernel32:KERNEL32.dll
 0002:000001d4       __imp__InterlockedIncrement@4 004d21d4     kernel32:KERNEL32.dll
 0002:000001d8       __imp__GetCPInfo@8         004d21d8     kernel32:KERNEL32.dll
 0002:000001dc       __imp__GetACP@0            004d21dc     kernel32:KERNEL32.dll
 0002:000001e0       __imp__GetOEMCP@0          004d21e0     kernel32:KERNEL32.dll
 0002:000001e4       __imp__TerminateProcess@8  004d21e4     kernel32:KERNEL32.dll
 0002:000001e8       __imp__GetCurrentProcess@0 004d21e8     kernel32:KERNEL32.dll
 0002:000001ec       __imp__HeapAlloc@12        004d21ec     kernel32:KERNEL32.dll
 0002:000001f0       __imp__HeapReAlloc@16      004d21f0     kernel32:KERNEL32.dll
 0002:000001f4       __imp__HeapFree@12         004d21f4     kernel32:KERNEL32.dll
 0002:000001f8       __imp__HeapDestroy@4       004d21f8     kernel32:KERNEL32.dll
 0002:000001fc       __imp__HeapCreate@12       004d21fc     kernel32:KERNEL32.dll
 0002:00000200       __imp__VirtualFree@12      004d2200     kernel32:KERNEL32.dll
 0002:00000204       __imp__VirtualAlloc@16     004d2204     kernel32:KERNEL32.dll
 0002:00000208       __imp__ReadFile@20         004d2208     kernel32:KERNEL32.dll
 0002:0000020c       __imp__SetHandleCount@4    004d220c     kernel32:KERNEL32.dll
 0002:00000210       __imp__GetFileType@4       004d2210     kernel32:KERNEL32.dll
 0002:00000214       __imp__SetFilePointer@16   004d2214     kernel32:KERNEL32.dll
 0002:00000218       __imp__GetCurrentProcessId@0 004d2218     kernel32:KERNEL32.dll
 0002:0000021c       \177KERNEL32_NULL_THUNK_DATA 004d221c     kernel32:KERNEL32.dll
 0002:00000220       __imp__lua_pushstring      004d2220     lualibdll:LuaLibDll.dll
 0002:00000224       __imp__lua_tonumber        004d2224     lualibdll:LuaLibDll.dll
 0002:00000228       __imp__lua_gettop          004d2228     lualibdll:LuaLibDll.dll
 0002:0000022c       __imp__lua_tostring        004d222c     lualibdll:LuaLibDll.dll
 0002:00000230       \177LuaLibDll_NULL_THUNK_DATA 004d2230     lualibdll:LuaLibDll.dll
 0002:00000234       __imp__SysAllocString@4    004d2234     oleaut32:OLEAUT32.dll
 0002:00000238       __imp__VariantChangeType@16 004d2238     oleaut32:OLEAUT32.dll
 0002:0000023c       __imp__SysFreeString@4     004d223c     oleaut32:OLEAUT32.dll
 0002:00000240       __imp__VariantInit@4       004d2240     oleaut32:OLEAUT32.dll
 0002:00000244       __imp__VariantClear@4      004d2244     oleaut32:OLEAUT32.dll
 0002:00000248       __imp__SetErrorInfo@8      004d2248     oleaut32:OLEAUT32.dll
 0002:0000024c       __imp__GetErrorInfo@8      004d224c     oleaut32:OLEAUT32.dll
 0002:00000250       __imp__CreateErrorInfo@4   004d2250     oleaut32:OLEAUT32.dll
 0002:00000254       \177OLEAUT32_NULL_THUNK_DATA 004d2254     oleaut32:OLEAUT32.dll
 0002:00000258       __imp__DispatchMessageA@4  004d2258     user32:USER32.dll
 0002:0000025c       __imp__TranslateMessage@4  004d225c     user32:USER32.dll
 0002:00000260       __imp__TranslateAcceleratorA@12 004d2260     user32:USER32.dll
 0002:00000264       __imp__GetMessageA@16      004d2264     user32:USER32.dll
 0002:00000268       __imp__GetDlgItemTextA@16  004d2268     user32:USER32.dll
 0002:0000026c       __imp__EndDialog@8         004d226c     user32:USER32.dll
 0002:00000270       __imp__BeginPaint@8        004d2270     user32:USER32.dll
 0002:00000274       __imp__EndPaint@8          004d2274     user32:USER32.dll
 0002:00000278       __imp__wsprintfA           004d2278     user32:USER32.dll
 0002:0000027c       __imp__PostQuitMessage@4   004d227c     user32:USER32.dll
 0002:00000280       __imp__DestroyWindow@4     004d2280     user32:USER32.dll
 0002:00000284       __imp__LoadAcceleratorsA@8 004d2284     user32:USER32.dll
 0002:00000288       __imp__CreateWindowExA@48  004d2288     user32:USER32.dll
 0002:0000028c       __imp__GetClientRect@8     004d228c     user32:USER32.dll
 0002:00000290       __imp__DefWindowProcA@16   004d2290     user32:USER32.dll
 0002:00000294       __imp__UpdateWindow@4      004d2294     user32:USER32.dll
 0002:00000298       __imp__SendMessageA@16     004d2298     user32:USER32.dll
 0002:0000029c       __imp__LoadIconA@8         004d229c     user32:USER32.dll
 0002:000002a0       __imp__LoadCursorA@8       004d22a0     user32:USER32.dll
 0002:000002a4       __imp__RegisterClassExA@4  004d22a4     user32:USER32.dll
 0002:000002a8       __imp__DialogBoxParamA@20  004d22a8     user32:USER32.dll
 0002:000002ac       __imp__MessageBoxA@16      004d22ac     user32:USER32.dll
 0002:000002b0       __imp__LoadStringA@16      004d22b0     user32:USER32.dll
 0002:000002b4       __imp__PostMessageA@16     004d22b4     user32:USER32.dll
 0002:000002b8       __imp__SetTimer@16         004d22b8     user32:USER32.dll
 0002:000002bc       __imp__KillTimer@8         004d22bc     user32:USER32.dll
 0002:000002c0       __imp__MoveWindow@24       004d22c0     user32:USER32.dll
 0002:000002c4       __imp__ShowWindow@8        004d22c4     user32:USER32.dll
 0002:000002c8       \177USER32_NULL_THUNK_DATA 004d22c8     user32:USER32.dll
 0002:000002cc       __imp__inet_ntoa@4         004d22cc     Ws2_32:WS2_32.dll
 0002:000002d0       __imp__inet_addr@4         004d22d0     Ws2_32:WS2_32.dll
 0002:000002d4       \177WS2_32_NULL_THUNK_DATA 004d22d4     Ws2_32:WS2_32.dll
 0002:000002d8       __imp__CoCreateInstance@20 004d22d8     ole32:ole32.dll
 0002:000002dc       __imp__CoUninitialize@0    004d22dc     ole32:ole32.dll
 0002:000002e0       __imp__CLSIDFromString@8   004d22e0     ole32:ole32.dll
 0002:000002e4       __imp__CoInitializeEx@8    004d22e4     ole32:ole32.dll
 0002:000002e8       __imp__CLSIDFromProgID@8   004d22e8     ole32:ole32.dll
 0002:000002ec       __imp__OleRun@4            004d22ec     ole32:ole32.dll
 0002:000002f0       \177ole32_NULL_THUNK_DATA  004d22f0     ole32:ole32.dll
 0002:000003e0       ??_7CChannelMgr@@6B@       004d23e0     ChannelMgr.obj
 0002:000003e4       ?_C@?1??_Nullstr@?$basic_string@DU?$char_traits@D@std@@V?$allocator@D@2@@std@@CAPBDXZ@4DB 004d23e4     ChannelMgr.obj
 0002:000003e8       ?npos@?$basic_string@DU?$char_traits@D@std@@V?$allocator@D@2@@std@@2IB 004d23e8     ChannelMgr.obj
 0002:000003ec       ??_7CNetConnectDup@@6B@    004d23ec     ChannelMgr.obj
 0002:000003f0       ??_7CChatConnect@@6BIMessageProcess@@@ 004d23f0     ChatConnect.obj
 0002:000003f4       ??_7CChatConnect@@6BKThread@@@ 004d23f4     ChatConnect.obj
 0002:0000041c       ??_7CChatServer@@6B@       004d241c     ChatServer.obj
 0002:00000438       ??_7CDBCenter@@6B@         004d2438     DBConnect.obj
 0002:0000044c       ??_7CDBClient@@6B@         004d244c     DBConnect.obj
 0002:00000480       ??_7ZDBTable@@6B@          004d2480     DBTable.obj
 0002:00000484       ??_7CDBTableReadOnly@@6B@  004d2484     DBTable.obj
 0002:00000488       ??_7CNetClientDup@@6B@     004d2488     DealRelay.obj
 0002:000004e0       ??_7CFriendMgr@@6B@        004d24e0     FriendMgr.obj
 0002:000004e4       ??_7CGatewayCenter@@6B@    004d24e4     GatewayCenter.obj
 0002:000004f8       ??_7CGatewayClient@@6B@    004d24f8     GatewayClient.obj
 0002:000005e4       ??_7CHeavenLib@@6B@        004d25e4     HeavenLib.obj
 0002:000005e8       ??_7CHostConnect@@6BIMessageProcess@@@ 004d25e8     HostConnect.obj
 0002:000005ec       ??_7CHostConnect@@6BKThread@@@ 004d25ec     HostConnect.obj
 0002:0000061c       ??_7CHostServer@@6B@       004d261c     HostServer.obj
 0002:00000638       ??_7KThread@@6B@           004d2638     KThread.obj
 0002:0000064c       ??_7CLockSRSW@@6B@         004d264c     Lock.obj
 0002:00000660       ??_7ALock@@6B@             004d2660     Lock.obj
 0002:00000674       ??_7CLockMRSW@@6B@         004d2674     Lock.obj
 0002:00000694       ??_7CLogFile@@6B@          004d2694     LogFile.obj
 0002:00000698       ??_7CMemory@@6B@           004d2698     Memory.obj
 0002:0000069c       ??_7CNetCenter@@6B@        004d269c     NetCenter.obj
 0002:000006b0       ??_7CNetClient@@6B@        004d26b0     NetClient.obj
 0002:000006e4       ??_7CNetConnect@@6BIMessageProcess@@@ 004d26e4     NetConnect.obj
 0002:000006e8       ??_7CNetConnect@@6BKThread@@@ 004d26e8     NetConnect.obj
 0002:00000710       ??_7IMessageProcess@@6B@   004d2710     NetConnect.obj
 0002:00000714       ??_7CNetServer@@6B@        004d2714     NetServer.obj
 0002:00000730       ??_7CNetSockDupEx@@6B@     004d2730     NetSockDupEx.obj
 0002:00000734       ??_7CRainbowLib@@6B@       004d2734     RainbowLib.obj
 0002:00000738       ??_7CRelayCenter@@6B@      004d2738     RelayCenter.obj
 0002:0000074c       ??_7CRelayClient@@6B@      004d274c     RelayClient.obj
 0002:00000780       ??_7CRelayConnect@@6BIMessageProcess@@@ 004d2780     RelayConnect.obj
 0002:00000784       ??_7CRelayConnect@@6BKThread@@@ 004d2784     RelayConnect.obj
 0002:000007ac       ??_7CRelayServer@@6B@      004d27ac     RelayServer.obj
 0002:000007c8       ??_7CRootCenter@@6B@       004d27c8     RootCenter.obj
 0002:000007dc       ??_7CRootClient@@6B@       004d27dc     RootClient.obj
 0002:00000810       ??_7S3PDB_MSSQLServer_Connection@@6B@ 004d2810     S3PDB_MSSQLServer_Connection.obj
 0002:00000820       ??_7S3P_MSSQLServer_Result@@6B@ 004d2820     S3PDB_MSSQLServer_Connection.obj
 0002:00000838       ??_7S3PDBConVBC@@6B@       004d2838     S3PDBConVBC.obj
 0002:00000848       ??_7S3PResultVBC@@6B@      004d2848     S3PResultVBC.obj
 0002:00000860       _IID_IIOCPServer           004d2860     S3Relay.obj
 0002:00000870       _IID_IServerFactory        004d2870     S3Relay.obj
 0002:00000880       _IID_IESClient             004d2880     S3Relay.obj
 0002:00000890       _IID_IClientFactory        004d2890     S3Relay.obj
 0002:000008a0       _IID_IPropertyFrame        004d28a0     S3Relay.obj
 0002:000008b0       _CLSID_CFontPropPage       004d28b0     S3Relay.obj
 0002:000008c0       _CLSID_CColorPropPage      004d28c0     S3Relay.obj
 0002:000008d0       _CLSID_CPicturePropPage    004d28d0     S3Relay.obj
 0002:000008e0       _CLSID_PersistPropset      004d28e0     S3Relay.obj
 0002:000008f0       _CLSID_ConvertVBX          004d28f0     S3Relay.obj
 0002:00000900       _CLSID_StdFont             004d2900     S3Relay.obj
 0002:00000910       _CLSID_StdPicture          004d2910     S3Relay.obj
 0002:00000920       _GUID_HIMETRIC             004d2920     S3Relay.obj
 0002:00000930       _GUID_COLOR                004d2930     S3Relay.obj
 0002:00000940       _GUID_XPOSPIXEL            004d2940     S3Relay.obj
 0002:00000950       _GUID_YPOSPIXEL            004d2950     S3Relay.obj
 0002:00000960       _GUID_XSIZEPIXEL           004d2960     S3Relay.obj
 0002:00000970       _GUID_YSIZEPIXEL           004d2970     S3Relay.obj
 0002:00000980       _GUID_XPOS                 004d2980     S3Relay.obj
 0002:00000990       _GUID_YPOS                 004d2990     S3Relay.obj
 0002:000009a0       _GUID_XSIZE                004d29a0     S3Relay.obj
 0002:000009b0       _GUID_YSIZE                004d29b0     S3Relay.obj
 0002:000009c0       _GUID_OPTIONVALUEEXCLUSIVE 004d29c0     S3Relay.obj
 0002:000009d0       _GUID_CHECKVALUEEXCLUSIVE  004d29d0     S3Relay.obj
 0002:000009e0       _GUID_FONTNAME             004d29e0     S3Relay.obj
 0002:000009f0       _GUID_FONTSIZE             004d29f0     S3Relay.obj
 0002:00000a00       _GUID_FONTBOLD             004d2a00     S3Relay.obj
 0002:00000a10       _GUID_FONTITALIC           004d2a10     S3Relay.obj
 0002:00000a20       _GUID_FONTUNDERSCORE       004d2a20     S3Relay.obj
 0002:00000a30       _GUID_FONTSTRIKETHROUGH    004d2a30     S3Relay.obj
 0002:00000a40       _GUID_HANDLE               004d2a40     S3Relay.obj
 0002:00000a5c       ??_7CSockThread@@6B@       004d2a5c     SockThread.obj
 0002:00000a80       ??_7CTongConnect@@6BIMessageProcess@@@ 004d2a80     TongConnect.obj
 0002:00000a84       ??_7CTongConnect@@6BKThread@@@ 004d2a84     TongConnect.obj
 0002:00000aac       ??_7CTongServer@@6B@       004d2aac     TongServer.obj
 0002:00000ac8       ??_7CTongControl@@6B@      004d2ac8     KTongControl.obj
 0002:00000acc       ??_7CTongSet@@6B@          004d2acc     KTongSet.obj
 0002:00000ad0       ??_7CTongDB@@6B@           004d2ad0     TONGDB.OBJ
 0002:00000ad4       ??_C@_0L@OFGA@dbgdel?4cpp?$AA@ 004d2ad4     LIBCMTD:dbgdel.obj
 0002:00000ae0       ??_C@_0CH@PHOC@_BLOCK_TYPE_IS_VALID?$CIpHead?9?$DOnBlo@ 004d2ae0     LIBCMTD:dbgdel.obj
 0002:00000b08       ??_C@_08CEA@onexit?4c?$AA@ 004d2b08     LIBCMTD:onexit.obj
 0002:00000b14       ??_C@_0P@LNLA@format?5?$CB?$DN?5NULL?$AA@ 004d2b14     LIBCMTD:sprintf.obj
 0002:00000b24       ??_C@_09NEAG@sprintf?4c?$AA@ 004d2b24     LIBCMTD:sprintf.obj
 0002:00000b30       ??_C@_0P@OOIN@string?5?$CB?$DN?5NULL?$AA@ 004d2b30     LIBCMTD:sprintf.obj
 0002:00000b40       ??_C@_06DPMO@Client?$AA@   004d2b40     LIBCMTD:dbgheap.obj
 0002:00000b48       ??_C@_06BAFM@Ignore?$AA@   004d2b48     LIBCMTD:dbgheap.obj
 0002:00000b50       ??_C@_03DICE@CRT?$AA@      004d2b50     LIBCMTD:dbgheap.obj
 0002:00000b54       ??_C@_06BILL@Normal?$AA@   004d2b54     LIBCMTD:dbgheap.obj
 0002:00000b5c       ??_C@_04NEN@Free?$AA@      004d2b5c     LIBCMTD:dbgheap.obj
 0002:00000b64       ??_C@_0DC@CGID@Error?3?5memory?5allocation?3?5bad?5me@ 004d2b64     LIBCMTD:dbgheap.obj
 0002:00000b98       ??_C@_0CE@FMIA@Invalid?5allocation?5size?3?5?$CFu?5byte@ 004d2b98     LIBCMTD:dbgheap.obj
 0002:00000bbc       ??_C@_02DILL@?$CFs?$AA@    004d2bbc     LIBCMTD:dbgheap.obj
 0002:00000bc0       ??_C@_0CB@CPBI@Client?5hook?5allocation?5failure?4?6@ 004d2bc0     LIBCMTD:dbgheap.obj
 0002:00000be4       ??_C@_0DF@DKHF@Client?5hook?5allocation?5failure?5a@ 004d2be4     LIBCMTD:dbgheap.obj
 0002:00000c1c       ??_C@_09IMJC@dbgheap?4c?$AA@ 004d2c1c     LIBCMTD:dbgheap.obj
 0002:00000c28       ??_C@_0BC@EPKL@_CrtCheckMemory?$CI?$CJ?$AA@ 004d2c28     LIBCMTD:dbgheap.obj
 0002:00000c3c       ??_C@_0BK@JDHA@_pFirstBlock?5?$DN?$DN?5pOldBlock?$AA@ 004d2c3c     LIBCMTD:dbgheap.obj
 0002:00000c58       ??_C@_0BJ@NMEF@_pLastBlock?5?$DN?$DN?5pOldBlock?$AA@ 004d2c58     LIBCMTD:dbgheap.obj
 0002:00000c74       ??_C@_0DC@BOCN@fRealloc?5?$HM?$HM?5?$CI?$CBfRealloc?5?$CG?$CG?5pNewBl@ 004d2c74     LIBCMTD:dbgheap.obj
 0002:00000ca8       ??_C@_0DK@DKOM@_BLOCK_TYPE?$CIpOldBlock?9?$DOnBlockUse@ 004d2ca8     LIBCMTD:dbgheap.obj
 0002:00000ce4       ??_C@_0EF@EDKM@pOldBlock?9?$DOnLine?5?$DN?$DN?5IGNORE_LINE?5@ 004d2ce4     LIBCMTD:dbgheap.obj
 0002:00000d2c       ??_C@_0CC@GPMO@_CrtIsValidHeapPointer?$CIpUserData@ 004d2d2c     LIBCMTD:dbgheap.obj
 0002:00000d50       ??_C@_0CN@FHGE@Allocation?5too?5large?5or?5negative@ 004d2d50     LIBCMTD:dbgheap.obj
 0002:00000d80       ??_C@_0CE@EAMN@Client?5hook?5re?9allocation?5failur@ 004d2d80     LIBCMTD:dbgheap.obj
 0002:00000da4       ??_C@_0DI@KKMM@Client?5hook?5re?9allocation?5failur@ 004d2da4     LIBCMTD:dbgheap.obj
 0002:00000ddc       ??_C@_0BG@JCEC@_pFirstBlock?5?$DN?$DN?5pHead?$AA@ 004d2ddc     LIBCMTD:dbgheap.obj
 0002:00000df4       ??_C@_0BF@NLNN@_pLastBlock?5?$DN?$DN?5pHead?$AA@ 004d2df4     LIBCMTD:dbgheap.obj
 0002:00000e0c       ??_C@_0BO@PLHH@pHead?9?$DOnBlockUse?5?$DN?$DN?5nBlockUse?$AA@ 004d2e0c     LIBCMTD:dbgheap.obj
 0002:00000e2c       ??_C@_0DN@KKIO@pHead?9?$DOnLine?5?$DN?$DN?5IGNORE_LINE?5?$CG?$CG?5p@ 004d2e2c     LIBCMTD:dbgheap.obj
 0002:00000e6c       ??_C@_0CK@OJNB@DAMAGE?3?5after?5?$CFhs?5block?5?$CI?$CD?$CFd?$CJ?5at@ 004d2e6c     LIBCMTD:dbgheap.obj
 0002:00000e98       ??_C@_0CL@IJIL@DAMAGE?3?5before?5?$CFhs?5block?5?$CI?$CD?$CFd?$CJ?5a@ 004d2e98     LIBCMTD:dbgheap.obj
 0002:00000ec4       ??_C@_0BL@MBNA@Client?5hook?5free?5failure?4?6?$AA@ 004d2ec4     LIBCMTD:dbgheap.obj
 0002:00000ee0       ??_C@_0DK@EKKL@memory?5check?5error?5at?50x?$CF08X?5?$DN?50@ 004d2ee0     LIBCMTD:dbgheap.obj
 0002:00000f1c       ??_C@_0CJ@GCII@?$CFhs?5located?5at?50x?$CF08X?5is?5?$CFu?5byte@ 004d2f1c     LIBCMTD:dbgheap.obj
 0002:00000f48       ??_C@_0CA@EJPI@?$CFhs?5allocated?5at?5file?5?$CFhs?$CI?$CFd?$CJ?4?6?$AA@ 004d2f48     LIBCMTD:dbgheap.obj
 0002:00000f68       ??_C@_0CJ@LHHG@DAMAGE?3?5on?5top?5of?5Free?5block?5at?5@ 004d2f68     LIBCMTD:dbgheap.obj
 0002:00000f94       ??_C@_07GJHM@DAMAGED?$AA@  004d2f94     LIBCMTD:dbgheap.obj
 0002:00000f9c       ??_C@_0CL@ODIE@_heapchk?5fails?5with?5unknown?5retu@ 004d2f9c     LIBCMTD:dbgheap.obj
 0002:00000fc8       ??_C@_0CC@EHNC@_heapchk?5fails?5with?5_HEAPBADPTR?4@ 004d2fc8     LIBCMTD:dbgheap.obj
 0002:00000fec       ??_C@_0CC@JNDP@_heapchk?5fails?5with?5_HEAPBADEND?4@ 004d2fec     LIBCMTD:dbgheap.obj
 0002:00001010       ??_C@_0CD@DNMG@_heapchk?5fails?5with?5_HEAPBADNODE@ 004d3010     LIBCMTD:dbgheap.obj
 0002:00001034       ??_C@_0CE@JMCB@_heapchk?5fails?5with?5_HEAPBADBEGI@ 004d3034     LIBCMTD:dbgheap.obj
 0002:00001058       ??_C@_0CD@MEMI@Bad?5memory?5block?5found?5at?50x?$CF08X@ 004d3058     LIBCMTD:dbgheap.obj
 0002:0000107c       ??_C@_0CI@GMAO@_CrtMemCheckPoint?3?5NULL?5state?5po@ 004d307c     LIBCMTD:dbgheap.obj
 0002:000010a4       ??_C@_0CI@MNAE@_CrtMemDifference?3?5NULL?5state?5po@ 004d30a4     LIBCMTD:dbgheap.obj
 0002:000010cc       ??_C@_0BH@PKIJ@Object?5dump?5complete?4?6?$AA@ 004d30cc     LIBCMTD:dbgheap.obj
 0002:000010e4       ??_C@_0DB@DBPF@crt?5block?5at?50x?$CF08X?0?5subtype?5?$CFx?0@ 004d30e4     LIBCMTD:dbgheap.obj
 0002:00001118       ??_C@_0CI@JLM@normal?5block?5at?50x?$CF08X?0?5?$CFu?5bytes@ 004d3118     LIBCMTD:dbgheap.obj
 0002:00001140       ??_C@_0DE@PFEA@client?5block?5at?50x?$CF08X?0?5subtype?5@ 004d3140     LIBCMTD:dbgheap.obj
 0002:00001174       ??_C@_06MBCE@?$HL?$CFld?$HN?5?$AA@ 004d3174     LIBCMTD:dbgheap.obj
 0002:0000117c       ??_C@_0L@BLDJ@?$CFhs?$CI?$CFd?$CJ?5?3?5?$AA@ 004d317c     LIBCMTD:dbgheap.obj
 0002:00001188       ??_C@_0BE@FEMA@?$CDFile?5Error?$CD?$CI?$CFd?$CJ?5?3?5?$AA@ 004d3188     LIBCMTD:dbgheap.obj
 0002:0000119c       ??_C@_0BE@FPPM@Dumping?5objects?5?9?$DO?6?$AA@ 004d319c     LIBCMTD:dbgheap.obj
 0002:000011b0       ??_C@_0BA@POLM@?5Data?3?5?$DM?$CFs?$DO?5?$CFs?6?$AA@ 004d31b0     LIBCMTD:dbgheap.obj
 0002:000011c0       ??_C@_05JLAO@?$CF?42X?5?$AA@ 004d31c0     LIBCMTD:dbgheap.obj
 0002:000011c8       ??_C@_0BI@KONA@Detected?5memory?5leaks?$CB?6?$AA@ 004d31c8     LIBCMTD:dbgheap.obj
 0002:000011e0       ??_C@_0BP@LCCN@Total?5allocations?3?5?$CFld?5bytes?4?6?$AA@ 004d31e0     LIBCMTD:dbgheap.obj
 0002:00001200       ??_C@_0CB@COID@Largest?5number?5used?3?5?$CFld?5bytes?4?6@ 004d3200     LIBCMTD:dbgheap.obj
 0002:00001224       ??_C@_0BO@MEJD@?$CFld?5bytes?5in?5?$CFld?5?$CFhs?5Blocks?4?6?$AA@ 004d3224     LIBCMTD:dbgheap.obj
 0002:00001244       ??_C@_08PHBD@fclose?4c?$AA@ 004d3244     LIBCMTD:fclose.obj
 0002:00001250       ??_C@_0P@FHEA@stream?5?$CB?$DN?5NULL?$AA@ 004d3250     LIBCMTD:fclose.obj
 0002:00001260       ??_C@_0M@KJPK@str?5?$CB?$DN?5NULL?$AA@ 004d3260     LIBCMTD:fclose.obj
 0002:0000126c       ??_C@_07CMIP@ftell?4c?$AA@ 004d326c     LIBCMTD:ftell.obj
 0002:00001274       ??_C@_07HFEM@fseek?4c?$AA@ 004d3274     LIBCMTD:fseek.obj
 0002:0000127c       ??_C@_0BC@IPFL@?$CKmode?5?$CB?$DN?5_T?$CI?8?20?8?$CJ?$AA@ 004d327c     LIBCMTD:fopen.obj
 0002:00001290       ??_C@_0N@BKPP@mode?5?$CB?$DN?5NULL?$AA@ 004d3290     LIBCMTD:fopen.obj
 0002:000012a0       ??_C@_0BC@GOED@?$CKfile?5?$CB?$DN?5_T?$CI?8?20?8?$CJ?$AA@ 004d32a0     LIBCMTD:fopen.obj
 0002:000012b4       ??_C@_07OMGG@fopen?4c?$AA@ 004d32b4     LIBCMTD:fopen.obj
 0002:000012bc       ??_C@_0N@MCKG@file?5?$CB?$DN?5NULL?$AA@ 004d32bc     LIBCMTD:fopen.obj
 0002:000012cc       ??_C@_0L@OPJO@vfprintf?4c?$AA@ 004d32cc     LIBCMTD:vfprintf.obj
 0002:000012d8       ??_C@_0L@BOLO@threadex?4c?$AA@ 004d32d8     LIBCMTD:threadex.obj
 0002:000012f8       ??_7type_info@@6B@         004d32f8     LIBCMTD:typinfo.obj
 0002:00001320       ??_C@_0L@HE@vsprintf?4c?$AA@ 004d3320     LIBCMTD:vsprintf.obj
 0002:00001384       ??_C@_0L@ENLJ@tidtable?4c?$AA@ 004d3384     LIBCMTD:tidtable.obj
 0002:000013c0       ??_C@_07PDLA@mlock?4c?$AA@ 004d33c0     LIBCMTD:mlock.obj
 0002:000013c8       ??_C@_0BB@BLL@Assertion?5Failed?$AA@ 004d33c8     LIBCMTD:dbgrpt.obj
 0002:000013dc       ??_C@_05CKBG@Error?$AA@    004d33dc     LIBCMTD:dbgrpt.obj
 0002:000013e4       ??_C@_07JCGI@Warning?$AA@  004d33e4     LIBCMTD:dbgrpt.obj
 0002:000013ec       ??_C@_0M@ODEP@?$CFs?$CI?$CFd?$CJ?5?3?5?$CFs?$AA@ 004d33ec     LIBCMTD:dbgrpt.obj
 0002:000013f8       ??_C@_01BJG@?6?$AA@        004d33f8     LIBCMTD:dbgrpt.obj
 0002:000013fc       ??_C@_01FEHD@?$AN?$AA@     004d33fc     LIBCMTD:dbgrpt.obj
 0002:00001400       ??_C@_0BC@OIMC@Assertion?5failed?$CB?$AA@ 004d3400     LIBCMTD:dbgrpt.obj
 0002:00001414       ??_C@_0BD@BEAK@Assertion?5failed?3?5?$AA@ 004d3414     LIBCMTD:dbgrpt.obj
 0002:00001428       ??_C@_0CL@LCCP@_CrtDbgReport?3?5String?5too?5long?5o@ 004d3428     LIBCMTD:dbgrpt.obj
 0002:00001454       ??_C@_0DC@EMDK@Second?5Chance?5Assertion?5Failed?3?5@ 004d3454     LIBCMTD:dbgrpt.obj
 0002:00001488       ??_C@_09NJAK@wsprintfA?$AA@ 004d3488     LIBCMTD:dbgrpt.obj
 0002:00001494       ??_C@_0L@HKL@user32?4dll?$AA@ 004d3494     LIBCMTD:dbgrpt.obj
 0002:000014a0       ??_C@_0CD@GCMD@Microsoft?5Visual?5C?$CL?$CL?5Debug?5Libra@ 004d34a0     LIBCMTD:dbgrpt.obj
 0002:000014c4       ??_C@_0FD@EBDD@Debug?5?$CFs?$CB?6?6Program?3?5?$CFs?$CFs?$CFs?$CFs?$CFs?$CFs@ 004d34c4     LIBCMTD:dbgrpt.obj
 0002:00001518       ??_C@_09DCKN@?6Module?3?5?$AA@ 004d3518     LIBCMTD:dbgrpt.obj
 0002:00001524       ??_C@_07HJII@?6File?3?5?$AA@ 004d3524     LIBCMTD:dbgrpt.obj
 0002:0000152c       ??_C@_07LFGN@?6Line?3?5?$AA@ 004d352c     LIBCMTD:dbgrpt.obj
 0002:00001534       ??_C@_02JJJH@?6?6?$AA@     004d3534     LIBCMTD:dbgrpt.obj
 0002:00001538       ??_C@_0N@NOAB@Expression?3?5?$AA@ 004d3538     LIBCMTD:dbgrpt.obj
 0002:00001548       ??_C@_0HD@BHFH@?6?6For?5information?5on?5how?5your?5pr@ 004d3548     LIBCMTD:dbgrpt.obj
 0002:000015bc       ??_C@_03NAME@?4?4?4?$AA@   004d35bc     LIBCMTD:dbgrpt.obj
 0002:000015c0       ??_C@_0BH@NNCD@?$DMprogram?5name?5unknown?$DO?$AA@ 004d35c0     LIBCMTD:dbgrpt.obj
 0002:000015d8       ??_C@_08GFHP@dbgrpt?4c?$AA@ 004d35d8     LIBCMTD:dbgrpt.obj
 0002:000015e4       ??_C@_0BG@FBEA@szUserMessage?5?$CB?$DN?5NULL?$AA@ 004d35e4     LIBCMTD:dbgrpt.obj
 0002:000015fc       ??_C@_0DP@IHIN@?$CI?$CCinconsistent?5IOB?5fields?$CC?0?5stre@ 004d35fc     LIBCMTD:_flsbuf.obj
 0002:0000163c       ??_C@_09LGEI@_flsbuf?4c?$AA@ 004d363c     LIBCMTD:_flsbuf.obj
 0002:00001648       ___lookuptable             004d3648     LIBCMTD:output.obj
 0002:000016a4       ??_C@_1O@POHA@?$AA?$CI?$AAn?$AAu?$AAl?$AAl?$AA?$CJ?$AA?$AA@ 004d36a4     LIBCMTD:output.obj
 0002:000016b4       ??_C@_06ONKE@?$CInull?$CJ?$AA@ 004d36b4     LIBCMTD:output.obj
 0002:000016bc       ??_C@_08MIHI@output?4c?$AA@ 004d36bc     LIBCMTD:output.obj
 0002:000016c8       ??_C@_0P@PIHB@ch?5?$CB?$DN?5_T?$CI?8?20?8?$CJ?$AA@ 004d36c8     LIBCMTD:output.obj
 0002:000016d8       __real@8@3fff8000000000000000 004d36d8     LIBCMTD:testfdiv.obj
 0002:000016e0       ??_C@_0BK@JEGK@IsProcessorFeaturePresent?$AA@ 004d36e0     LIBCMTD:testfdiv.obj
 0002:000016fc       ??_C@_08OBID@KERNEL32?$AA@ 004d36fc     LIBCMTD:testfdiv.obj
 0002:00001708       __real@8@00000000000000000000 004d3708     LIBCMTD:cvt.obj
 0002:00001710       ??_C@_05OFLO@e?$CL000?$AA@ 004d3710     LIBCMTD:cvt.obj
 0002:00001718       ??_C@_07HPAH@_file?4c?$AA@ 004d3718     LIBCMTD:_file.obj
 0002:00001720       ??_C@_0L@JIE@_freebuf?4c?$AA@ 004d3720     LIBCMTD:_freebuf.obj
 0002:0000172c       ??_C@_09DNOI@_filbuf?4c?$AA@ 004d372c     LIBCMTD:_filbuf.obj
 0002:00001738       ??_C@_08KFDJ@ioinit?4c?$AA@ 004d3738     LIBCMTD:ioinit.obj
 0002:00001744       ??_C@_07INLA@_open?4c?$AA@ 004d3744     LIBCMTD:_open.obj
 0002:0000174c       ??_C@_0BB@COCE@filename?5?$CB?$DN?5NULL?$AA@ 004d374c     LIBCMTD:_open.obj
 0002:00001760       ??_C@_08HJEP@stream?4c?$AA@ 004d3760     LIBCMTD:stream.obj
 0002:0000176c       ??_C@_09JNND@_sftbuf?4c?$AA@ 004d376c     LIBCMTD:_sftbuf.obj
 0002:00001778       ??_C@_0BH@EOPG@flag?5?$DN?$DN?50?5?$HM?$HM?5flag?5?$DN?$DN?51?$AA@ 004d3778     LIBCMTD:_sftbuf.obj
 0002:00001790       ??_C@_01A@?$AA?$AA@        004d3790     LIBCMTD:a_map.obj
 0002:00001794       ??_C@_13A@?$AA?$AA?$AA?$AA@ 004d3794     LIBCMTD:a_map.obj
 0002:000017b0       ___dnames                  004d37b0     LIBCMTD:timeset.obj
 0002:000017c8       ___mnames                  004d37c8     LIBCMTD:timeset.obj
 0002:000017f0       ??_C@_07DEKI@tzset?4c?$AA@ 004d37f0     LIBCMTD:tzset.obj
 0002:000017f8       ??_C@_02JHIA@TZ?$AA@       004d37f8     LIBCMTD:tzset.obj
 0002:000017fc       ??_C@_08LLGM@gmtime?4c?$AA@ 004d37fc     LIBCMTD:gmtime.obj
 0002:00001808       ??_C@_09IGKD@stdenvp?4c?$AA@ 004d3808     LIBCMTD:stdenvp.obj
 0002:00001814       ??_C@_09MPMN@stdargv?4c?$AA@ 004d3814     LIBCMTD:stdargv.obj
 0002:00001820       ??_C@_07BNNE@a_env?4c?$AA@ 004d3820     LIBCMTD:a_env.obj
 0002:00001828       ??_C@_0P@GGKG@runtime?5error?5?$AA@ 004d3828     LIBCMTD:crt0msg.obj
 0002:00001838       ??_C@_0O@DELO@TLOSS?5error?$AN?6?$AA@ 004d3838     LIBCMTD:crt0msg.obj
 0002:00001848       ??_C@_0N@OMLL@SING?5error?$AN?6?$AA@ 004d3848     LIBCMTD:crt0msg.obj
 0002:00001858       ??_C@_0P@OJAK@DOMAIN?5error?$AN?6?$AA@ 004d3858     LIBCMTD:crt0msg.obj
 0002:00001868       ??_C@_0CF@EANP@R6028?$AN?6?9?5unable?5to?5initialize?5he@ 004d3868     LIBCMTD:crt0msg.obj
 0002:00001890       ??_C@_0DF@ECGN@R6027?$AN?6?9?5not?5enough?5space?5for?5lo@ 004d3890     LIBCMTD:crt0msg.obj
 0002:000018c8       ??_C@_0DF@FKAC@R6026?$AN?6?9?5not?5enough?5space?5for?5st@ 004d38c8     LIBCMTD:crt0msg.obj
 0002:00001900       ??_C@_0CG@DPMN@R6025?$AN?6?9?5pure?5virtual?5function?5c@ 004d3900     LIBCMTD:crt0msg.obj
 0002:00001928       ??_C@_0DF@CKIP@R6024?$AN?6?9?5not?5enough?5space?5for?5_o@ 004d3928     LIBCMTD:crt0msg.obj
 0002:00001960       ??_C@_0CJ@GGOE@R6019?$AN?6?9?5unable?5to?5open?5console?5@ 004d3960     LIBCMTD:crt0msg.obj
 0002:0000198c       ??_C@_0CB@LBOB@R6018?$AN?6?9?5unexpected?5heap?5error?$AN?6@ 004d398c     LIBCMTD:crt0msg.obj
 0002:000019b0       ??_C@_0CN@FPEG@R6017?$AN?6?9?5unexpected?5multithread?5@ 004d39b0     LIBCMTD:crt0msg.obj
 0002:000019e0       ??_C@_0CM@OBIC@R6016?$AN?6?9?5not?5enough?5space?5for?5th@ 004d39e0     LIBCMTD:crt0msg.obj
 0002:00001a0c       ??_C@_0CB@HPAL@?$AN?6abnormal?5program?5termination?$AN?6@ 004d3a0c     LIBCMTD:crt0msg.obj
 0002:00001a30       ??_C@_0CM@JOOB@R6009?$AN?6?9?5not?5enough?5space?5for?5en@ 004d3a30     LIBCMTD:crt0msg.obj
 0002:00001a5c       ??_C@_0CK@OIBL@R6008?$AN?6?9?5not?5enough?5space?5for?5ar@ 004d3a5c     LIBCMTD:crt0msg.obj
 0002:00001a88       ??_C@_0CF@LKPB@R6002?$AN?6?9?5floating?5point?5not?5load@ 004d3a88     LIBCMTD:crt0msg.obj
 0002:00001ab0       ??_C@_0CF@JPDF@Microsoft?5Visual?5C?$CL?$CL?5Runtime?5Lib@ 004d3ab0     LIBCMTD:crt0msg.obj
 0002:00001ad8       ??_C@_0BK@DEOK@Runtime?5Error?$CB?6?6Program?3?5?$AA@ 004d3ad8     LIBCMTD:crt0msg.obj
 0002:00001af4       ??_C@_08CNMA@winsig?4c?$AA@ 004d3af4     LIBCMTD:winsig.obj
 0002:00001b00       ??_C@_0BD@NJFP@GetLastActivePopup?$AA@ 004d3b00     LIBCMTD:crtmbox.obj
 0002:00001b14       ??_C@_0BA@GILI@GetActiveWindow?$AA@ 004d3b14     LIBCMTD:crtmbox.obj
 0002:00001b24       ??_C@_0M@PKCK@MessageBoxA?$AA@ 004d3b24     LIBCMTD:crtmbox.obj
 0002:00001b3c       ??_C@_09EMDO@_getbuf?4c?$AA@ 004d3b3c     LIBCMTD:_getbuf.obj
 0002:00001b48       ??_C@_09LNLM@osfinfo?4c?$AA@ 004d3b48     LIBCMTD:osfinfo.obj
 0002:00001b54       ??_C@_07PCLE@LC_TIME?$AA@  004d3b54     LIBCMTD:setlocal.obj
 0002:00001b5c       ??_C@_0L@NKG@LC_NUMERIC?$AA@ 004d3b5c     LIBCMTD:setlocal.obj
 0002:00001b68       ??_C@_0M@CBIH@LC_MONETARY?$AA@ 004d3b68     LIBCMTD:setlocal.obj
 0002:00001b74       ??_C@_08LFGE@LC_CTYPE?$AA@ 004d3b74     LIBCMTD:setlocal.obj
 0002:00001b80       ??_C@_0L@CFLC@LC_COLLATE?$AA@ 004d3b80     LIBCMTD:setlocal.obj
 0002:00001b8c       ??_C@_06GCPK@LC_ALL?$AA@   004d3b8c     LIBCMTD:setlocal.obj
 0002:00001b94       ??_C@_02BGDO@?$DN?$DL?$AA@ 004d3b94     LIBCMTD:setlocal.obj
 0002:00001b98       ??_C@_0L@MOEE@setlocal?4c?$AA@ 004d3b98     LIBCMTD:setlocal.obj
 0002:00001ba4       ??_C@_01KPOD@?$DN?$AA@     004d3ba4     LIBCMTD:setlocal.obj
 0002:00001ba8       ??_C@_03DBOJ@_?4?0?$AA@    004d3ba8     LIBCMTD:setlocal.obj
 0002:00001bac       ??_C@_01PJCK@?4?$AA@       004d3bac     LIBCMTD:setlocal.obj
 0002:00001bb0       ??_C@_01NON@_?$AA@         004d3bb0     LIBCMTD:setlocal.obj
 0002:00001bb4       ??_C@_06PAPI@1?$CDQNAN?$AA@ 004d3bb4     LIBCMTD:x10fout.obj
 0002:00001bbc       ??_C@_05BGNL@1?$CDINF?$AA@ 004d3bbc     LIBCMTD:x10fout.obj
 0002:00001bc4       ??_C@_05EDPF@1?$CDIND?$AA@ 004d3bc4     LIBCMTD:x10fout.obj
 0002:00001bcc       ??_C@_06LKFM@1?$CDSNAN?$AA@ 004d3bcc     LIBCMTD:x10fout.obj
 0002:00001bd4       ??_C@_08EIOK@chsize?4c?$AA@ 004d3bd4     LIBCMTD:chsize.obj
 0002:00001be0       ??_C@_09NPGF@size?5?$DO?$DN?50?$AA@ 004d3be0     LIBCMTD:chsize.obj
 0002:00001bec       ??_C@_0L@EEGJ@inittime?4c?$AA@ 004d3bec     LIBCMTD:inittime.obj
 0002:00001bf8       ??_C@_09IMJJ@initnum?4c?$AA@ 004d3bf8     LIBCMTD:initnum.obj
 0002:00001c04       ??_C@_09KPNI@initmon?4c?$AA@ 004d3c04     LIBCMTD:initmon.obj
 0002:00001c10       ??_C@_0L@COIL@initctyp?4c?$AA@ 004d3c10     LIBCMTD:initctyp.obj
 0002:00001c1c       ??_C@_08OBJD@Paraguay?$AA@ 004d3c1c     LIBCMTD:getqloc.obj
 0002:00001c28       ??_C@_07GLKH@Uruguay?$AA@  004d3c28     LIBCMTD:getqloc.obj
 0002:00001c30       ??_C@_05FPFC@Chile?$AA@    004d3c30     LIBCMTD:getqloc.obj
 0002:00001c38       ??_C@_07IIGF@Ecuador?$AA@  004d3c38     LIBCMTD:getqloc.obj
 0002:00001c40       ??_C@_09PKAL@Argentina?$AA@ 004d3c40     LIBCMTD:getqloc.obj
 0002:00001c4c       ??_C@_04LKAH@Peru?$AA@     004d3c4c     LIBCMTD:getqloc.obj
 0002:00001c54       ??_C@_08NEEM@Colombia?$AA@ 004d3c54     LIBCMTD:getqloc.obj
 0002:00001c60       ??_C@_09ODEB@Venezuela?$AA@ 004d3c60     LIBCMTD:getqloc.obj
 0002:00001c6c       ??_C@_0BD@CLEL@Dominican?5Republic?$AA@ 004d3c6c     LIBCMTD:getqloc.obj
 0002:00001c80       ??_C@_0N@MDGL@South?5Africa?$AA@ 004d3c80     LIBCMTD:getqloc.obj
 0002:00001c90       ??_C@_06NKBG@Panama?$AA@   004d3c90     LIBCMTD:getqloc.obj
 0002:00001c98       ??_C@_0L@BMHO@Luxembourg?$AA@ 004d3c98     LIBCMTD:getqloc.obj
 0002:00001ca4       ??_C@_0L@IMDK@Costa?5Rica?$AA@ 004d3ca4     LIBCMTD:getqloc.obj
 0002:00001cb0       ??_C@_0M@BLJF@Switzerland?$AA@ 004d3cb0     LIBCMTD:getqloc.obj
 0002:00001cbc       ??_C@_09KBOL@Guatemala?$AA@ 004d3cbc     LIBCMTD:getqloc.obj
 0002:00001cc8       ??_C@_06JNAK@Canada?$AA@   004d3cc8     LIBCMTD:getqloc.obj
 0002:00001cd0       ??_C@_0BG@OLLP@Spanish?5?9?5Modern?5Sort?$AA@ 004d3cd0     LIBCMTD:getqloc.obj
 0002:00001ce8       ??_C@_09IDKE@Australia?$AA@ 004d3ce8     LIBCMTD:getqloc.obj
 0002:00001cf4       ??_C@_07JJJJ@English?$AA@  004d3cf4     LIBCMTD:getqloc.obj
 0002:00001cfc       ??_C@_07NMDO@Austria?$AA@  004d3cfc     LIBCMTD:getqloc.obj
 0002:00001d04       ??_C@_06DEFE@German?$AA@   004d3d04     LIBCMTD:getqloc.obj
 0002:00001d0c       ??_C@_07JAIH@Belgium?$AA@  004d3d0c     LIBCMTD:getqloc.obj
 0002:00001d14       ??_C@_06BNLJ@Mexico?$AA@   004d3d14     LIBCMTD:getqloc.obj
 0002:00001d1c       ??_C@_07JHAG@Spanish?$AA@  004d3d1c     LIBCMTD:getqloc.obj
 0002:00001d24       ??_C@_06DADE@Basque?$AA@   004d3d24     LIBCMTD:getqloc.obj
 0002:00001d2c       ??_C@_06ENFP@Sweden?$AA@   004d3d2c     LIBCMTD:getqloc.obj
 0002:00001d34       ??_C@_07JPMH@Swedish?$AA@  004d3d34     LIBCMTD:getqloc.obj
 0002:00001d3c       ??_C@_07IEKF@Iceland?$AA@  004d3d3c     LIBCMTD:getqloc.obj
 0002:00001d44       ??_C@_09KNEA@Icelandic?$AA@ 004d3d44     LIBCMTD:getqloc.obj
 0002:00001d50       ??_C@_06IJOD@France?$AA@   004d3d50     LIBCMTD:getqloc.obj
 0002:00001d58       ??_C@_06EINI@French?$AA@   004d3d58     LIBCMTD:getqloc.obj
 0002:00001d60       ??_C@_07FOOE@Finland?$AA@  004d3d60     LIBCMTD:getqloc.obj
 0002:00001d68       ??_C@_07OJOM@Finnish?$AA@  004d3d68     LIBCMTD:getqloc.obj
 0002:00001d70       ??_C@_05FFAC@Spain?$AA@    004d3d70     LIBCMTD:getqloc.obj
 0002:00001d78       ??_C@_0BL@BIHM@Spanish?5?9?5Traditional?5Sort?$AA@ 004d3d78     LIBCMTD:getqloc.obj
 0002:00001d94       ??_C@_0O@GLHB@united?9states?$AA@ 004d3d94     LIBCMTD:getqloc.obj
 0002:00001da4       ??_C@_0P@IIKK@united?9kingdom?$AA@ 004d3da4     LIBCMTD:getqloc.obj
 0002:00001db4       ??_C@_0BC@FHBO@trinidad?5?$CG?5tobago?$AA@ 004d3db4     LIBCMTD:getqloc.obj
 0002:00001dc8       ??_C@_0M@BDFM@south?9korea?$AA@ 004d3dc8     LIBCMTD:getqloc.obj
 0002:00001dd4       ??_C@_0N@CKFA@south?9africa?$AA@ 004d3dd4     LIBCMTD:getqloc.obj
 0002:00001de4       ??_C@_0M@HNHN@south?5korea?$AA@ 004d3de4     LIBCMTD:getqloc.obj
 0002:00001df0       ??_C@_0N@MKDO@south?5africa?$AA@ 004d3df0     LIBCMTD:getqloc.obj
 0002:00001e00       ??_C@_06KFFJ@slovak?$AA@   004d3e00     LIBCMTD:getqloc.obj
 0002:00001e08       ??_C@_0M@NMAC@puerto?9rico?$AA@ 004d3e08     LIBCMTD:getqloc.obj
 0002:00001e14       ??_C@_08EJOH@pr?9china?$AA@ 004d3e14     LIBCMTD:getqloc.obj
 0002:00001e20       ??_C@_08CHMG@pr?5china?$AA@ 004d3e20     LIBCMTD:getqloc.obj
 0002:00001e2c       ??_C@_02OCJK@nz?$AA@       004d3e2c     LIBCMTD:getqloc.obj
 0002:00001e30       ??_C@_0M@MMKA@new?9zealand?$AA@ 004d3e30     LIBCMTD:getqloc.obj
 0002:00001e3c       ??_C@_09MGEH@hong?9kong?$AA@ 004d3e3c     LIBCMTD:getqloc.obj
 0002:00001e48       ??_C@_07CCAK@holland?$AA@  004d3e48     LIBCMTD:getqloc.obj
 0002:00001e50       ??_C@_0O@MEPL@great?5britain?$AA@ 004d3e50     LIBCMTD:getqloc.obj
 0002:00001e60       ??_C@_07LGIB@england?$AA@  004d3e60     LIBCMTD:getqloc.obj
 0002:00001e68       ??_C@_05BMOA@czech?$AA@    004d3e68     LIBCMTD:getqloc.obj
 0002:00001e70       ??_C@_05NMPB@china?$AA@    004d3e70     LIBCMTD:getqloc.obj
 0002:00001e78       ??_C@_07GN@britain?$AA@    004d3e78     LIBCMTD:getqloc.obj
 0002:00001e80       ??_C@_07DLAK@america?$AA@  004d3e80     LIBCMTD:getqloc.obj
 0002:00001e88       ??_C@_03IPEP@usa?$AA@      004d3e88     LIBCMTD:getqloc.obj
 0002:00001e8c       ??_C@_02PILH@us?$AA@       004d3e8c     LIBCMTD:getqloc.obj
 0002:00001e90       ??_C@_02FHP@uk?$AA@        004d3e90     LIBCMTD:getqloc.obj
 0002:00001e94       ??_C@_05DEAI@swiss?$AA@    004d3e94     LIBCMTD:getqloc.obj
 0002:00001e9c       ??_C@_0BA@LIAF@swedish?9finland?$AA@ 004d3e9c     LIBCMTD:getqloc.obj
 0002:00001eac       ??_C@_0BC@FMEG@spanish?9venezuela?$AA@ 004d3eac     LIBCMTD:getqloc.obj
 0002:00001ec0       ??_C@_0BA@BNMG@spanish?9uruguay?$AA@ 004d3ec0     LIBCMTD:getqloc.obj
 0002:00001ed0       ??_C@_0BE@BKDJ@spanish?9puerto?5rico?$AA@ 004d3ed0     LIBCMTD:getqloc.obj
 0002:00001ee4       ??_C@_0N@JIBL@spanish?9peru?$AA@ 004d3ee4     LIBCMTD:getqloc.obj
 0002:00001ef4       ??_C@_0BB@OGOF@spanish?9paraguay?$AA@ 004d3ef4     LIBCMTD:getqloc.obj
 0002:00001f08       ??_C@_0P@LLFA@spanish?9panama?$AA@ 004d3f08     LIBCMTD:getqloc.obj
 0002:00001f18       ??_C@_0BC@BBJM@spanish?9nicaragua?$AA@ 004d3f18     LIBCMTD:getqloc.obj
 0002:00001f2c       ??_C@_0P@NJBN@spanish?9modern?$AA@ 004d3f2c     LIBCMTD:getqloc.obj
 0002:00001f3c       ??_C@_0BA@NHDN@spanish?9mexican?$AA@ 004d3f3c     LIBCMTD:getqloc.obj
 0002:00001f4c       ??_C@_0BB@JHOJ@spanish?9honduras?$AA@ 004d3f4c     LIBCMTD:getqloc.obj
 0002:00001f60       ??_C@_0BC@BOOM@spanish?9guatemala?$AA@ 004d3f60     LIBCMTD:getqloc.obj
 0002:00001f74       ??_C@_0BE@EELI@spanish?9el?5salvador?$AA@ 004d3f74     LIBCMTD:getqloc.obj
 0002:00001f88       ??_C@_0BA@POAE@spanish?9ecuador?$AA@ 004d3f88     LIBCMTD:getqloc.obj
 0002:00001f98       ??_C@_0BL@LDKN@spanish?9dominican?5republic?$AA@ 004d3f98     LIBCMTD:getqloc.obj
 0002:00001fb4       ??_C@_0BD@HPMH@spanish?9costa?5rica?$AA@ 004d3fb4     LIBCMTD:getqloc.obj
 0002:00001fc8       ??_C@_0BB@NDDK@spanish?9colombia?$AA@ 004d3fc8     LIBCMTD:getqloc.obj
 0002:00001fdc       ??_C@_0O@BJHA@spanish?9chile?$AA@ 004d3fdc     LIBCMTD:getqloc.obj
 0002:00001fec       ??_C@_0BA@OBNG@spanish?9bolivia?$AA@ 004d3fec     LIBCMTD:getqloc.obj
 0002:00001ffc       ??_C@_0BC@EFAM@spanish?9argentina?$AA@ 004d3ffc     LIBCMTD:getqloc.obj
 0002:00002010       ??_C@_0BF@KMMM@portuguese?9brazilian?$AA@ 004d4010     LIBCMTD:getqloc.obj
 0002:00002028       ??_C@_0BC@BAAE@norwegian?9nynorsk?$AA@ 004d4028     LIBCMTD:getqloc.obj
 0002:0000203c       ??_C@_0BB@PBHK@norwegian?9bokmal?$AA@ 004d403c     LIBCMTD:getqloc.obj
 0002:00002050       ??_C@_09EHKL@norwegian?$AA@ 004d4050     LIBCMTD:getqloc.obj
 0002:0000205c       ??_C@_0O@BEAN@italian?9swiss?$AA@ 004d405c     LIBCMTD:getqloc.obj
 0002:0000206c       ??_C@_0O@OIFK@irish?9english?$AA@ 004d406c     LIBCMTD:getqloc.obj
 0002:0000207c       ??_C@_0N@NBPL@german?9swiss?$AA@ 004d407c     LIBCMTD:getqloc.obj
 0002:0000208c       ??_C@_0BC@ICFJ@german?9luxembourg?$AA@ 004d408c     LIBCMTD:getqloc.obj
 0002:000020a0       ??_C@_0BE@GGPC@german?9lichtenstein?$AA@ 004d40a0     LIBCMTD:getqloc.obj
 0002:000020b4       ??_C@_0BA@MKDC@german?9austrian?$AA@ 004d40b4     LIBCMTD:getqloc.obj
 0002:000020c4       ??_C@_0N@ODNB@french?9swiss?$AA@ 004d40c4     LIBCMTD:getqloc.obj
 0002:000020d4       ??_C@_0BC@MGCM@french?9luxembourg?$AA@ 004d40d4     LIBCMTD:getqloc.obj
 0002:000020e8       ??_C@_0BA@NABK@french?9canadian?$AA@ 004d40e8     LIBCMTD:getqloc.obj
 0002:000020f8       ??_C@_0P@CJNO@french?9belgian?$AA@ 004d40f8     LIBCMTD:getqloc.obj
 0002:00002108       ??_C@_0M@LJOL@english?9usa?$AA@ 004d4108     LIBCMTD:getqloc.obj
 0002:00002114       ??_C@_0L@FMNC@english?9us?$AA@ 004d4114     LIBCMTD:getqloc.obj
 0002:00002120       ??_C@_0L@KBBK@english?9uk?$AA@ 004d4120     LIBCMTD:getqloc.obj
 0002:0000212c       ??_C@_0BK@NDDE@english?9trinidad?5y?5tobago?$AA@ 004d412c     LIBCMTD:getqloc.obj
 0002:00002148       ??_C@_0BF@LKML@english?9south?5africa?$AA@ 004d4148     LIBCMTD:getqloc.obj
 0002:00002160       ??_C@_0L@EGPP@english?9nz?$AA@ 004d4160     LIBCMTD:getqloc.obj
 0002:0000216c       ??_C@_0BA@HLH@english?9jamaica?$AA@ 004d416c     LIBCMTD:getqloc.obj
 0002:0000217c       ??_C@_0M@PMJI@english?9ire?$AA@ 004d417c     LIBCMTD:getqloc.obj
 0002:00002188       ??_C@_0BC@HINE@english?9caribbean?$AA@ 004d4188     LIBCMTD:getqloc.obj
 0002:0000219c       ??_C@_0M@DCFH@english?9can?$AA@ 004d419c     LIBCMTD:getqloc.obj
 0002:000021a8       ??_C@_0P@DGHK@english?9belize?$AA@ 004d41a8     LIBCMTD:getqloc.obj
 0002:000021b8       ??_C@_0M@FLHK@english?9aus?$AA@ 004d41b8     LIBCMTD:getqloc.obj
 0002:000021c4       ??_C@_0BB@HNCK@english?9american?$AA@ 004d41c4     LIBCMTD:getqloc.obj
 0002:000021d8       ??_C@_0O@PAMI@dutch?9belgian?$AA@ 004d41d8     LIBCMTD:getqloc.obj
 0002:000021e8       ??_C@_0BE@FPEJ@chinese?9traditional?$AA@ 004d41e8     LIBCMTD:getqloc.obj
 0002:000021fc       ??_C@_0BC@CHFL@chinese?9singapore?$AA@ 004d41fc     LIBCMTD:getqloc.obj
 0002:00002210       ??_C@_0BD@DCMH@chinese?9simplified?$AA@ 004d4210     LIBCMTD:getqloc.obj
 0002:00002224       ??_C@_0BB@JMOE@chinese?9hongkong?$AA@ 004d4224     LIBCMTD:getqloc.obj
 0002:00002238       ??_C@_07NGFN@chinese?$AA@  004d4238     LIBCMTD:getqloc.obj
 0002:00002240       ??_C@_03PCOI@chi?$AA@      004d4240     LIBCMTD:getqloc.obj
 0002:00002244       ??_C@_03FIHP@chh?$AA@      004d4244     LIBCMTD:getqloc.obj
 0002:00002248       ??_C@_08HFLO@canadian?$AA@ 004d4248     LIBCMTD:getqloc.obj
 0002:00002254       ??_C@_07INIJ@belgian?$AA@  004d4254     LIBCMTD:getqloc.obj
 0002:0000225c       ??_C@_0L@LCCA@australian?$AA@ 004d425c     LIBCMTD:getqloc.obj
 0002:00002268       ??_C@_0BB@BJIO@american?9english?$AA@ 004d4268     LIBCMTD:getqloc.obj
 0002:0000227c       ??_C@_0BB@DAGO@american?5english?$AA@ 004d427c     LIBCMTD:getqloc.obj
 0002:00002290       ??_C@_08HENB@american?$AA@ 004d4290     LIBCMTD:getqloc.obj
 0002:0000229c       ??_C@_03DGJE@OCP?$AA@      004d429c     LIBCMTD:getqloc.obj
 0002:000022a0       ??_C@_03EKFG@ACP?$AA@      004d42a0     LIBCMTD:getqloc.obj
 0002:000022a4       ??_C@_0L@EJNO@wtombenv?4c?$AA@ 004d42a4     LIBCMTD:wtombenv.obj
 0002:000022b0       ??_C@_07CJME@H?3mm?3ss?$AA@ 004d42b0     LIBCMTD:strftime.obj
 0002:000022b8       ??_C@_0BE@MHI@dddd?0?5MMMM?5dd?0?5yyyy?$AA@ 004d42b8     LIBCMTD:strftime.obj
 0002:000022cc       ??_C@_06HCAD@M?1d?1yy?$AA@ 004d42cc     LIBCMTD:strftime.obj
 0002:000022d4       ??_C@_02DBLP@PM?$AA@       004d42d4     LIBCMTD:strftime.obj
 0002:000022d8       ??_C@_02ENLM@AM?$AA@       004d42d8     LIBCMTD:strftime.obj
 0002:000022dc       ??_C@_08LIDF@December?$AA@ 004d42dc     LIBCMTD:strftime.obj
 0002:000022e8       ??_C@_08NJLI@November?$AA@ 004d42e8     LIBCMTD:strftime.obj
 0002:000022f4       ??_C@_07IAMM@October?$AA@  004d42f4     LIBCMTD:strftime.obj
 0002:000022fc       ??_C@_09MKGD@September?$AA@ 004d42fc     LIBCMTD:strftime.obj
 0002:00002308       ??_C@_06PADP@August?$AA@   004d4308     LIBCMTD:strftime.obj
 0002:00002310       ??_C@_04PIJO@July?$AA@     004d4310     LIBCMTD:strftime.obj
 0002:00002318       ??_C@_04ICFP@June?$AA@     004d4318     LIBCMTD:strftime.obj
 0002:00002320       ??_C@_05JFGC@April?$AA@    004d4320     LIBCMTD:strftime.obj
 0002:00002328       ??_C@_05FGPD@March?$AA@    004d4328     LIBCMTD:strftime.obj
 0002:00002330       ??_C@_08PGBA@February?$AA@ 004d4330     LIBCMTD:strftime.obj
 0002:0000233c       ??_C@_07BPKJ@January?$AA@  004d433c     LIBCMTD:strftime.obj
 0002:00002344       ??_C@_03PGJO@Dec?$AA@      004d4344     LIBCMTD:strftime.obj
 0002:00002348       ??_C@_03PDLM@Nov?$AA@      004d4348     LIBCMTD:strftime.obj
 0002:0000234c       ??_C@_03BLHK@Oct?$AA@      004d434c     LIBCMTD:strftime.obj
 0002:00002350       ??_C@_03DPFM@Sep?$AA@      004d4350     LIBCMTD:strftime.obj
 0002:00002354       ??_C@_03CMCH@Aug?$AA@      004d4354     LIBCMTD:strftime.obj
 0002:00002358       ??_C@_03OBKI@Jul?$AA@      004d4358     LIBCMTD:strftime.obj
 0002:0000235c       ??_C@_03LEIG@Jun?$AA@      004d435c     LIBCMTD:strftime.obj
 0002:00002360       ??_C@_03MGHB@May?$AA@      004d4360     LIBCMTD:strftime.obj
 0002:00002364       ??_C@_03MJJM@Apr?$AA@      004d4364     LIBCMTD:strftime.obj
 0002:00002368       ??_C@_03GNHA@Mar?$AA@      004d4368     LIBCMTD:strftime.obj
 0002:0000236c       ??_C@_03PICE@Feb?$AA@      004d436c     LIBCMTD:strftime.obj
 0002:00002370       ??_C@_03IEIF@Jan?$AA@      004d4370     LIBCMTD:strftime.obj
 0002:00002374       ??_C@_08FAKH@Saturday?$AA@ 004d4374     LIBCMTD:strftime.obj
 0002:00002380       ??_C@_06ONCK@Friday?$AA@   004d4380     LIBCMTD:strftime.obj
 0002:00002388       ??_C@_08CCFO@Thursday?$AA@ 004d4388     LIBCMTD:strftime.obj
 0002:00002394       ??_C@_09PBIN@Wednesday?$AA@ 004d4394     LIBCMTD:strftime.obj
 0002:000023a0       ??_C@_07BMBC@Tuesday?$AA@  004d43a0     LIBCMTD:strftime.obj
 0002:000023a8       ??_C@_06CHLK@Monday?$AA@   004d43a8     LIBCMTD:strftime.obj
 0002:000023b0       ??_C@_06OOEM@Sunday?$AA@   004d43b0     LIBCMTD:strftime.obj
 0002:000023b8       ??_C@_03MPKK@Sat?$AA@      004d43b8     LIBCMTD:strftime.obj
 0002:000023bc       ??_C@_03FINJ@Fri?$AA@      004d43bc     LIBCMTD:strftime.obj
 0002:000023c0       ??_C@_03HIKC@Thu?$AA@      004d43c0     LIBCMTD:strftime.obj
 0002:000023c4       ??_C@_03HECK@Wed?$AA@      004d43c4     LIBCMTD:strftime.obj
 0002:000023c8       ??_C@_03ECCP@Tue?$AA@      004d43c8     LIBCMTD:strftime.obj
 0002:000023cc       ??_C@_03PIEP@Mon?$AA@      004d43cc     LIBCMTD:strftime.obj
 0002:000023d0       ??_C@_03FHEP@Sun?$AA@      004d43d0     LIBCMTD:strftime.obj
 0002:000023d4       ??_C@_03MKGK@a?1p?$AA@     004d43d4     LIBCMTD:strftime.obj
 0002:000023d8       ??_C@_05BDJK@am?1pm?$AA@   004d43d8     LIBCMTD:strftime.obj
 0002:000023e0       ??_C@_0L@HKCB@inithelp?4c?$AA@ 004d43e0     LIBCMTD:inithelp.obj
 0002:00002408       ??_C@_07FOIK@a_cmp?4c?$AA@ 004d4408     LIBCMTD:a_cmp.obj
 0002:00002410       ??_C@_0DN@PPKB@cchCount1?$DN?$DN0?5?$CG?$CG?5cchCount2?$DN?$DN1?5?$HM?$HM?5@ 004d4410     LIBCMTD:a_cmp.obj
 0002:00002468       ??_C@_08FEIK@setenv?4c?$AA@ 004d4468     LIBCMTD:setenv.obj
 0002:00003220       __real@8@c0048400000000000000 004d5220     libdb41s:env_recover.obj
 0002:00003228       __real@8@40048400000000000000 004d5228     libdb41s:env_recover.obj
 0002:00004b14       ??_7length_error@std@@6B@  004d6b14     libcpmt:string.obj
 0002:00004b20       ??_C@_0BA@HHMB@string?5too?5long?$AA@ 004d6b20     libcpmt:string.obj
 0002:00004b34       ??_7logic_error@std@@6B@   004d6b34     libcpmt:string.obj
 0002:00004b44       ??_7out_of_range@std@@6B@  004d6b44     libcpmt:string.obj
 0002:00004b50       ??_C@_0BI@EEBE@invalid?5string?5position?$AA@ 004d6b50     libcpmt:string.obj
 0002:00004b6c       ??_7_com_error@@6B@        004d6b6c     comsupp:comraise.obj
 0002:00004b70       ??_C@_0L@PMNG@strerror?4c?$AA@ 004d6b70     LIBCMTD:strerror.obj
 0002:00004b7c       ??_C@_07LIGC@fgets?4c?$AA@ 004d6b7c     LIBCMTD:fgets.obj
 0002:00004b84       ??_C@_08EJDA@sscanf?4c?$AA@ 004d6b84     LIBCMTD:sscanf.obj
 0002:00004b90       ??_C@_09DLOM@fprintf?4c?$AA@ 004d6b90     LIBCMTD:fprintf.obj
 0002:00004b9c       ??_C@_08GNFC@printf?4c?$AA@ 004d6b9c     LIBCMTD:printf.obj
 0002:00004ba8       ??_C@_07JJAI@fgetc?4c?$AA@ 004d6ba8     LIBCMTD:fgetc.obj
 0002:00004bb4       ??_7exception@@6B@         004d6bb4     LIBCMTD:stdexcpt.obj
 0002:00004bbc       ??_C@_0BC@OIDF@Unknown?5exception?$AA@ 004d6bbc     LIBCMTD:stdexcpt.obj
 0002:00004bd0       ??_C@_0BG@JPLP@Illegal?5byte?5sequence?$AA@ 004d6bd0     LIBCMTD:syserr.obj
 0002:00004be8       ??_C@_0BE@FLBN@Directory?5not?5empty?$AA@ 004d6be8     LIBCMTD:syserr.obj
 0002:00004bfc       ??_C@_0BJ@KAFL@Function?5not?5implemented?$AA@ 004d6bfc     LIBCMTD:syserr.obj
 0002:00004c18       ??_C@_0BD@CEML@No?5locks?5available?$AA@ 004d6c18     LIBCMTD:syserr.obj
 0002:00004c2c       ??_C@_0BC@GADJ@Filename?5too?5long?$AA@ 004d6c2c     LIBCMTD:syserr.obj
 0002:00004c40       ??_C@_0BK@FNFN@Resource?5deadlock?5avoided?$AA@ 004d6c40     LIBCMTD:syserr.obj
 0002:00004c5c       ??_C@_0BB@EALI@Result?5too?5large?$AA@ 004d6c5c     LIBCMTD:syserr.obj
 0002:00004c70       ??_C@_0N@FIAN@Domain?5error?$AA@ 004d6c70     LIBCMTD:syserr.obj
 0002:00004c80       ??_C@_0M@CLKF@Broken?5pipe?$AA@ 004d6c80     LIBCMTD:syserr.obj
 0002:00004c8c       ??_C@_0P@OFDM@Too?5many?5links?$AA@ 004d6c8c     LIBCMTD:syserr.obj
 0002:00004c9c       ??_C@_0BG@OHDM@Read?9only?5file?5system?$AA@ 004d6c9c     LIBCMTD:syserr.obj
 0002:00004cb4       ??_C@_0N@NGPA@Invalid?5seek?$AA@ 004d6cb4     LIBCMTD:syserr.obj
 0002:00004cc4       ??_C@_0BI@DMFE@No?5space?5left?5on?5device?$AA@ 004d6cc4     LIBCMTD:syserr.obj
 0002:00004cdc       ??_C@_0P@OPNK@File?5too?5large?$AA@ 004d6cdc     LIBCMTD:syserr.obj
 0002:00004cec       ??_C@_0CE@BADJ@Inappropriate?5I?1O?5control?5operat@ 004d6cec     LIBCMTD:syserr.obj
 0002:00004d10       ??_C@_0BE@COOK@Too?5many?5open?5files?$AA@ 004d6d10     LIBCMTD:syserr.obj
 0002:00004d24       ??_C@_0BO@ELHF@Too?5many?5open?5files?5in?5system?$AA@ 004d6d24     LIBCMTD:syserr.obj
 0002:00004d44       ??_C@_0BB@IHAB@Invalid?5argument?$AA@ 004d6d44     LIBCMTD:syserr.obj
 0002:00004d58       ??_C@_0P@NDNC@Is?5a?5directory?$AA@ 004d6d58     LIBCMTD:syserr.obj
 0002:00004d68       ??_C@_0BA@JMMO@Not?5a?5directory?$AA@ 004d6d68     LIBCMTD:syserr.obj
 0002:00004d78       ??_C@_0P@GFAI@No?5such?5device?$AA@ 004d6d78     LIBCMTD:syserr.obj
 0002:00004d88       ??_C@_0O@KHHM@Improper?5link?$AA@ 004d6d88     LIBCMTD:syserr.obj
 0002:00004d98       ??_C@_0M@EPHJ@File?5exists?$AA@ 004d6d98     LIBCMTD:syserr.obj
 0002:00004da4       ??_C@_0BA@LPOH@Resource?5device?$AA@ 004d6da4     LIBCMTD:syserr.obj
 0002:00004db4       ??_C@_0O@NOFB@Unknown?5error?$AA@ 004d6db4     LIBCMTD:syserr.obj
 0002:00004dc4       ??_C@_0M@MLJM@Bad?5address?$AA@ 004d6dc4     LIBCMTD:syserr.obj
 0002:00004dd0       ??_C@_0BC@DJON@Permission?5denied?$AA@ 004d6dd0     LIBCMTD:syserr.obj
 0002:00004de4       ??_C@_0BB@KDDC@Not?5enough?5space?$AA@ 004d6de4     LIBCMTD:syserr.obj
 0002:00004df8       ??_C@_0CB@BBBH@Resource?5temporarily?5unavailable@ 004d6df8     LIBCMTD:syserr.obj
 0002:00004e1c       ??_C@_0BD@ODIH@No?5child?5processes?$AA@ 004d6e1c     LIBCMTD:syserr.obj
 0002:00004e30       ??_C@_0BE@CDDH@Bad?5file?5descriptor?$AA@ 004d6e30     LIBCMTD:syserr.obj
 0002:00004e44       ??_C@_0BC@BICL@Exec?5format?5error?$AA@ 004d6e44     LIBCMTD:syserr.obj
 0002:00004e58       ??_C@_0BC@IGMC@Arg?5list?5too?5long?$AA@ 004d6e58     LIBCMTD:syserr.obj
 0002:00004e6c       ??_C@_0BK@HLB@No?5such?5device?5or?5address?$AA@ 004d6e6c     LIBCMTD:syserr.obj
 0002:00004e88       ??_C@_0BD@MPKK@Input?1output?5error?$AA@ 004d6e88     LIBCMTD:syserr.obj
 0002:00004e9c       ??_C@_0BK@ODCM@Interrupted?5function?5call?$AA@ 004d6e9c     LIBCMTD:syserr.obj
 0002:00004eb8       ??_C@_0BA@BPKN@No?5such?5process?$AA@ 004d6eb8     LIBCMTD:syserr.obj
 0002:00004ec8       ??_C@_0BK@IEMO@No?5such?5file?5or?5directory?$AA@ 004d6ec8     LIBCMTD:syserr.obj
 0002:00004ee4       ??_C@_0BI@IIAE@Operation?5not?5permitted?$AA@ 004d6ee4     LIBCMTD:syserr.obj
 0002:00004efc       ??_C@_08KKBH@No?5error?$AA@ 004d6efc     LIBCMTD:syserr.obj
 0002:00004f08       ??_C@_07IEFA@input?4c?$AA@ 004d6f08     LIBCMTD:input.obj
 0002:00004f10       ??_C@_09JDKJ@asctime?4c?$AA@ 004d6f10     LIBCMTD:asctime.obj
 0002:00004f1c       ??_C@_08MOLN@mbtowc?4c?$AA@ 004d6f1c     LIBCMTD:mbtowc.obj
 0002:00004f28       ??_C@_0CD@NPPL@MB_CUR_MAX?5?$DN?$DN?51?5?$HM?$HM?5MB_CUR_MAX?5?$DN?$DN@ 004d6f28     LIBCMTD:mbtowc.obj
 0002:00004f4c       ??_C@_08JKP@ungetc?4c?$AA@ 004d6f4c     LIBCMTD:ungetc.obj
 0002:00004f58       ??_R1A@?0A@A@type_info@@8  004d6f58     LIBCMTD:typinfo.obj
 0002:00004f70       ??_R2type_info@@8          004d6f70     LIBCMTD:typinfo.obj
 0002:00004f78       ??_R3type_info@@8          004d6f78     LIBCMTD:typinfo.obj
 0002:00004f88       ??_R4type_info@@6B@        004d6f88     LIBCMTD:typinfo.obj
 0002:00004fa0       ??_R1A@?0A@A@exception@@8  004d6fa0     libcpmt:string.obj
 0002:00004fb8       ??_R1A@?0A@A@logic_error@std@@8 004d6fb8     libcpmt:string.obj
 0002:00004fd0       ??_R1A@?0A@A@length_error@std@@8 004d6fd0     libcpmt:string.obj
 0002:00004fe8       ??_R2length_error@std@@8   004d6fe8     libcpmt:string.obj
 0002:00004ff8       ??_R3length_error@std@@8   004d6ff8     libcpmt:string.obj
 0002:00005008       ??_R4length_error@std@@6B@ 004d7008     libcpmt:string.obj
 0002:00005020       ??_R2logic_error@std@@8    004d7020     libcpmt:string.obj
 0002:00005030       ??_R3logic_error@std@@8    004d7030     libcpmt:string.obj
 0002:00005040       ??_R4logic_error@std@@6B@  004d7040     libcpmt:string.obj
 0002:00005058       ??_R1A@?0A@A@out_of_range@std@@8 004d7058     libcpmt:string.obj
 0002:00005070       ??_R2out_of_range@std@@8   004d7070     libcpmt:string.obj
 0002:00005080       ??_R3out_of_range@std@@8   004d7080     libcpmt:string.obj
 0002:00005090       ??_R4out_of_range@std@@6B@ 004d7090     libcpmt:string.obj
 0002:000050a8       ??_R1A@?0A@A@_com_error@@8 004d70a8     comsupp:comraise.obj
 0002:000050c0       ??_R2_com_error@@8         004d70c0     comsupp:comraise.obj
 0002:000050c8       ??_R3_com_error@@8         004d70c8     comsupp:comraise.obj
 0002:000050d8       ??_R4_com_error@@6B@       004d70d8     comsupp:comraise.obj
 0002:000050ec       ??_R2exception@@8          004d70ec     LIBCMTD:stdexcpt.obj
 0002:000050f8       ??_R3exception@@8          004d70f8     LIBCMTD:stdexcpt.obj
 0002:00005108       ??_R4exception@@6B@        004d7108     LIBCMTD:stdexcpt.obj
 0002:00008028       __CT??_R0H@84              004da028     KThread.obj
 0002:00008048       __CTA1H                    004da048     KThread.obj
 0002:00008050       __TI1H                     004da050     KThread.obj
 0002:0000a128       __CT??_R0?AVexception@@@8??0exception@@QAE@ABV0@@Z12 004dc128     libcpmt:string.obj
 0002:0000a148       __CT??_R0?AVlogic_error@std@@@8??0logic_error@std@@QAE@ABV01@@Z28 004dc148     libcpmt:string.obj
 0002:0000a168       __CT??_R0?AVlength_error@std@@@8??0length_error@std@@QAE@ABV01@@Z28 004dc168     libcpmt:string.obj
 0002:0000a188       __CTA3?AVlength_error@std@@ 004dc188     libcpmt:string.obj
 0002:0000a198       __TI3?AVlength_error@std@@ 004dc198     libcpmt:string.obj
 0002:0000a1f8       __CTA2?AVlogic_error@std@@ 004dc1f8     libcpmt:string.obj
 0002:0000a208       __TI2?AVlogic_error@std@@  004dc208     libcpmt:string.obj
 0002:0000a290       __CT??_R0?AVout_of_range@std@@@8??0out_of_range@std@@QAE@ABV01@@Z28 004dc290     libcpmt:string.obj
 0002:0000a2b0       __CTA3?AVout_of_range@std@@ 004dc2b0     libcpmt:string.obj
 0002:0000a2c0       __TI3?AVout_of_range@std@@ 004dc2c0     libcpmt:string.obj
 0002:0000a320       __CT??_R0?AV_com_error@@@8??0_com_error@@QAE@ABV0@@Z16 004dc320     comsupp:comraise.obj
 0002:0000a340       __CTA1?AV_com_error@@      004dc340     comsupp:comraise.obj
 0002:0000a348       __TI1?AV_com_error@@       004dc348     comsupp:comraise.obj
 0002:0000a358       __IMPORT_DESCRIPTOR_KERNEL32 004dc358     kernel32:KERNEL32.dll
 0002:0000a36c       __IMPORT_DESCRIPTOR_USER32 004dc36c     user32:USER32.dll
 0002:0000a380       __IMPORT_DESCRIPTOR_ole32  004dc380     ole32:ole32.dll
 0002:0000a394       __IMPORT_DESCRIPTOR_OLEAUT32 004dc394     oleaut32:OLEAUT32.dll
 0002:0000a3a8       __IMPORT_DESCRIPTOR_WS2_32 004dc3a8     Ws2_32:WS2_32.dll
 0002:0000a3bc       __IMPORT_DESCRIPTOR_LuaLibDll 004dc3bc     lualibdll:LuaLibDll.dll
 0002:0000a3d0       __IMPORT_DESCRIPTOR_Engine 004dc3d0     engine:Engine.dll
 0002:0000a3e4       __NULL_IMPORT_DESCRIPTOR   004dc3e4     kernel32:KERNEL32.dll
 0003:00000000       ___xc_a                    004de000     LIBCMTD:crt0init.obj
 0003:00000154       ___xc_z                    004de154     LIBCMTD:crt0init.obj
 0003:00000158       ___xi_a                    004de158     LIBCMTD:crt0init.obj
 0003:0000016c       ___xi_z                    004de16c     LIBCMTD:crt0init.obj
 0003:00000170       ___xp_a                    004de170     LIBCMTD:crt0init.obj
 0003:00000178       ___xp_z                    004de178     LIBCMTD:crt0init.obj
 0003:0000017c       ___xt_a                    004de17c     LIBCMTD:crt0init.obj
 0003:00000184       ___xt_z                    004de184     LIBCMTD:crt0init.obj
 0003:00000190       ??_C@_0CC@IGPM@Create?5Channel?3?5?$FLStock?$FN?5?$DM?$CF08X?$DO?5?$CF@ 004de190     ChannelMgr.obj
 0003:000001b4       ??_C@_0CG@CBKL@Create?5Channel?3?5?$FLStock?0?5GM?$FN?5?$DM?$CF08@ 004de1b4     ChannelMgr.obj
 0003:000001dc       ??_C@_0BN@LLPJ@GM?5Create?5Channel?3?5?$DM?$CF08X?$DO?5?$CFs?$AA@ 004de1dc     ChannelMgr.obj
 0003:000001fc       ??_C@_0BO@KDGM@GM?5Destroy?5Channel?3?5?$DM?$CF08X?$DO?5?$CFs?$AA@ 004de1fc     ChannelMgr.obj
 0003:0000021c       ??_C@_0BK@GOHM@Create?5Channel?3?5?$DM?$CF08X?$DO?5?$CFs?$AA@ 004de21c     ChannelMgr.obj
 0003:00000238       ??_C@_0CG@LONH@Query?5ChannelID?3?5?$CFs?5from?5?$CI?$CF08X?0?5@ 004de238     ChannelMgr.obj
 0003:00000260       ??_C@_0CH@GEGC@Subscribe?5Channel?3?5?$CF08X?5by?5?$CI?$CF08X@ 004de260     ChannelMgr.obj
 0003:00000288       ??_C@_0CM@DGJG@Subscribe?5Channel?3?5GM?5?$DM?$CF08X?$DO?5by?5@ 004de288     ChannelMgr.obj
 0003:000002b4       ??_C@_0CJ@KLDP@Unsubscribe?5Channel?3?5?$CF08X?5by?5?$CI?$CF0@ 004de2b4     ChannelMgr.obj
 0003:000002e0       ??_C@_0BL@EKLJ@Destroy?5Channel?3?5?$DM?$CF08X?$DO?5?$CFs?$AA@ 004de2e0     ChannelMgr.obj
 0003:000002fc       ??_C@_0CJ@JKBC@Free?5ChannelID?3?5?$DM?$CF08X?$DO?5from?5?$CI?$CF08@ 004de2fc     ChannelMgr.obj
 0003:00000328       ??_C@_0BI@IGA@chat?5connect?5create?3?5?$CFs?$AA@ 004de328     ChatConnect.obj
 0003:00000340       ??_C@_0BH@HLLE@chat?5connect?5close?3?5?$CFs?$AA@ 004de340     ChatConnect.obj
 0003:00000358       ??_C@_0BE@LGAL@chat?5server?5startup?$AA@ 004de358     ChatServer.obj
 0003:0000036c       ??_C@_0BF@DNCG@chat?5server?5shutdown?$AA@ 004de36c     ChatServer.obj
 0003:00000384       ??_C@_04CLEA@?$CF08X?$AA@  004de384     ChatServer.obj
 0003:0000038c       ??_C@_02GIEM@?0?5?$AA@     004de38c     ChatServer.obj
 0003:00000390       ??_C@_0P@PEOM@?$DMtotal?3?5?$CFd?$DO?5?3?5?$AA@ 004de390     ChatServer.obj
 0003:000003a0       ??_C@_0BH@IBGE@message?3?5?$FLChatServer?$FN?5?$AA@ 004de3a0     ChatServer.obj
 0003:000003b8       ??_C@_0BJ@OCGD@message?3?5?$FLDBRoleCenter?$FN?5?$AA@ 004de3b8     DBConnect.obj
 0003:000003d4       ??_C@_0BJ@BKEK@DBRole?5client?5create?3?5?$CFs?$AA@ 004de3d4     DBConnect.obj
 0003:000003f0       ??_C@_0BI@FBPN@DBRole?5client?5close?3?5?$CFs?$AA@ 004de3f0     DBConnect.obj
 0003:00000408       ??_C@_08MIND@index_db?$AA@ 004de408     DBTable.obj
 0003:00000414       ??_C@_01PCFE@?2?$AA@       004de414     DBTable.obj
 0003:00000418       ??_C@_05BKDD@?$CFs?4?$CFd?$AA@ 004de418     DBTable.obj
 0003:00000420       ?GameScriptFuns@@3PAUTLua_Funcs@@A 004de420     DoScript.obj
 0003:00000440       ??_C@_05IMNH@GetIP?$AA@    004de440     DoScript.obj
 0003:00000448       ??_C@_06CPOM@Msg2IP?$AA@   004de448     DoScript.obj
 0003:00000450       ??_C@_0M@DHBO@GameExecute?$AA@ 004de450     DoScript.obj
 0003:0000045c       ??_C@_0O@ECJC@GlobalExecute?$AA@ 004de45c     DoScript.obj
 0003:0000046c       ??_C@_02DKED@GM?$AA@       004de46c     DoScript.obj
 0003:00000470       ??_C@_07IJDM@0?40?40?40?$AA@ 004de470     DoScript.obj
 0003:0000048c       ??_C@_0BK@JFP@sync?5friend?5list?3?5?$CFs?5?$CI?$CFs?$CJ?$AA@ 004de48c     FriendMgr.obj
 0003:000004a8       ??_C@_04PCII@part?$AA@     004de4a8     FriendMgr.obj
 0003:000004b0       ??_C@_04EELP@full?$AA@     004de4b0     FriendMgr.obj
 0003:000004b8       ??_C@_0BL@CLN@Player?5Add?5Friend?3?5?$CFs?5?$FL?$CFs?$FN?$AA@ 004de4b8     FriendMgr.obj
 0003:000004d4       ??_C@_0BL@LAAF@Player?5Del?5Friend?3?5?$CFs?5?$FL?$CFs?$FN?$AA@ 004de4d4     FriendMgr.obj
 0003:000004f0       ??_C@_0CC@LJNJ@Player?5Group?5Friend?3?5?$CFs?5?$FL?$CFs?$FN?5?$CI?$CFs@ 004de4f0     FriendMgr.obj
 0003:00000514       ??_C@_0BO@NDGG@except?3?5load?5someone?5fail?3?5?$CFs?$AA@ 004de514     FriendMgr.obj
 0003:00000534       ??_C@_0BB@IDJM@load?5someone?3?5?$CFs?$AA@ 004de534     FriendMgr.obj
 0003:00000548       ??_C@_0BJ@JFMF@error?3?5store?5someone?3?5?$CFs?$AA@ 004de548     FriendMgr.obj
 0003:00000564       ??_C@_0BC@PHBN@store?5someone?3?5?$CFs?$AA@ 004de564     FriendMgr.obj
 0003:00000578       ??_C@_0CE@MAGK@except?3?5store?5someone?5outof?5mem?3@ 004de578     FriendMgr.obj
 0003:0000059c       ??_C@_0CA@EILE@error?3?5bkgrnp?5store?5someone?3?5?$CFs?$AA@ 004de59c     FriendMgr.obj
 0003:000005bc       ??_C@_0CN@PPMK@Player?5Associate?3?5?$CFs?5?$FL?$CFs?$FN?5on?5?$DM?$CFs@ 004de5bc     FriendMgr.obj
 0003:000005ec       ??_C@_0CC@GNK@Players?5AssociateBevy?3?5?$CFu?5on?5?$DM?$CFs@ 004de5ec     FriendMgr.obj
 0003:00000610       ??_C@_0BK@IMKA@message?3?5?$FLGatewayCenter?$FN?5?$AA@ 004de610     GatewayCenter.obj
 0003:0000062c       ??_C@_0BK@LMON@gateway?5client?5create?3?5?$CFs?$AA@ 004de62c     GatewayClient.obj
 0003:00000648       ??_C@_0BJ@PGBA@gateway?5client?5close?3?5?$CFs?$AA@ 004de648     GatewayClient.obj
 0003:00000664       ??_C@_0CC@JDBN@FAIL?3?5tong?5database?5open?5error?$CB?$CB@ 004de664     Global.obj
 0003:00000688       ??_C@_0BM@BPEF@FAIL?3?5tongset?5init?5error?$CB?$CB?$CB?$AA@ 004de688     Global.obj
 0003:000006a4       ??_C@_0BC@INOK@tongset?5init?5ok?5?$CB?$AA@ 004de6a4     Global.obj
 0003:000006b8       ??_C@_0BH@EHAF@tong?5database?5open?5ok?$CB?$AA@ 004de6b8     Global.obj
 0003:000006d0       ??_C@_0BC@DMPE@FAIL?3?5chat?5server?$AA@ 004de6d0     Global.obj
 0003:000006e4       ??_C@_0BC@KJML@FAIL?3?5tong?5server?$AA@ 004de6e4     Global.obj
 0003:000006f8       ??_C@_0BC@FIEH@FAIL?3?5host?5server?$AA@ 004de6f8     Global.obj
 0003:0000070c       ??_C@_0BK@KDLB@FAIL?3?5gateway?5client?5?9?5?$CFs?$AA@ 004de70c     Global.obj
 0003:00000728       ??_C@_0BJ@DAOK@FAIL?3?5DBRole?5client?5?9?5?$CFs?$AA@ 004de728     Global.obj
 0003:00000744       ??_C@_0BH@PBNN@FAIL?3?5root?5client?5?9?5?$CFs?$AA@ 004de744     Global.obj
 0003:0000075c       ??_C@_0BD@MEOP@FAIL?3?5relay?5server?$AA@ 004de75c     Global.obj
 0003:00000770       ??_C@_0BA@NLGN@GetAdaptersInfo?$AA@ 004de770     Global.obj
 0003:00000780       ??_C@_0N@JPOB@iphlpapi?4dll?$AA@ 004de780     Global.obj
 0003:00000790       ??_C@_0BI@JBMG@Connect?5Database?5Error?$CB?$AA@ 004de790     Global.obj
 0003:000007a8       ??_C@_0BK@OGNF@Connect?5Database?5Success?$CB?$AA@ 004de7a8     Global.obj
 0003:000007c4       ??_C@_08HAOI@PassWord?$AA@ 004de7c4     Global.obj
 0003:000007d0       ??_C@_04JJBJ@User?$AA@     004de7d0     Global.obj
 0003:000007d8       ??_C@_08FNAA@DataBase?$AA@ 004de7d8     Global.obj
 0003:000007e4       ??_C@_07ENNF@account?$AA@  004de7e4     Global.obj
 0003:000007ec       ??_C@_06HCAM@Server?$AA@   004de7ec     Global.obj
 0003:000007f4       ??_C@_0N@DOJP@DataBase?4ini?$AA@ 004de7f4     Global.obj
 0003:00000804       ??_C@_0BK@BGDA@disable?5reclient?3?5gateway?$AA@ 004de804     Global.obj
 0003:00000820       ??_C@_0BF@PDJC@disable?5reclient?3?5db?$AA@ 004de820     Global.obj
 0003:00000838       ??_C@_0BL@PGJH@FAIL?3?5enable?5root?5reclient?$AA@ 004de838     Global.obj
 0003:00000854       ??_C@_0BJ@IJMD@enable?5reclient?3?5gateway?$AA@ 004de854     Global.obj
 0003:00000870       ??_C@_0BO@GNCJ@FAIL?3?5enable?5gateway?5reclient?$AA@ 004de870     Global.obj
 0003:00000890       ??_C@_0BE@MGBC@enable?5reclient?3?5db?$AA@ 004de890     Global.obj
 0003:000008a4       ??_C@_0BJ@BEHJ@FAIL?3?5enable?5db?5reclient?$AA@ 004de8a4     Global.obj
 0003:000008c0       ??_C@_0BJ@PMHE@FAIL?3?5reclient?5root?5?9?5?$CFs?$AA@ 004de8c0     Global.obj
 0003:000008dc       ??_C@_0BM@FNMJ@FAIL?3?5reclient?5gateway?5?9?5?$CFs?$AA@ 004de8dc     Global.obj
 0003:000008f8       ??_C@_0BL@FFDD@try?5reclient?3?5gateway?5?9?5?$CFs?$AA@ 004de8f8     Global.obj
 0003:00000914       ??_C@_0BH@PHIH@FAIL?3?5reclient?5db?5?9?5?$CFs?$AA@ 004de914     Global.obj
 0003:0000092c       ??_C@_0BG@LELF@try?5reclient?3?5db?5?9?5?$CFs?$AA@ 004de92c     Global.obj
 0003:00000944       ??_C@_0BP@FEON@friend?5timing?5update?5db?3?5start?$AA@ 004de944     Global.obj
 0003:00000964       ??_C@_0CE@CLFO@FAIL?3?5start?5friend?5timing?5update@ 004de964     Global.obj
 0003:00000988       ??_C@_0BO@HGLN@friend?5timing?5update?5db?3?5stop?$AA@ 004de988     Global.obj
 0003:000009a8       ??_C@_0BJ@MPPK@update?5friend?5DB?5succeed?$AA@ 004de9a8     Global.obj
 0003:000009c4       ??_C@_0BP@MAOM@warning?3?5update?5friend?5DB?5fail?$AA@ 004de9c4     Global.obj
 0003:000009e4       ??_C@_02NGAF@wb?$AA@       004de9e4     GlobalFun.obj
 0003:000009e8       ??_C@_02JKAF@rb?$AA@       004de9e8     GlobalFun.obj
 0003:000009ec       ??_C@_03GMJO@a?$CLb?$AA@   004de9ec     GlobalFun.obj
 0003:000009f0       ??_C@_0BA@PKLD@CreateInterface?$AA@ 004de9f0     HeavenLib.obj
 0003:00000a00       ??_C@_0L@MDPN@heaven?4dll?$AA@ 004dea00     HeavenLib.obj
 0003:00000a0c       ??_C@_0CD@GOM@player?5login?3?5?$CFs?5?$FL?$CFs?$FN?5?$CI?$CF08X?0?5?$CF08@ 004dea0c     HostConnect.obj
 0003:00000a30       ??_C@_0BC@KFKB@player?5logout?3?5?$CFs?$AA@ 004dea30     HostConnect.obj
 0003:00000a44       ??_C@_0BI@BDJC@host?5connect?5create?3?5?$CFs?$AA@ 004dea44     HostConnect.obj
 0003:00000a5c       ??_C@_0BH@IJFA@host?5connect?5close?3?5?$CFs?$AA@ 004dea5c     HostConnect.obj
 0003:00000a74       ??_C@_0BE@IHAJ@host?5server?5startup?$AA@ 004dea74     HostServer.obj
 0003:00000a88       ??_C@_0BF@GIBH@host?5server?5shutdown?$AA@ 004dea88     HostServer.obj
 0003:00000aa0       ??_C@_0BH@COAA@message?3?5?$FLHostServer?$FN?5?$AA@ 004deaa0     HostServer.obj
 0003:00000ab8       ??_C@_0N@OFPH@?5?$DMtotal?3?5?$CFd?$DO?$AA@ 004deab8     HostServer.obj
 0003:00000ac8       ??_C@_08GCI@?$CF08X?3?5?$CFd?$AA@ 004deac8     HostServer.obj
 0003:00000ad4       ??_C@_0BF@HIIA@message?3?5?$FLPlayer?$FN?5?3?5?$AA@ 004dead4     HostServer.obj
 0003:00000af0       ??_R0H@8                   004deaf0     KThread.obj
 0003:00000afc       ??_C@_0BF@MAEP@?2?$CF02d_?$CF02d_?$CF02d_?$CF03d?$AA@ 004deafc     LogFile.obj
 0003:00000b14       ??_C@_0P@HECP@?$CF04d_?$CF02d_?$CF02d?$AA@ 004deb14     LogFile.obj
 0003:00000b24       ??_C@_0CF@DFLO@warning?3?5unexpected?5repeated?5con@ 004deb24     NetServer.obj
 0003:00000b4c       ??_C@_0BM@KIP@error?3?5connect?5initial?5fail?$AA@ 004deb4c     NetServer.obj
 0003:00000b68       ??_C@_0M@GJAN@rainbow?4dll?$AA@ 004deb68     RainbowLib.obj
 0003:00000b74       ??_C@_0BI@JJFD@message?3?5?$FLRelayCenter?$FN?5?$AA@ 004deb74     RelayCenter.obj
 0003:00000b8c       ??_C@_0BO@NGOD@relay?5client?5startup?5fail?3?5?$CFs?$AA@ 004deb8c     RelayClient.obj
 0003:00000bac       ??_C@_0BP@INLH@relay?5client?5shutdown?5fail?3?5?$CFs?$AA@ 004debac     RelayClient.obj
 0003:00000bcc       ??_C@_0BI@FLKA@relay?5client?5create?3?5?$CFs?$AA@ 004debcc     RelayClient.obj
 0003:00000be4       ??_C@_0BH@LLGI@relay?5client?5close?3?5?$CFs?$AA@ 004debe4     RelayClient.obj
 0003:00000bfc       ??_C@_0BJ@JGHP@relay?5connect?5create?3?5?$CFs?$AA@ 004debfc     RelayConnect.obj
 0003:00000c18       ??_C@_0BI@GENN@relay?5connect?5close?3?5?$CFs?$AA@ 004dec18     RelayConnect.obj
 0003:00000c30       ??_C@_0BF@HFCA@relay?5server?5startup?$AA@ 004dec30     RelayServer.obj
 0003:00000c48       ??_C@_0BG@PEOF@relay?5server?5shutdown?$AA@ 004dec48     RelayServer.obj
 0003:00000c60       ??_C@_0BI@PKHD@message?3?5?$FLRelayServer?$FN?5?$AA@ 004dec60     RelayServer.obj
 0003:00000c78       ??_C@_0BH@JKDG@message?3?5?$FLRootCenter?$FN?5?$AA@ 004dec78     RootCenter.obj
 0003:00000c90       ??_C@_0BH@FBGC@root?5client?5create?3?5?$CFs?$AA@ 004dec90     RootClient.obj
 0003:00000ca8       ??_C@_0BG@HJPE@root?5client?5close?3?5?$CFs?$AA@ 004deca8     RootClient.obj
 0003:00000cc0       ??_C@_0BN@CKOJ@start?5autotimer?5for?5Ping?3?5?$CFs?$AA@ 004decc0     RootClient.obj
 0003:00000ce0       ??_C@_0BM@BECN@stop?5autotimer?5for?5Ping?3?5?$CFs?$AA@ 004dece0     RootClient.obj
 0003:00000cfc       ??_C@_0BF@LPCG@root?5client?5ping?3?5?$CFs?$AA@ 004decfc     RootClient.obj
 0003:00000d14       ??_C@_0CB@ILBN@warning?3?5root?5client?5timeout?3?5?$CFs@ 004ded14     RootClient.obj
 0003:00000d38       ??_C@_0BO@OHKC@error?3?5relay?5client?5error?3?5?$CFs?$AA@ 004ded38     RootClient.obj
 0003:00000d58       ??_C@_0BJ@MBBL@relay?5client?5attempt?3?5?$CFs?$AA@ 004ded58     RootClient.obj
 0003:00000d74       ??_C@_0CA@OMCL@warning?3?5relay?5client?5exist?3?5?$CFs?$AA@ 004ded74     RootClient.obj
 0003:00000d98       ??_R0?AV_com_error@@@8     004ded98     S3P_MSSQLServer_Result.obj
 0003:00000db8       __GUID_0000050e_0000_0010_8000_00aa006d2ea4 004dedb8     S3P_MSSQLServer_Result.obj
 0003:00000dc8       __GUID_00000512_0000_0010_8000_00aa006d2ea4 004dedc8     S3P_MSSQLServer_Result.obj
 0003:00000dd8       __GUID_00000506_0000_0010_8000_00aa006d2ea4 004dedd8     S3P_MSSQLServer_Result.obj
 0003:00000de8       __GUID_00000515_0000_0010_8000_00aa006d2ea4 004dede8     S3PDB_MSSQLServer_Connection.obj
 0003:00000df8       ??_C@_0DJ@KKGB@?$FLS3PDB_MSSQLServer_Connection?3?3O@ 004dedf8     S3PDB_MSSQLServer_Connection.obj
 0003:00000e34       ??_C@_0BF@NADL@Unknown?5error?50x?$CF0lX?$AA@ 004dee34     S3PDB_MSSQLServer_Connection.obj
 0003:00000e4c       ??_C@_0BE@OPIO@IDispatch?5error?5?$CD?$CFd?$AA@ 004dee4c     S3PDB_MSSQLServer_Connection.obj
 0003:00000e60       __GUID_00000508_0000_0010_8000_00aa006d2ea4 004dee60     S3PDB_MSSQLServer_Connection.obj
 0003:00000e70       ??_C@_0O@PKKE@ADODB?4Command?$AA@ 004dee70     S3PDB_MSSQLServer_Connection.obj
 0003:00000e80       ??_C@_09KKBE@Database?$DN?$AA@ 004dee80     S3PDB_MSSQLServer_Connection.obj
 0003:00000e8c       ??_C@_01FAJB@?$DL?$AA@     004dee8c     S3PDB_MSSQLServer_Connection.obj
 0003:00000e90       ??_C@_07FBJB@Server?$DN?$AA@ 004dee90     S3PDB_MSSQLServer_Connection.obj
 0003:00000e98       ??_C@_0BF@LIBE@driver?$DN?$HLSQL?5Server?$HN?$DL?$AA@ 004dee98     S3PDB_MSSQLServer_Connection.obj
 0003:00000eb0       ??_C@_0BB@ICNN@ADODB?4Connection?$AA@ 004deeb0     S3PDB_MSSQLServer_Connection.obj
 0003:00000ec4       ??_C@_0DE@DGJB@?$FLS3PDB_MSSQLServer_Connection?3?3D@ 004deec4     S3PDB_MSSQLServer_Connection.obj
 0003:00000ef8       ??_C@_0DG@HBBD@?$FLS3PDB_MSSQLServer_Connection?3?3D@ 004deef8     S3PDB_MSSQLServer_Connection.obj
 0003:00000f30       ??_C@_0BA@LOMB@ADODB?4Recordset?$AA@ 004def30     S3PDB_MSSQLServer_Connection.obj
 0003:00000f40       ??_C@_0DJ@NCPN@?$FLS3PDB_MSSQLServer_Connection?3?3Q@ 004def40     S3PDB_MSSQLServer_Connection.obj
 0003:00000f7c       ??_C@_0DG@CPOA@?$FLS3PDB_MSSQLServer_Connection?3?3Q@ 004def7c     S3PDB_MSSQLServer_Connection.obj
 0003:00000fb8       __GUID_00000550_0000_0010_8000_00aa006d2ea4 004defb8     S3PDB_MSSQLServer_Connection.obj
 0003:00000fc8       __GUID_00000000_0000_0000_c000_000000000046 004defc8     S3PDB_MSSQLServer_Connection.obj
 0003:00000fd8       __GUID_00000556_0000_0010_8000_00aa006d2ea4 004defd8     S3PDB_MSSQLServer_Connection.obj
 0003:00000fe8       __GUID_b08400bd_f9d1_4d02_b856_71d5dba123e9 004defe8     S3PDB_MSSQLServer_Connection.obj
 0003:00000ff8       ??_C@_0BA@FHKA@X?5state?5occur?5?$CB?$AA@ 004deff8     S3Relay.obj
 0003:00001008       ??_C@_0EM@HJDI@?$AN?6?$CK?$AN?6?$CK?$CK?$CK?$CK?$CK?5S3Relay?5Stop?5?$CI?$EA?5?$CF04d?1@ 004df008     S3Relay.obj
 0003:00001054       ??_C@_0EN@LEML@?$AN?6?$CK?$AN?6?$CK?$CK?$CK?$CK?$CK?5S3Relay?5Start?5?$CI?$EA?5?$CF04d@ 004df054     S3Relay.obj
 0003:000010a4       ??_C@_0BK@JAHP@Initializing?5LogFile?5fail?$AA@ 004df0a4     S3Relay.obj
 0003:000010c0       ??_C@_05COLM@error?$AA@    004df0c0     S3Relay.obj
 0003:000010c8       ??_C@_06OGMH@?$CFd?5?9?9?5?$AA@ 004df0c8     S3Relay.obj
 0003:000010d0       ??_C@_0CC@MLH@?$FL?$CF04d?1?$CF02d?1?$CF02d?5?$CF02d?3?$CF02d?3?$CF02d?$FN?$CF@ 004df0d0     S3Relay.obj
 0003:000010f4       ??_C@_02PIMC@?$AN?6?$AA@   004df0f4     S3Relay.obj
 0003:000010f8       ??_C@_01FCOA@?5?$AA@       004df0f8     S3Relay.obj
 0003:000010fc       ??_C@_07NOMM@ListBox?$AA@  004df0fc     S3Relay.obj
 0003:00001104       ??_C@_03GCM@Out?$AA@       004df104     S3Relay.obj
 0003:00001108       ??_C@_0BJ@PFPE@message?3?5friend?5AFQS?3?5?$CFd?$AA@ 004df108     S3Relay.obj
 0003:00001124       ??_C@_0CB@LNIA@message?3?5friend?5player?5total?3?5?$CFd@ 004df124     S3Relay.obj
 0003:00001148       ??_C@_0CB@IDPJ@message?3?5online?5player?5total?3?5?$CFd@ 004df148     S3Relay.obj
 0003:0000116c       ??_C@_0CF@MOK@message?3?5localMAC?3?5?$CFs?0?5globalMAC@ 004df16c     S3Relay.obj
 0003:00001194       ??_C@_04LDEB@?$CF02X?$AA@  004df194     S3Relay.obj
 0003:0000119c       ??_C@_0DP@HLJC@message?3?5?$FL2?$FN?5HostConnect?3?5?$CFd?0?5Ch@ 004df19c     S3Relay.obj
 0003:000011dc       ??_C@_0CP@BIGE@message?3?5?$FL1?$FN?5RelayClient?3?5?$CFd?0?5Re@ 004df1dc     S3Relay.obj
 0003:0000120c       ??_C@_0EB@GKID@message?3?5?$FL0?$FN?5RootClient?3?5?$CFd?0?5Gat@ 004df20c     S3Relay.obj
 0003:00001250       ??_C@_0DF@CEDK@message?3?5localIP?3?50x?$CF08X?5?$CI?$CFs?$CJ?0?5g@ 004df250     S3Relay.obj
 0003:00001288       ??_C@_0BH@BKD@error?3?5Initialize?5FAIL?$AA@ 004df288     S3Relay.obj
 0003:000012a0       ??_C@_0O@OANN@Initialize?5OK?$AA@ 004df2a0     S3Relay.obj
 0003:000012b0       ??_C@_0BB@FELB@Initializing?5?4?4?4?$AA@ 004df2b0     S3Relay.obj
 0003:000012c4       ??_C@_0BM@A@waring?3?5already?5Initialized?$AA@ 004df2c4     S3Relay.obj
 0003:000012e0       ??_C@_0BA@FKEK@Uninitialize?5OK?$AA@ 004df2e0     S3Relay.obj
 0003:000012f0       ??_C@_0BD@BJAJ@Uninitializing?5?4?4?4?$AA@ 004df2f0     S3Relay.obj
 0003:00001304       ??_C@_0BO@NIHK@waring?3?5already?5Uninitialized?$AA@ 004df304     S3Relay.obj
 0003:00001324       ??_C@_0CI@ILIP@message?3?5recvsum?3?5?$CFld?5B?0?5sendsum@ 004df324     S3Relay.obj
 0003:0000134c       ??_C@_0P@ILLO@Are?5you?5sure?5?$DP?$AA@ 004df34c     S3Relay.obj
 0003:0000135c       ??_C@_07EANM@warning?$AA@  004df35c     S3Relay.obj
 0003:00001398       ??_C@_05BKOF@Sleep?$AA@    004df398     SockThread.obj
 0003:000013a0       ??_C@_09JHBB@LeaveLoop?$AA@ 004df3a0     SockThread.obj
 0003:000013ac       ??_C@_0O@PGEI@UnprepareSock?$AA@ 004df3ac     SockThread.obj
 0003:000013bc       ??_C@_0L@LJBO@ChatServer?$AA@ 004df3bc     SockThread.obj
 0003:000013c8       ??_C@_0L@IGNE@TongServer?$AA@ 004df3c8     SockThread.obj
 0003:000013d4       ??_C@_0L@KAG@HostServer?$AA@ 004df3d4     SockThread.obj
 0003:000013e0       ??_C@_0O@FLPB@GatewayCenter?$AA@ 004df3e0     SockThread.obj
 0003:000013f0       ??_C@_0L@GAEF@RootCenter?$AA@ 004df3f0     SockThread.obj
 0003:000013fc       ??_C@_0M@FGIH@RelayServer?$AA@ 004df3fc     SockThread.obj
 0003:00001408       ??_C@_0M@ECFB@RelayCenter?$AA@ 004df408     SockThread.obj
 0003:00001414       ??_C@_0M@DKBH@PrepareSock?$AA@ 004df414     SockThread.obj
 0003:00001420       ??_C@_09CFML@EnterLoop?$AA@ 004df420     SockThread.obj
 0003:0000142c       ??_C@_04MHIC@NONE?$AA@     004df42c     SockThread.obj
 0003:00001434       ??_C@_0BK@DLHD@fatal?3?5sock?5thread?5except?$AA@ 004df434     SockThread.obj
 0003:00001450       ??_C@_0BJ@ODJO@SockThread?5start?5success?$AA@ 004df450     SockThread.obj
 0003:0000146c       ??_C@_0BH@JHEO@FAIL?3?5SockThread?5start?$AA@ 004df46c     SockThread.obj
 0003:00001484       ??_C@_0BI@HFAJ@SockThread?5stop?5success?$AA@ 004df484     SockThread.obj
 0003:0000149c       ??_C@_0BG@NFEP@FAIL?3?5SockThread?5stop?$AA@ 004df49c     SockThread.obj
 0003:000014b4       ??_C@_0DK@CEBK@message?3?5?$FLSockThread?$FN?5tickLoop?3?5@ 004df4b4     SockThread.obj
 0003:000014f0       ?g_nTongPSSize@@3PAHA      004df4f0     TongConnect.obj
 0003:000018ec       ??_C@_0BI@BDAK@tong?5connect?5create?3?5?$CFs?$AA@ 004df8ec     TongConnect.obj
 0003:00001904       ??_C@_0BH@BBOB@tong?5connect?5close?3?5?$CFs?$AA@ 004df904     TongConnect.obj
 0003:0000191c       ??_C@_0BE@NHHH@tong?5server?5startup?$AA@ 004df91c     TongServer.obj
 0003:00001930       ??_C@_0BF@KLEH@tong?5server?5shutdown?$AA@ 004df930     TongServer.obj
 0003:00001948       ??_C@_0BH@HIPB@message?3?5?$FLTongServer?$FN?5?$AA@ 004df948     TongServer.obj
 0003:00001960       ??_C@_05OGDJ@?$KH?V?5t?v?$AA@ 004df960     KTongControl.obj
 0003:00001968       ??_C@_08LCOH@Tin?5bang?$AA@ 004df968     KTongControl.obj
 0003:00001974       ??_C@_0BO@EOFM@?$CFs?5b?$NO?5b?$LHi?5nhi?Vm?5tr?k?5th?$LFnh?5?$CFs?5?$AA@ 004df974     KTongControl.obj
 0003:00001994       ??_C@_0L@PPDL@?$KH?ii?5tr?$KN?kng?$AA@ 004df994     KTongControl.obj
 0003:000019a0       ??_C@_0BJ@GKHL@?$CFs?5?$KO?$KN?nc?5b?f?5nhi?Vm?5l?$LFm?5?$CFs?5?$AA@ 004df9a0     KTongControl.obj
 0003:000019bc       ??_C@_0L@OAEG@Tr?$KN?kng?5l?$LHo?$AA@ 004df9bc     KTongControl.obj
 0003:000019c8       ??_C@_04NCML@?2O?$CFu?$AA@ 004df9c8     KTongControl.obj
 0003:000019d0       ??_C@_0CB@JHNE@?$CFs?5?$KO?$LH?5b?$NO?5tr?tc?5xu?Jt?5kh?ai?5b?fn?5bang@ 004df9d0     KTongControl.obj
 0003:000019f4       ??_C@_0BO@EAGB@?$CFs?5ch?q?5?$KO?ing?5r?ji?5kh?ai?5b?fn?5bang?$AA@ 004df9f4     KTongControl.obj
 0003:00001a14       ??_C@_0DD@ELOD@Bang?5ch?q?5?$CFs?5?$KO?$LH?5nh?$KN?jng?5ch?xc?5v?$NO?5ba@ 004dfa14     KTongControl.obj
 0003:00001a48       ??_C@_0EC@JIGO@?$CFs?5?$KO?$LH?5?$KO?cng?5g?cp?5?$CFd?5ng?$KJn?5l?$KN?nng?5v?$LFo@ 004dfa48     KTongControl.obj
 0003:00001a8c       ??_C@_0DB@MCAK@?$CFs?5?$KO?$LH?5r?st?5kh?ai?5tr?$KN?$KMng?5m?tc?5ng?$KJn?5k@ 004dfa8c     KTongControl.obj
 0003:00001ac0       ??_C@_0CJ@LEFD@?$CFs?5?$CFs?5?$KO?$KN?nc?5thay?5?$KO?fi?5danh?5hi?Vu?5th@ 004dfac0     KTongControl.obj
 0003:00001aec       ??_C@_08ENJL@Bang?5ch?q?$AA@ 004dfaec     KTongControl.obj
 0003:00001af8       ??_C@_0DC@KFMO@Thay?5?$KO?fi?5danh?5hi?Vu?5nam?5?$KO?V?5t?v?5tro@ 004dfaf8     KTongControl.obj
 0003:00001b2c       ??_C@_0DB@HAMC@Thay?5?$KO?fi?5danh?5hi?Vu?5n?w?5?$KO?V?5t?v?5tron@ 004dfb2c     KTongControl.obj
 0003:00001b60       ??_C@_0CO@LEO@Phe?5ph?$LIi?5hi?Vn?5t?$LJi?5c?qa?5b?fn?5bang?5l@ 004dfb60     KTongControl.obj
 0003:00001b90       ??_C@_0CL@IGOG@Phe?5ph?$LIi?5hi?Vn?5t?$LJi?5c?qa?5b?fn?5bang?5l@ 004dfb90     KTongControl.obj
 0003:00001bbc       ??_C@_0CN@MIA@Phe?5ph?$LIi?5hi?Vn?5t?$LJi?5c?qa?5b?fn?5bang?5l@ 004dfbbc     KTongControl.obj
 0003:00001bec       ??_C@_0CI@GNKA@Bang?5ch?q?5?$KO?cng?5ch?xc?5n?$KIng?5chi?$KKu?5m?i@ 004dfbec     KTongControl.obj
 0003:00001c14       ??_C@_0CG@IBPH@Bang?5ch?q?5m?k?5ch?xc?5n?$KIng?5chi?$KKu?5m?i?5?$KO@ 004dfc14     KTongControl.obj
 0003:00001c3c       ??_C@_0CC@DNAD@?$KH?$LMng?5c?Jp?5bang?5h?ii?5hi?Vn?5t?$LJi?5l?$LF?3?5?$CF@ 004dfc3c     KTongControl.obj
 0003:00001c60       ??_C@_0CH@JKOJ@Ng?$KJn?5qu?$PM?5bang?5h?ii?5hi?Vn?5t?$LJi?5l?$LF?5?$CFd@ 004dfc60     KTongControl.obj
 0003:00001c88       ??_C@_0FD@DMKD@?$DMcolor?$DN255?0107?0107?$DOTi?Rn?5thu?5thu?U@ 004dfc88     KTongControl.obj
 0003:00001cdc       ??_C@_0CL@KADC@C?hng?5hi?Un?5t?en?5bang?5h?ii?5hi?Vn?5t?$LJi?5@ 004dfcdc     KTongControl.obj
 0003:00001d08       ??_C@_0CP@OOGN@Bang?5ch?q?5?$KO?$LH?5ti?Un?5h?$LFnh?5B?$LGo?5l?$KNu?5ti@ 004dfd08     KTongControl.obj
 0003:00001d38       ??_C@_0ED@GOGH@?$CFs?5?$KO?$LH?5?$KO?cng?5g?cp?5?$CFd?5?$KOi?Sm?5c?hng?5hi?Un@ 004dfd38     KTongControl.obj
 0003:00001d7c       ??_C@_0BO@MEOL@?$CFs?5?$KO?$LH?5t?$LJo?5bang?5h?ii?5th?$LFnh?5c?$KLng?$AA@ 004dfd7c     KTongSet.obj
 0003:00001d9c       ??_C@_0BJ@GCFE@?$CFs?5?$KO?$LH?5gia?5nh?Kp?5b?fn?5bang?5?$AA@ 004dfd9c     KTongSet.obj
 0003:00001db8       ??_C@_04BAGI@?2F?$CFu?$AA@ 004dfdb8     KTongSet.obj
 0003:00001dc0       ??_C@_04KCE@?2C?$CFu?$AA@  004dfdc0     KTongSet.obj
 0003:00001dc8       ??_C@_0N@NAAM@TongMemberDB?$AA@ 004dfdc8     TONGDB.OBJ
 0003:00001dd8       ??_C@_0M@IJMC@MemberTable?$AA@ 004dfdd8     TONGDB.OBJ
 0003:00001de4       ??_C@_06HKOB@TongDB?$AA@   004dfde4     TONGDB.OBJ
 0003:00001dec       ??_C@_09IMLD@TongTable?$AA@ 004dfdec     TONGDB.OBJ
 0003:00001df8       ??_C@_0CL@ECD@?$FLUpdateExtPoint?$FN?5Connect?5databas@ 004dfdf8     TONGDB.OBJ
 0003:00001e24       ??_C@_0DD@HHLF@?$FLUpdateExtPoint?$FN?5Can?5not?5find?5ac@ 004dfe24     TONGDB.OBJ
 0003:00001e58       ??_C@_0EE@FAMJ@?$FLUpdateExtPoint?$FN?$FL?$CFs?$FN?5Update?5Coin@ 004dfe58     TONGDB.OBJ
 0003:00001e9c       ??_C@_0DM@NOON@?$FLUpdateExtPoint?$FN?$FL?$CFs?$FN?5Update?5Coin@ 004dfe9c     TONGDB.OBJ
 0003:00001ed8       ??_C@_0EA@MMBL@UPDATE?5Account_Habitus?5SET?5nExtP@ 004dfed8     TONGDB.OBJ
 0003:00001f18       ??_C@_0DL@IMFC@SELECT?5cAccName?5FROM?5Account_Hab@ 004dff18     TONGDB.OBJ
 0003:00001f54       ??_C@_0CE@NGIA@?$FLGetCoin?$FN?5Connect?5database?5error@ 004dff54     TONGDB.OBJ
 0003:00001f78       ??_C@_0BO@OALJ@?$FLGetCoin?$FN?5No?5result?5return?$CB?$CB?$CB?$AA@ 004dff78     TONGDB.OBJ
 0003:00001f98       ??_C@_0DM@NPOM@SELECT?5nExtPoint?5FROM?5Account_Ha@ 004dff98     TONGDB.OBJ
 0003:00001fd4       __NLG_Destination          004dffd4     LIBCMTD:exsup.obj
 0003:00001ff0       __fltused                  004dfff0     LIBCMTD:fpinit.obj
 0003:00001ff4       __ldused                   004dfff4     LIBCMTD:fpinit.obj
 0003:00001ff8       __FPinit                   004dfff8     LIBCMTD:fpinit.obj
 0003:00001ffc       __FPmtinit                 004dfffc     LIBCMTD:fpinit.obj
 0003:00002000       __FPmtterm                 004e0000     LIBCMTD:fpinit.obj
 0003:00002004       __crtDbgFlag               004e0004     LIBCMTD:dbgheap.obj
 0003:0000200c       __crtBreakAlloc            004e000c     LIBCMTD:dbgheap.obj
 0003:00002028       ??_R0?AVtype_info@@@8      004e0028     LIBCMTD:typinfo.obj
 0003:00002040       ?__pMyUnhandledExceptionFilter@@3PAXA 004e0040     LIBCMTD:throw.obj
 0003:00002050       __aexit_rtn                004e0050     LIBCMTD:wincrt0.obj
 0003:00002054       ___app_type                004e0054     LIBCMTD:wincrt0.obj
 0003:00002060       ___tlsindex                004e0060     LIBCMTD:tidtable.obj
 0003:00002064       ?__pInconsistency@@3P6AXXZA 004e0064     LIBCMTD:hooks.obj
 0003:00002068       __locktable                004e0068     LIBCMTD:mlock.obj
 0003:00002128       __crtAssertBusy            004e0128     LIBCMTD:dbgrpt.obj
 0003:0000212c       __CrtDbgMode               004e012c     LIBCMTD:dbgrpt.obj
 0003:00002138       __CrtDbgFile               004e0138     LIBCMTD:dbgrpt.obj
 0003:00002250       __pctype                   004e0250     LIBCMTD:ctype.obj
 0003:00002254       __pwctype                  004e0254     LIBCMTD:ctype.obj
 0003:00002258       __ctype                    004e0258     LIBCMTD:ctype.obj
 0003:0000245c       ___mb_cur_max              004e045c     LIBCMTD:nlsdata1.obj
 0003:00002460       ___decimal_point           004e0460     LIBCMTD:nlsdata1.obj
 0003:00002464       ___decimal_point_length    004e0464     LIBCMTD:nlsdata1.obj
 0003:00002470       ___nullstring              004e0470     LIBCMTD:output.obj
 0003:00002474       ___wnullstring             004e0474     LIBCMTD:output.obj
 0003:00002478       __cfltcvt_tab              004e0478     LIBCMTD:cmiscdat.obj
 0003:00002490       __pfnAllocHook             004e0490     LIBCMTD:dbghook.obj
 0003:00002494       __amblksiz                 004e0494     LIBCMTD:heapinit.obj
 0003:00002498       ___sbh_threshold           004e0498     LIBCMTD:sbheap.obj
 0003:000024a0       __iob                      004e04a0     LIBCMTD:_file.obj
 0003:00002888       ___badioinfo               004e0888     LIBCMTD:ioinit.obj
 0003:000028b0       __XcptActTab               004e08b0     LIBCMTD:winxfltr.obj
 0003:00002928       __First_FPE_Indx           004e0928     LIBCMTD:winxfltr.obj
 0003:0000292c       __Num_FPE                  004e092c     LIBCMTD:winxfltr.obj
 0003:00002930       __XcptActTabSize           004e0930     LIBCMTD:winxfltr.obj
 0003:00002934       __XcptActTabCount          004e0934     LIBCMTD:winxfltr.obj
 0003:00002938       __timezone                 004e0938     LIBCMTD:timeset.obj
 0003:0000293c       __daylight                 004e093c     LIBCMTD:timeset.obj
 0003:00002940       __dstbias                  004e0940     LIBCMTD:timeset.obj
 0003:000029c4       __tzname                   004e09c4     LIBCMTD:timeset.obj
 0003:00002bc0       ___lc_category             004e0bc0     LIBCMTD:setlocal.obj
 0003:00002c08       __lpdays                   004e0c08     LIBCMTD:days.obj
 0003:00002c3c       __days                     004e0c3c     LIBCMTD:days.obj
 0003:00002c70       ___rgLocInfo               004e0c70     LIBCMTD:getqloc.obj
 0003:00003114       ___rglangidNotDefault      004e1114     LIBCMTD:getqloc.obj
 0003:00003128       ___rg_country              004e1128     LIBCMTD:getqloc.obj
 0003:000031e0       ___rg_language             004e11e0     LIBCMTD:getqloc.obj
 0003:000033e8       ___lc_time_curr            004e13e8     LIBCMTD:strftime.obj
 0003:000033f0       ___lc_time_c               004e13f0     LIBCMTD:strftime.obj
 0003:000034a0       ___lconv_static_decimal    004e14a0     LIBCMTD:lconv.obj
 0003:000034a8       ___lconv_c                 004e14a8     LIBCMTD:lconv.obj
 0003:000034d8       ___lconv                   004e14d8     LIBCMTD:lconv.obj
 0003:000034e0       __pow10pos                 004e14e0     LIBCMTD:constpow.obj
 0003:00003640       __pow10neg                 004e1640     LIBCMTD:constpow.obj
 0003:000037a0       ___db_global_values        004e17a0     libdb41s:env_method.obj
 0003:000037f8       ??_C@_09NMDG@set_alloc?$AA@ 004e17f8     libdb41s:env_method.obj
 0003:00003804       ??_C@_0BB@KBEF@set_app_dispatch?$AA@ 004e1804     libdb41s:env_method.obj
 0003:00003818       ??_C@_0BK@JHFC@set_flags?3?5DB_REGION_INIT?$AA@ 004e1818     libdb41s:env_method.obj
 0003:00003834       ??_C@_0CA@HCNE@set_flags?3?5DB_PANIC_ENVIRONMENT?$AA@ 004e1834     libdb41s:env_method.obj
 0003:00003854       ??_C@_0BI@MOIJ@set_flags?3?5DB_CDB_ALLDB?$AA@ 004e1854     libdb41s:env_method.obj
 0003:0000386c       ??_C@_0BC@MODP@DB_ENV?9?$DOset_flags?$AA@ 004e186c     libdb41s:env_method.obj
 0003:00003880       ??_C@_0M@EIIK@set_shm_key?$AA@ 004e1880     libdb41s:env_method.obj
 0003:0000388c       ??_C@_0CP@OEBE@?$CFs?3?5method?5not?5permitted?5in?5shar@ 004e188c     libdb41s:env_method.obj
 0003:000038bc       ??_C@_0CB@CLKE@?$CFs?3?5method?5not?5permitted?5?$CFs?5open@ 004e18bc     libdb41s:env_method.obj
 0003:000038e0       ??_C@_06NNGD@before?$AA@   004e18e0     libdb41s:env_method.obj
 0003:000038e8       ??_C@_05BKDG@after?$AA@    004e18e8     libdb41s:env_method.obj
 0003:000038f0       ??_C@_0EF@GOMK@?$CFs?5interface?5requires?5an?5environ@ 004e18f0     libdb41s:env_method.obj
 0003:00003938       ??_C@_0M@HIHI@transaction?$AA@ 004e1938     libdb41s:env_method.obj
 0003:00003944       ??_C@_0O@GGPP@?$DMunspecified?$DO?$AA@ 004e1944     libdb41s:env_method.obj
 0003:00003954       ??_C@_0M@HCON@memory?5pool?$AA@ 004e1954     libdb41s:env_method.obj
 0003:00003960       ??_C@_07GMDO@locking?$AA@  004e1960     libdb41s:env_method.obj
 0003:00003968       ??_C@_07FDHD@logging?$AA@  004e1968     libdb41s:env_method.obj
 0003:00003970       ??_C@_0DL@NEBD@set_rpc_server?5method?5not?5permit@ 004e1970     libdb41s:env_method.obj
 0003:000039ac       ??_C@_0DM@CFE@XA?5applications?5may?5not?5specify?5@ 004e19ac     libdb41s:db_method.obj
 0003:000039e8       ??_C@_09PDNE@db_create?$AA@ 004e19e8     libdb41s:db_method.obj
 0003:000039f4       ??_C@_0EI@PKIF@call?5implies?5an?5access?5method?5wh@ 004e19f4     libdb41s:db_method.obj
 0003:00003a3c       ??_C@_0BA@NOPK@get_byteswapped?$AA@ 004e1a3c     libdb41s:db_method.obj
 0003:00003a4c       ??_C@_08FHFC@get_type?$AA@ 004e1a4c     libdb41s:db_method.obj
 0003:00003a58       ??_C@_09JMCA@key_range?$AA@ 004e1a58     libdb41s:db_method.obj
 0003:00003a64       ??_C@_0BB@MCGJ@set_append_recno?$AA@ 004e1a64     libdb41s:db_method.obj
 0003:00003a78       ??_C@_0O@JLOK@set_cachesize?$AA@ 004e1a78     libdb41s:db_method.obj
 0003:00003a88       ??_C@_0M@JDHL@dup_compare?$AA@ 004e1a88     libdb41s:db_method.obj
 0003:00003a94       ??_C@_0M@DNMN@set_encrypt?$AA@ 004e1a94     libdb41s:db_method.obj
 0003:00003aa0       ??_C@_0O@IKGO@DB?9?$DOset_flags?$AA@ 004e1aa0     libdb41s:db_method.obj
 0003:00003ab0       ??_C@_0DD@PDOD@Database?5environment?5not?5configu@ 004e1ab0     libdb41s:db_method.obj
 0003:00003ae4       ??_C@_0L@DEMA@set_lorder?$AA@ 004e1ae4     libdb41s:db_method.obj
 0003:00003af0       ??_C@_0CA@OLD@page?5sizes?5must?5be?5a?5power?9of?92?$AA@ 004e1af0     libdb41s:db_method.obj
 0003:00003b10       ??_C@_0CG@BBDF@page?5sizes?5may?5not?5be?5larger?5tha@ 004e1b10     libdb41s:db_method.obj
 0003:00003b38       ??_C@_0CH@GGKK@page?5sizes?5may?5not?5be?5smaller?5th@ 004e1b38     libdb41s:db_method.obj
 0003:00003b60       ??_C@_0N@EKJH@set_pagesize?$AA@ 004e1b60     libdb41s:db_method.obj
 0003:00003b70       ??_C@_08DJHN@DB?9?$DOstat?$AA@ 004e1b70     libdb41s:db_method.obj
 0003:00003b7c       ??_C@_0BA@GIIH@malloc?3?5?$CFs?3?5?$CFlu?$AA@ 004e1b7c     libdb41s:os_alloc.obj
 0003:00003b8c       ??_C@_0CN@IPLH@User?9specified?5malloc?5function?5r@ 004e1b8c     libdb41s:os_alloc.obj
 0003:00003bbc       ??_C@_0BB@GKNG@realloc?3?5?$CFs?3?5?$CFlu?$AA@ 004e1bbc     libdb41s:os_alloc.obj
 0003:00003bd0       ??_C@_0CO@OBLO@User?9specified?5realloc?5function?5@ 004e1bd0     libdb41s:os_alloc.obj
 0003:00003c00       ??_C@_0L@IDL@set_tx_max?$AA@ 004e1c00     libdb41s:txn_method.obj
 0003:00003c0c       ??_C@_0BB@HADO@set_tx_timestamp?$AA@ 004e1c0c     libdb41s:txn_method.obj
 0003:00003c20       ??_C@_0CJ@HOBJ@DB_ENV?9?$DOrep_start?5called?5with?5op@ 004e1c20     libdb41s:rep_method.obj
 0003:00003c4c       ??_C@_0EC@BLFP@DB_ENV?9?$DOset_rep_transport?5must?5b@ 004e1c4c     libdb41s:rep_method.obj
 0003:00003c90       ??_C@_0DG@EBGA@DB_ENV?9?$DOrep_start?3?5replication?5m@ 004e1c90     libdb41s:rep_method.obj
 0003:00003cc8       ??_C@_0BC@JIDJ@DB_ENV?9?$DOrep_start?$AA@ 004e1cc8     libdb41s:rep_method.obj
 0003:00003cdc       ??_C@_08OEAM@rep_stat?$AA@ 004e1cdc     libdb41s:rep_method.obj
 0003:00003ce8       ??_C@_09HMBH@rep_start?$AA@ 004e1ce8     libdb41s:rep_method.obj
 0003:00003cf4       ??_C@_0M@IIPF@__db?4rep?4db?$AA@ 004e1cf4     libdb41s:rep_method.obj
 0003:00003d00       ??_C@_0BL@KMAC@Final?5log?5record?5not?5found?$AA@ 004e1d00     libdb41s:rep_method.obj
 0003:00003d1c       ??_C@_0CH@HKNC@Attempt?5to?5get?5first?5log?5record?5@ 004e1d1c     libdb41s:rep_method.obj
 0003:00003d44       ??_C@_0CL@NHCN@Checkpoint?5LSN?5record?5?$FL?$CFlu?$FN?$FL?$CFlu?$FN@ 004e1d44     libdb41s:rep_method.obj
 0003:00003d70       ??_C@_0CI@DEEM@Invalid?5checkpoint?5record?5at?5?$FL?$CFl@ 004e1d70     libdb41s:rep_method.obj
 0003:00003d98       ??_C@_0CO@EKBK@Checkpoint?5record?5at?5LSN?5?$FL?$CFlu?$FN?$FL?$CF@ 004e1d98     libdb41s:rep_method.obj
 0003:00003dc8       ??_C@_0EF@NHPG@DB_ENV?9?$DOset_rep_limit?3?5database?5@ 004e1dc8     libdb41s:rep_method.obj
 0003:00003e10       ??_C@_0EH@BOOO@DB_ENV?9?$DOset_rep_request?3?5databas@ 004e1e10     libdb41s:rep_method.obj
 0003:00003e58       ??_C@_0EC@FKHE@DB_ENV?9?$DOset_rep_transport?3?5eid?5m@ 004e1e58     libdb41s:rep_method.obj
 0003:00003e9c       ??_C@_0DG@LEAM@DB_ENV?9?$DOset_rep_transport?3?5no?5se@ 004e1e9c     libdb41s:rep_method.obj
 0003:00003ed4       ??_C@_0EJ@EDDG@DB_ENV?9?$DOset_rep_transport?3?5datab@ 004e1ed4     libdb41s:rep_method.obj
 0003:00003f20       ??_C@_0DA@KEHK@DB_ENV?9?$DOrep_elect?3?5priority?5may?5@ 004e1f20     libdb41s:rep_method.obj
 0003:00003f50       ??_C@_0DB@EKBN@DB_ENV?9?$DOrep_elect?3?5nsites?5must?5b@ 004e1f50     libdb41s:rep_method.obj
 0003:00003f84       ??_C@_09PFHF@rep_elect?$AA@ 004e1f84     libdb41s:rep_method.obj
 0003:00003f90       ??_C@_0BB@MKGI@DB_ENV?9?$DOrep_stat?$AA@ 004e1f90     libdb41s:rep_method.obj
 0003:00003fa4       ??_C@_0CA@NFCF@individual?5cache?5size?5too?5large?$AA@ 004e1fa4     libdb41s:mp_method.obj
 0003:00003fc4       ??_C@_0BB@HOIA@set_lk_conflicts?$AA@ 004e1fc4     libdb41s:lock_method.obj
 0003:00003fd8       ??_C@_0EB@KNEN@DB_ENV?9?$DOset_lk_detect?3?5unknown?5d@ 004e1fd8     libdb41s:lock_method.obj
 0003:0000401c       ??_C@_0O@PBAP@set_lk_detect?$AA@ 004e201c     libdb41s:lock_method.obj
 0003:0000402c       ??_C@_0L@BNAC@set_lk_max?$AA@ 004e202c     libdb41s:lock_method.obj
 0003:00004038       ??_C@_0BB@KJCG@set_lk_max_locks?$AA@ 004e2038     libdb41s:lock_method.obj
 0003:0000404c       ??_C@_0BD@NELH@set_lk_max_lockers?$AA@ 004e204c     libdb41s:lock_method.obj
 0003:00004060       ??_C@_0BD@GND@set_lk_max_objects?$AA@ 004e2060     libdb41s:lock_method.obj
 0003:00004074       ??_C@_0BE@BHJP@DB_ENV?9?$DOset_timeout?$AA@ 004e2074     libdb41s:lock_method.obj
 0003:00004088       ??_C@_0M@PNBF@set_timeout?$AA@ 004e2088     libdb41s:lock_method.obj
 0003:00004094       ??_C@_0CN@NFDF@log?5buffer?5size?5must?5be?5?$DM?$DN?5log?5f@ 004e2094     libdb41s:log_method.obj
 0003:000040c4       ??_C@_0N@GNDA@set_lg_bsize?$AA@ 004e20c4     libdb41s:log_method.obj
 0003:000040d4       ??_C@_0CN@HMFA@log?5file?5size?5must?5be?5?$DO?$DN?5log?5buf@ 004e20d4     libdb41s:log_method.obj
 0003:00004104       ??_C@_0L@JMLN@set_lg_max?$AA@ 004e2104     libdb41s:log_method.obj
 0003:00004110       ??_C@_0BM@OEOA@log?5file?5size?5must?5be?5?$DO?$DN?5?$CFd?$AA@ 004e2110     libdb41s:log_method.obj
 0003:0000412c       ??_C@_0BB@EDMA@set_lg_regionmax?$AA@ 004e212c     libdb41s:log_method.obj
 0003:00004140       ??_C@_0DM@DFKO@Sleepycat?5Software?3?5Berkeley?5DB?5@ 004e2140     libdb41s:env_open.obj
 0003:0000417c       ??_C@_06FBLN@rwrw?9?9?$AA@ 004e217c     libdb41s:env_open.obj
 0003:00004184       ??_C@_0N@NENJ@DB_ENV?9?$DOopen?$AA@ 004e2184     libdb41s:env_open.obj
 0003:00004194       ??_C@_0P@MMKA@DB_ENV?9?$DOremove?$AA@ 004e2194     libdb41s:env_open.obj
 0003:000041a4       ??_C@_0BJ@NALJ@DB_CONFIG?3?5line?5too?5long?$AA@ 004e21a4     libdb41s:env_open.obj
 0003:000041c0       ??_C@_01LHO@r?$AA@         004e21c0     libdb41s:env_open.obj
 0003:000041c4       ??_C@_09HOJD@DB_CONFIG?$AA@ 004e21c4     libdb41s:env_open.obj
 0003:000041d0       ??_C@_0CP@GJNE@Database?5handles?5open?5during?5env@ 004e21d0     libdb41s:env_open.obj
 0003:00004200       ??_C@_03IHHK@?2?1?3?$AA@   004e2200     libdb41s:env_open.obj
 0003:00004204       ??_C@_0CF@PMNK@illegal?5DB_HOME?5environment?5vari@ 004e2204     libdb41s:env_open.obj
 0003:0000422c       ??_C@_07BFDH@DB_HOME?$AA@  004e222c     libdb41s:env_open.obj
 0003:00004234       ??_C@_0CC@PEOC@mis?9formatted?5name?9value?5pair?3?5?$CF@ 004e2234     libdb41s:env_open.obj
 0003:00004258       ??_C@_0CB@HICC@unrecognized?5name?9value?5pair?3?5?$CFs@ 004e2258     libdb41s:env_open.obj
 0003:0000427c       ??_C@_0CM@MEPL@incorrect?5arguments?5for?5name?9val@ 004e227c     libdb41s:env_open.obj
 0003:000042a8       ??_C@_0BB@CEIH@db_verb_waitsfor?$AA@ 004e22a8     libdb41s:env_open.obj
 0003:000042bc       ??_C@_0BB@ONMJ@db_verb_recovery?$AA@ 004e22bc     libdb41s:env_open.obj
 0003:000042d0       ??_C@_0BB@JEBC@db_verb_deadlock?$AA@ 004e22d0     libdb41s:env_open.obj
 0003:000042e4       ??_C@_0BB@FKMM@db_verb_chkpoint?$AA@ 004e22e4     libdb41s:env_open.obj
 0003:000042f8       ??_C@_0M@LGJM@set_verbose?$AA@ 004e22f8     libdb41s:env_open.obj
 0003:00004304       ??_C@_0CG@EKBE@?$CFs?3?5?$CFlu?5larger?5than?5maximum?5valu@ 004e2304     libdb41s:env_open.obj
 0003:0000432c       ??_C@_0BA@KJOJ@set_txn_timeout?$AA@ 004e232c     libdb41s:env_open.obj
 0003:0000433c       ??_C@_0L@EIDC@db_tmp_dir?$AA@ 004e233c     libdb41s:env_open.obj
 0003:00004348       ??_C@_0M@LKG@set_tmp_dir?$AA@ 004e2348     libdb41s:env_open.obj
 0003:00004354       ??_C@_0O@NENB@set_tas_spins?$AA@ 004e2354     libdb41s:env_open.obj
 0003:00004364       ??_C@_0BA@CLOE@set_region_init?$AA@ 004e2364     libdb41s:env_open.obj
 0003:00004374       ??_C@_0BA@PFKP@set_mp_mmapsize?$AA@ 004e2374     libdb41s:env_open.obj
 0003:00004384       ??_C@_0BB@FFD@set_lock_timeout?$AA@ 004e2384     libdb41s:env_open.obj
 0003:00004398       ??_C@_0BB@NAEN@db_lock_youngest?$AA@ 004e2398     libdb41s:env_open.obj
 0003:000043ac       ??_C@_0P@CDFE@db_lock_random?$AA@ 004e23ac     libdb41s:env_open.obj
 0003:000043bc       ??_C@_0P@NGMH@db_lock_oldest?$AA@ 004e23bc     libdb41s:env_open.obj
 0003:000043cc       ??_C@_0BB@CALM@db_lock_minwrite?$AA@ 004e23cc     libdb41s:env_open.obj
 0003:000043e0       ??_C@_0BB@NADF@db_lock_minlocks?$AA@ 004e23e0     libdb41s:env_open.obj
 0003:000043f4       ??_C@_0BB@IDFK@db_lock_maxlocks?$AA@ 004e23f4     libdb41s:env_open.obj
 0003:00004408       ??_C@_0P@NPIN@db_lock_expire?$AA@ 004e2408     libdb41s:env_open.obj
 0003:00004418       ??_C@_0BA@IPOA@db_lock_default?$AA@ 004e2418     libdb41s:env_open.obj
 0003:00004428       ??_C@_0L@JMCK@db_log_dir?$AA@ 004e2428     libdb41s:env_open.obj
 0003:00004434       ??_C@_0L@OKNM@set_lg_dir?$AA@ 004e2434     libdb41s:env_open.obj
 0003:00004440       ??_C@_06DDIH@?$CFlu?5?$CFc?$AA@ 004e2440     libdb41s:env_open.obj
 0003:00004448       ??_C@_0M@IOBK@db_yieldcpu?$AA@ 004e2448     libdb41s:env_open.obj
 0003:00004454       ??_C@_0BE@PHPE@db_txn_write_nosync?$AA@ 004e2454     libdb41s:env_open.obj
 0003:00004468       ??_C@_0O@PIKD@db_txn_nosync?$AA@ 004e2468     libdb41s:env_open.obj
 0003:00004478       ??_C@_0P@OLPM@db_region_init?$AA@ 004e2478     libdb41s:env_open.obj
 0003:00004488       ??_C@_0L@JOMO@db_nopanic?$AA@ 004e2488     libdb41s:env_open.obj
 0003:00004494       ??_C@_0N@ENOK@db_overwrite?$AA@ 004e2494     libdb41s:env_open.obj
 0003:000044a4       ??_C@_09MDFH@db_nommap?$AA@ 004e24a4     libdb41s:env_open.obj
 0003:000044b0       ??_C@_0N@BFKP@db_nolocking?$AA@ 004e24b0     libdb41s:env_open.obj
 0003:000044c0       ??_C@_0O@MHJ@db_direct_log?$AA@ 004e24c0     libdb41s:env_open.obj
 0003:000044d0       ??_C@_0N@FNFP@db_direct_db?$AA@ 004e24d0     libdb41s:env_open.obj
 0003:000044e0       ??_C@_0N@BACF@db_cdb_alldb?$AA@ 004e24e0     libdb41s:env_open.obj
 0003:000044f0       ??_C@_07OPAA@?$CF40s?5?$CFc?$AA@ 004e24f0     libdb41s:env_open.obj
 0003:000044f8       ??_C@_09CKBB@set_flags?$AA@ 004e24f8     libdb41s:env_open.obj
 0003:00004504       ??_C@_0M@CHFA@db_data_dir?$AA@ 004e2504     libdb41s:env_open.obj
 0003:00004510       ??_C@_0N@LOBD@set_data_dir?$AA@ 004e2510     libdb41s:env_open.obj
 0003:00004520       ??_C@_0P@IMBA@?$CFlu?5?$CFlu?5?$CFlu?5?$CFc?$AA@ 004e2520     libdb41s:env_open.obj
 0003:00004530       ??_C@_0BB@GPBM@tmp_open?3?5?$CFs?3?5?$CFs?$AA@ 004e2530     libdb41s:env_open.obj
 0003:00004544       ??_C@_06BAGP@rw?9?9?9?9?$AA@ 004e2544     libdb41s:env_open.obj
 0003:0000454c       ??_C@_09GCPH@BDBXXXXXX?$AA@ 004e254c     libdb41s:env_open.obj
 0003:00004558       ??_C@_06HNNJ@?$CFs?3?5?$CFs?$AA@ 004e2558     libdb41s:env_open.obj
 0003:00004560       ??_C@_0L@DCJH@DB?9?$DOrename?$AA@ 004e2560     libdb41s:db_rename.obj
 0003:0000456c       ??_C@_0BB@EFMF@DB_ENV?9?$DOdbrename?$AA@ 004e256c     libdb41s:db_rename.obj
 0003:00004580       ??_C@_0L@MFKB@DB?9?$DOremove?$AA@ 004e2580     libdb41s:db_remove.obj
 0003:0000458c       ??_C@_0BB@LCPD@DB_ENV?9?$DOdbremove?$AA@ 004e258c     libdb41s:db_remove.obj
 0003:000045a0       ??_C@_0BC@PPHM@__db_subdb_remove?$AA@ 004e25a0     libdb41s:db_remove.obj
 0003:000045b4       ??_C@_0BP@JOHJ@illegal?5flag?5?$CFsspecified?5to?5?$CFs?$AA@ 004e25b4     libdb41s:db_err.obj
 0003:000045d4       ??_C@_0N@JCI@combination?5?$AA@ 004e25d4     libdb41s:db_err.obj
 0003:000045e4       ??_C@_0CD@FMMB@unable?5to?5create?1retrieve?5page?5?$CF@ 004e25e4     libdb41s:db_err.obj
 0003:00004608       ??_C@_0CG@HOL@page?5?$CFlu?3?5illegal?5page?5type?5or?5f@ 004e2608     libdb41s:db_err.obj
 0003:00004630       ??_C@_0BI@EBFM@operation?5not?5supported?$AA@ 004e2630     libdb41s:db_err.obj
 0003:00004648       ??_C@_0CK@BHCB@fatal?5region?5error?5detected?$DL?5run@ 004e2648     libdb41s:db_err.obj
 0003:00004674       ??_C@_09JPBA@PANIC?3?5?$CFs?$AA@ 004e2674     libdb41s:db_err.obj
 0003:00004680       ??_C@_0BC@ONBK@Unknown?5error?3?5?$CFd?$AA@ 004e2680     libdb41s:db_err.obj
 0003:00004694       ??_C@_0CM@POJO@DB_VERIFY_BAD?3?5Database?5verifica@ 004e2694     libdb41s:db_err.obj
 0003:000046c0       ??_C@_0DM@LNBO@DB_SECONDARY_BAD?3?5Secondary?5inde@ 004e26c0     libdb41s:db_err.obj
 0003:000046fc       ??_C@_0DD@EDNB@DB_RUNRECOVERY?3?5Fatal?5error?0?5run@ 004e26fc     libdb41s:db_err.obj
 0003:00004730       ??_C@_0CJ@GIJL@DB_REP_UNAVAIL?3?5Unable?5to?5elect?5@ 004e2730     libdb41s:db_err.obj
 0003:0000475c       ??_C@_0DI@KGFJ@DB_REP_OUTDATED?3?5Insufficient?5lo@ 004e275c     libdb41s:db_err.obj
 0003:00004794       ??_C@_0DC@POCA@DB_REP_NEWSITE?3?5A?5new?5site?5has?5e@ 004e2794     libdb41s:db_err.obj
 0003:000047c8       ??_C@_0DD@HCBD@DB_REP_NEWMASTER?3?5A?5new?5master?5h@ 004e27c8     libdb41s:db_err.obj
 0003:000047fc       ??_C@_0CO@ODMF@DB_REP_HOLDELECTION?3?5Need?5to?5hol@ 004e27fc     libdb41s:db_err.obj
 0003:0000482c       ??_C@_0DA@NHPI@DB_REP_DUPMASTER?3?5A?5second?5maste@ 004e282c     libdb41s:db_err.obj
 0003:0000485c       ??_C@_0CL@IHEA@DB_PAGE_NOTFOUND?3?5Requested?5page@ 004e285c     libdb41s:db_err.obj
 0003:00004888       ??_C@_0DD@PEDG@DB_OLDVERSION?3?5Database?5requires@ 004e2888     libdb41s:db_err.obj
 0003:000048bc       ??_C@_0CN@FKIA@DB_NOTFOUND?3?5No?5matching?5key?1dat@ 004e28bc     libdb41s:db_err.obj
 0003:000048ec       ??_C@_0DC@GMHJ@DB_NOSERVER_ID?3?5Identifier?5unrec@ 004e28ec     libdb41s:db_err.obj
 0003:00004920       ??_C@_0CO@IIFE@DB_NOSERVER_HOME?3?5Home?5unrecogni@ 004e2920     libdb41s:db_err.obj
 0003:00004950       ??_C@_0CE@PE@DB_NOSERVER?3?5Fatal?5error?0?5no?5ser@ 004e2950     libdb41s:db_err.obj
 0003:00004974       ??_C@_0CF@LGLG@DB_LOCK_NOTGRANTED?3?5Lock?5not?5gra@ 004e2974     libdb41s:db_err.obj
 0003:0000499c       ??_C@_0DG@NJCF@DB_LOCK_DEADLOCK?3?5Locker?5killed?5@ 004e299c     libdb41s:db_err.obj
 0003:000049d4       ??_C@_0CK@KGBE@DB_KEYEXIST?3?5Key?1data?5pair?5alrea@ 004e29d4     libdb41s:db_err.obj
 0003:00004a00       ??_C@_0CI@KDIJ@DB_KEYEMPTY?3?5Non?9existent?5key?1da@ 004e2a00     libdb41s:db_err.obj
 0003:00004a28       ??_C@_0DF@IAHI@DB_DONOTINDEX?3?5Secondary?5index?5c@ 004e2a28     libdb41s:db_err.obj
 0003:00004a60       ??_C@_0BF@KKFA@Successful?5return?3?50?$AA@ 004e2a60     libdb41s:db_err.obj
 0003:00004a78       ??_C@_0DH@IGJM@Berkeley?5DB?3?5error?5callback?5inte@ 004e2a78     libdb41s:db_err.obj
 0003:00004ab0       ??_C@_04OFDJ@?3?5?$CFs?$AA@ 004e2ab0     libdb41s:db_err.obj
 0003:00004ab8       ??_C@_02HFBK@?3?5?$AA@     004e2ab8     libdb41s:db_err.obj
 0003:00004abc       ??_C@_04HPGM@?$CFs?3?5?$AA@ 004e2abc     libdb41s:db_err.obj
 0003:00004ac4       ??_C@_0BH@DLBO@?$CFs?3?5Unknown?5flag?3?50x?$CFx?$AA@ 004e2ac4     libdb41s:db_err.obj
 0003:00004adc       ??_C@_0BK@IOPK@?$CFs?3?5Unknown?5db?5type?3?50x?$CFx?$AA@ 004e2adc     libdb41s:db_err.obj
 0003:00004af8       ??_C@_0ED@HDLP@Transaction?5specified?5for?5a?5DB?5h@ 004e2af8     libdb41s:db_err.obj
 0003:00004b3c       ??_C@_0DG@CGAL@Transaction?5that?5opened?5the?5DB?5h@ 004e2b3c     libdb41s:db_err.obj
 0003:00004b74       ??_C@_0DL@IHOP@Operation?5forbidden?5while?5second@ 004e2b74     libdb41s:db_err.obj
 0003:00004bb0       ??_C@_0EF@PIHE@DB?5handle?5previously?5used?5in?5tra@ 004e2bb0     libdb41s:db_err.obj
 0003:00004bf8       ??_C@_0CP@GIIG@DB?5environment?5not?5configured?5fo@ 004e2bf8     libdb41s:db_err.obj
 0003:00004c28       ??_C@_0BP@FOLC@Extent?5size?5must?5be?5at?5least?51?$AA@ 004e2c28     libdb41s:qam_method.obj
 0003:00004c48       ??_C@_0P@NPMP@set_extentsize?$AA@ 004e2c48     libdb41s:qam_method.obj
 0003:00004c58       ??_C@_0BA@LKMF@?$CFs?$CFc__dbq?4?$CFs?4?$CFd?$AA@ 004e2c58     libdb41s:qam_method.obj
 0003:00004c68       ??_C@_0DD@IIH@Queue?5does?5not?5support?5multiple?5@ 004e2c68     libdb41s:qam_method.obj
 0003:00004c9c       ??_C@_0O@FJMC@set_h_ffactor?$AA@ 004e2c9c     libdb41s:hash_method.obj
 0003:00004cac       ??_C@_0L@POFG@set_h_hash?$AA@ 004e2cac     libdb41s:hash_method.obj
 0003:00004cb8       ??_C@_0M@GCNA@set_h_nelem?$AA@ 004e2cb8     libdb41s:hash_method.obj
 0003:00004cc4       ??_C@_0P@GMKE@set_bt_compare?$AA@ 004e2cc4     libdb41s:bt_method.obj
 0003:00004cd4       ??_C@_0BN@FOGA@minimum?5bt_maxkey?5value?5is?51?$AA@ 004e2cd4     libdb41s:bt_method.obj
 0003:00004cf4       ??_C@_0O@NAI@set_bt_maxkey?$AA@ 004e2cf4     libdb41s:bt_method.obj
 0003:00004d04       ??_C@_0BN@KAI@minimum?5bt_minkey?5value?5is?52?$AA@ 004e2d04     libdb41s:bt_method.obj
 0003:00004d24       ??_C@_0O@IGOP@set_bt_minkey?$AA@ 004e2d24     libdb41s:bt_method.obj
 0003:00004d34       ??_C@_0O@NLCK@set_bt_prefix?$AA@ 004e2d34     libdb41s:bt_method.obj
 0003:00004d44       ??_C@_0N@BGNB@set_re_delim?$AA@ 004e2d44     libdb41s:bt_method.obj
 0003:00004d54       ??_C@_0L@IIK@set_re_len?$AA@ 004e2d54     libdb41s:bt_method.obj
 0003:00004d60       ??_C@_0L@KKDD@set_re_pad?$AA@ 004e2d60     libdb41s:bt_method.obj
 0003:00004d6c       ??_C@_0O@PBFD@set_re_source?$AA@ 004e2d6c     libdb41s:bt_method.obj
 0003:00004d7c       ??_C@_0DO@HFHC@verify?5may?5not?5be?5used?5with?5tran@ 004e2d7c     libdb41s:db_vrfy.obj
 0003:00004dbc       ??_C@_0CJ@HCCC@DB_ORDERCHKONLY?5requires?5a?5datab@ 004e2dbc     libdb41s:db_vrfy.obj
 0003:00004de8       ??_C@_0M@DACN@__db_verify?$AA@ 004e2de8     libdb41s:db_vrfy.obj
 0003:00004df4       ??_C@_0L@MHGE@DB?9?$DOverify?$AA@ 004e2df4     libdb41s:db_vrfy.obj
 0003:00004e00       ??_C@_06JKGI@verify?$AA@   004e2e00     libdb41s:db_vrfy.obj
 0003:00004e08       ??_C@_0CF@EOKK@Metadata?5page?5?$CFlu?5cannot?5be?5read@ 004e2e08     libdb41s:db_vrfy.obj
 0003:00004e30       ??_C@_0BP@PBCB@Page?5?$CFlu?3?5bad?5magic?5number?5?$CFlu?$AA@ 004e2e30     libdb41s:db_vrfy.obj
 0003:00004e50       ??_C@_0BM@GFKP@Page?5?$CFlu?3?5bad?5page?5type?5?$CFlu?$AA@ 004e2e50     libdb41s:db_vrfy.obj
 0003:00004e6c       ??_C@_0BM@PCHN@Page?5?$CFlu?3?5bad?5page?5size?5?$CFlu?$AA@ 004e2e6c     libdb41s:db_vrfy.obj
 0003:00004e88       ??_C@_0ED@JJGK@Page?5?$CFlu?3?5unsupported?5DB?5version@ 004e2e88     libdb41s:db_vrfy.obj
 0003:00004ecc       ??_C@_0CG@PNMK@Page?5?$CFlu?3?5pgno?5incorrectly?5set?5t@ 004e2ecc     libdb41s:db_vrfy.obj
 0003:00004ef4       ??_C@_0CI@EGOL@Page?5?$CFlu?3?5could?5not?5check?5metada@ 004e2ef4     libdb41s:db_vrfy.obj
 0003:00004f1c       ??_C@_0DI@DDIJ@Page?5?$CFlu?3?5metadata?5page?5corrupte@ 004e2f1c     libdb41s:db_vrfy.obj
 0003:00004f54       ??_C@_0CD@NOJG@Page?5?$CFlu?3?5Incomplete?5metadata?5pa@ 004e2f54     libdb41s:db_vrfy.obj
 0003:00004f78       ??_C@_0CA@EKJP@Page?5?$CFlu?3?5unknown?5page?5type?5?$CFlu?$AA@ 004e2f78     libdb41s:db_vrfy.obj
 0003:00004f98       ??_C@_0CD@MMOA@Page?5?$CFlu?3?5old?9style?5duplicate?5pa@ 004e2f98     libdb41s:db_vrfy.obj
 0003:00004fbc       ??_C@_0BE@DCPJ@__db_vrfy_walkpages?$AA@ 004e2fbc     libdb41s:db_vrfy.obj
 0003:00004fd0       ??_C@_0BO@ICPH@Page?5?$CFlu?3?5totally?5zeroed?5page?$AA@ 004e2fd0     libdb41s:db_vrfy.obj
 0003:00004ff0       ??_C@_0BM@KAED@Page?5?$CFlu?3?5unreferenced?5page?$AA@ 004e2ff0     libdb41s:db_vrfy.obj
 0003:0000500c       ??_C@_0CL@MAJH@__db_vrfy_structure?5called?5with?5@ 004e300c     libdb41s:db_vrfy.obj
 0003:00005038       ??_C@_0BO@CMAM@Page?5?$CFlu?3?5bad?5page?5number?5?$CFlu?$AA@ 004e3038     libdb41s:db_vrfy.obj
 0003:00005058       ??_C@_0CA@DIEF@Page?5?$CFlu?3?5partially?5zeroed?5page?$AA@ 004e3058     libdb41s:db_vrfy.obj
 0003:00005078       ??_C@_0CA@OCOF@Page?5?$CFlu?3?5invalid?5next_pgno?5?$CFlu?$AA@ 004e3078     libdb41s:db_vrfy.obj
 0003:00005098       ??_C@_0DC@LHNH@Page?5?$CFlu?3?5nonzero?5level?5?$CFlu?5in?5n@ 004e3098     libdb41s:db_vrfy.obj
 0003:000050cc       ??_C@_0DC@LLAM@Page?5?$CFlu?3?5btree?5leaf?5page?5has?5in@ 004e30cc     libdb41s:db_vrfy.obj
 0003:00005100       ??_C@_0BO@MNFB@Page?5?$CFlu?3?5bad?5btree?5level?5?$CFlu?$AA@ 004e3100     libdb41s:db_vrfy.obj
 0003:00005120       ??_C@_0CA@BBAM@Page?5?$CFlu?3?5too?5many?5entries?3?5?$CFlu?$AA@ 004e3120     libdb41s:db_vrfy.obj
 0003:00005140       ??_C@_0CA@OELD@Page?5?$CFlu?3?5invalid?5prev_pgno?5?$CFlu?$AA@ 004e3140     libdb41s:db_vrfy.obj
 0003:00005160       ??_C@_0CJ@NGDE@Page?5?$CFlu?3?5nonsensical?5free?5list?5@ 004e3160     libdb41s:db_vrfy.obj
 0003:0000518c       ??_C@_0DK@KAMF@Page?5?$CFlu?3?5nonempty?5free?5list?5on?5@ 004e318c     libdb41s:db_vrfy.obj
 0003:000051c8       ??_C@_0BP@LK@Page?5?$CFlu?3?5invalid?5pagesize?5?$CFlu?$AA@ 004e31c8     libdb41s:db_vrfy.obj
 0003:000051e8       ??_C@_0EJ@DHKD@Page?5?$CFlu?3?5unsupported?5database?5v@ 004e31e8     libdb41s:db_vrfy.obj
 0003:00005234       ??_C@_0DE@FJBH@Page?5?$CFlu?3?5magic?5number?5does?5not?5@ 004e3234     libdb41s:db_vrfy.obj
 0003:00005268       ??_C@_0BP@NG@Page?5?$CFlu?3?5invalid?5magic?5number?$AA@ 004e3268     libdb41s:db_vrfy.obj
 0003:00005288       ??_C@_0DC@MGND@Page?5?$CFlu?3?5invalid?5next_pgno?5?$CFlu?5@ 004e3288     libdb41s:db_vrfy.obj
 0003:000052bc       ??_C@_0DK@JBIB@Page?5?$CFlu?3?5page?5?$CFlu?5encountered?5a@ 004e32bc     libdb41s:db_vrfy.obj
 0003:000052f8       ??_C@_0CM@HOFK@Page?5?$CFlu?3?5non?9invalid?5page?5?$CFlu?5o@ 004e32f8     libdb41s:db_vrfy.obj
 0003:00005324       ??_C@_0CO@BDNL@Subdatabase?5entry?5references?5inv@ 004e3324     libdb41s:db_vrfy.obj
 0003:00005354       ??_C@_0CH@EBGG@Subdatabase?5entry?5not?5page?9numbe@ 004e3354     libdb41s:db_vrfy.obj
 0003:0000537c       ??_C@_0DK@KCNE@Subdatabase?5entry?5references?5pag@ 004e337c     libdb41s:db_vrfy.obj
 0003:000053b8       ??_C@_0CP@NGNO@Page?5?$CFlu?3?5incorrect?5hash?5functio@ 004e33b8     libdb41s:db_vrfy.obj
 0003:000053e8       ??_C@_0M@EKNH@?$CF$sniglet?$FO?$CG?$AA@ 004e33e8     libdb41s:db_vrfy.obj
 0003:000053f4       ??_C@_0CH@NABD@Page?5?$CFlu?3?5DB?9?$DOh_internal?5field?5i@ 004e33f4     libdb41s:db_vrfy.obj
 0003:0000541c       ??_C@_0CM@IMLC@Page?5?$CFlu?3?5database?5metapage?5of?5b@ 004e341c     libdb41s:db_vrfy.obj
 0003:00005448       ??_C@_0CC@CGCB@Subdatabase?5entry?5of?5invalid?5siz@ 004e3448     libdb41s:db_vrfy.obj
 0003:0000546c       ??_C@_07CNPM@UNKNOWN?$AA@  004e346c     libdb41s:db_vrfy.obj
 0003:00005474       ??_C@_0CL@HFEB@Page?5?$CFlu?3?5bad?5offset?5?$CFlu?5at?5page@ 004e3474     libdb41s:db_vrfy.obj
 0003:000054a0       ??_C@_0CO@MIII@Page?5?$CFlu?3?5item?5?$CFlu?5extends?5past?5@ 004e34a0     libdb41s:db_vrfy.obj
 0003:000054d0       ??_C@_0CK@DOJM@Page?5?$CFlu?3?5item?5?$CFlu?5of?5unrecogniz@ 004e34d0     libdb41s:db_vrfy.obj
 0003:000054fc       ??_C@_0CM@KLEE@Page?5?$CFlu?3?5entries?5listing?5?$CFlu?5ov@ 004e34fc     libdb41s:db_vrfy.obj
 0003:00005528       ??_C@_0DD@EPGH@Page?5?$CFlu?3?5duplicate?5page?5of?5inap@ 004e3528     libdb41s:db_vrfy.obj
 0003:0000555c       ??_C@_0CK@HFCE@Page?5?$CFlu?3?5?$CFs?5is?5of?5inappropriate@ 004e355c     libdb41s:db_vrfy.obj
 0003:00005588       ??_C@_0P@DEPG@duplicate?5page?$AA@ 004e3588     libdb41s:db_vrfy.obj
 0003:00005598       ??_C@_0DI@IBMP@Page?5?$CFlu?3?5unsorted?5duplicate?5set@ 004e3598     libdb41s:db_vrfy.obj
 0003:000055d0       ??_C@_0DI@DALB@Page?5?$CFlu?3?5sorted?5duplicate?5set?5i@ 004e35d0     libdb41s:db_vrfy.obj
 0003:00005608       ??_C@_0CD@FEKH@?$CFs?3?5unsupported?5queue?5version?3?5?$CF@ 004e3608     libdb41s:db_upg.obj
 0003:0000562c       ??_C@_0CD@BCLK@?$CFs?3?5unsupported?5btree?5version?3?5?$CF@ 004e362c     libdb41s:db_upg.obj
 0003:00005650       ??_C@_0CC@GJBD@?$CFs?3?5unsupported?5hash?5version?3?5?$CFl@ 004e3650     libdb41s:db_upg.obj
 0003:00005674       ??_C@_0DM@FPGL@?$CFs?3?5DB?9?$DOupgrade?5only?5supported?5o@ 004e3674     libdb41s:db_upg.obj
 0003:000056b0       ??_C@_0BL@NNEL@?$CFs?3?5unrecognized?5file?5type?$AA@ 004e36b0     libdb41s:db_upg.obj
 0003:000056cc       ??_C@_0M@EHIO@DB?9?$DOupgrade?$AA@ 004e36cc     libdb41s:db_upg.obj
 0003:000056d8       ??_C@_0CN@IBH@?$CFs?3?5file?5size?5not?5a?5multiple?5of?5@ 004e36d8     libdb41s:db_upg.obj
 0003:00005708       ??_C@_0L@EBBO@DB?9?$DOcursor?$AA@ 004e3708     libdb41s:db_am.obj
 0003:00005714       ??_C@_0N@GJFM@__db_icursor?$AA@ 004e3714     libdb41s:db_am.obj
 0003:00005724       ??_C@_0CF@NCMC@DB?5does?5not?5have?5a?5valid?5file?5ha@ 004e3724     libdb41s:db_am.obj
 0003:0000574c       ??_C@_06NFG@DB?9?$DOfd?$AA@ 004e374c     libdb41s:db_am.obj
 0003:00005754       ??_C@_07MNLN@DB?9?$DOget?$AA@ 004e3754     libdb41s:db_am.obj
 0003:0000575c       ??_C@_08JMHC@__db_put?$AA@ 004e375c     libdb41s:db_am.obj
 0003:00005768       ??_C@_07DIBP@DB?9?$DOput?$AA@ 004e3768     libdb41s:db_am.obj
 0003:00005770       ??_C@_07MGEO@DB?9?$DOdel?$AA@ 004e3770     libdb41s:db_am.obj
 0003:00005778       ??_C@_08JLBA@DB?9?$DOsync?$AA@ 004e3778     libdb41s:db_am.obj
 0003:00005784       ??_C@_0EC@OOAE@Databases?5may?5not?5become?5seconda@ 004e3784     libdb41s:db_am.obj
 0003:000057c8       ??_C@_08NLHA@DB?9?$DOpget?$AA@ 004e37c8     libdb41s:db_am.obj
 0003:000057d4       ??_C@_04DCMN@?$CFs?$CFs?$AA@ 004e37d4     libdb41s:db_am.obj
 0003:000057dc       ??_C@_0DA@CEDJ@Append?5results?5in?5a?5non?9unique?5s@ 004e37dc     libdb41s:db_am.obj
 0003:0000580c       ??_C@_0CP@BEJJ@?5an?5index?5not?5configured?5to?5supp@ 004e380c     libdb41s:db_am.obj
 0003:0000583c       ??_C@_0O@EELC@__db_truncate?$AA@ 004e383c     libdb41s:db_truncate.obj
 0003:0000584c       ??_C@_0N@CFOK@DB?9?$DOtruncate?$AA@ 004e384c     libdb41s:db_truncate.obj
 0003:0000585c       ??_C@_0CO@CIHJ@Different?5pagesize?5specified?5on?5@ 004e385c     libdb41s:db.obj
 0003:0000588c       ??_C@_0BL@LEON@rename?3?5database?5?$CFs?5exists?$AA@ 004e388c     libdb41s:db.obj
 0003:000058a8       ??_C@_0CM@HMEC@Different?5lorder?5specified?5on?5ex@ 004e38a8     libdb41s:db.obj
 0003:000058d4       ??_C@_0BB@HKGO@__db_dbenv_setup?$AA@ 004e38d4     libdb41s:db.obj
 0003:000058e8       ??_C@_09JAKB@DB?9?$DOclose?$AA@ 004e38e8     libdb41s:db.obj
 0003:000058f4       ??_C@_0L@IAJH@?$CF?4?$CKs?$CFx?4?$CFx?4?$AA@ 004e38f4     libdb41s:db.obj
 0003:00005900       ??_C@_09NKOJ@?$CF?4?$CKs?$CFs?$CFs?4?$AA@ 004e3900     libdb41s:db.obj
 0003:0000590c       ??_C@_07HGFJ@?$CFs?$CFx?4?$CFx?$AA@ 004e390c     libdb41s:db.obj
 0003:00005914       ??_C@_05GPBI@?$CFs?$CFs?4?$AA@ 004e3914     libdb41s:db.obj
 0003:0000591c       ??_C@_05JPPG@__db?4?$AA@   004e391c     libdb41s:db.obj
 0003:00005924       ??_C@_0EH@CGGL@Closing?5a?5primary?5DB?5while?5a?5sec@ 004e3924     libdb41s:db.obj
 0003:0000596c       ??_C@_0EB@JFPK@files?5containing?5multiple?5databa@ 004e396c     libdb41s:db_open.obj
 0003:000059b0       ??_C@_0M@MKJN@__db_dbopen?$AA@ 004e39b0     libdb41s:db_open.obj
 0003:000059bc       ??_C@_0CI@IJGD@DBTYPE?5of?5unknown?5without?5existi@ 004e39bc     libdb41s:db_open.obj
 0003:000059e4       ??_C@_0BO@DICH@?$CFs?3?5Invalid?5type?5?$CFd?5specified?$AA@ 004e39e4     libdb41s:db_open.obj
 0003:00005a04       ??_C@_0CG@LEA@Invalid?5subdatabase?5type?5?$CFd?5spec@ 004e3a04     libdb41s:db_open.obj
 0003:00005a2c       ??_C@_0CD@KNDD@?$CFs?3?5unexpected?5file?5type?5or?5form@ 004e3a2c     libdb41s:db_open.obj
 0003:00005a50       ??_C@_0CB@PDNC@?$CFs?3?5metadata?5page?5checksum?5error@ 004e3a50     libdb41s:db_open.obj
 0003:00005a74       ??_C@_0BC@OABO@unknown?5type?3?5?$CFlu?$AA@ 004e3a74     libdb41s:db_open.obj
 0003:00005a88       ??_C@_0CF@CNNE@Queue?5databases?5must?5be?5one?9per?9@ 004e3a88     libdb41s:db_open.obj
 0003:00005ab0       ??_C@_0CM@KHLL@DB_TRUNCATE?5illegal?5with?5multipl@ 004e3ab0     libdb41s:db_open.obj
 0003:00005adc       ??_C@_0DI@PAMM@multiple?5databases?5cannot?5be?5cre@ 004e3adc     libdb41s:db_open.obj
 0003:00005b14       ??_C@_0CP@EKNH@DB_TRUNCATE?5illegal?5with?5transac@ 004e3b14     libdb41s:db_open.obj
 0003:00005b44       ??_C@_0CI@IPGM@environment?5not?5created?5using?5DB@ 004e3b44     libdb41s:db_open.obj
 0003:00005b6c       ??_C@_0CK@IHGO@environment?5did?5not?5include?5a?5me@ 004e3b6c     libdb41s:db_open.obj
 0003:00005b98       ??_C@_0BL@BOAI@environment?5not?5yet?5opened?$AA@ 004e3b98     libdb41s:db_open.obj
 0003:00005bb4       ??_C@_0DM@HEP@?$CFs?3?5DB_UNKNOWN?5type?5specified?5wi@ 004e3bb4     libdb41s:db_open.obj
 0003:00005bf0       ??_C@_08GJJC@DB?9?$DOopen?$AA@ 004e3bf0     libdb41s:db_open.obj
 0003:00005bfc       ??_C@_0CK@LLCK@Allocation?5failed?5for?5join?5key?0?5@ 004e3bfc     libdb41s:db_join.obj
 0003:00005c28       ??_C@_0DN@NBCG@unsupported?5byte?5order?0?5only?5big@ 004e3c28     libdb41s:db_byteorder.obj
 0003:00005c68       ??_C@_09FCLE@txn_begin?$AA@ 004e3c68     libdb41s:txn.obj
 0003:00005c74       ??_C@_0DB@MBP@Unable?5to?5allocate?5memory?5for?5tr@ 004e3c74     libdb41s:txn.obj
 0003:00005ca8       ??_C@_0EG@JMGF@recovery?5of?5prepared?5but?5not?5yet@ 004e3ca8     libdb41s:txn.obj
 0003:00005cf0       ??_C@_0CI@BEPD@operation?5not?5permitted?5during?5r@ 004e3cf0     libdb41s:txn.obj
 0003:00005d18       ??_C@_0P@PDBJ@DB_TXN?9?$DOcommit?$AA@ 004e3d18     libdb41s:txn.obj
 0003:00005d28       ??_C@_0CF@JLOJ@DB_TXN?9?$DOprepare?3?5log_write?5faile@ 004e3d28     libdb41s:txn.obj
 0003:00005d50       ??_C@_0BE@IICO@DB_TXN?9?$DOset_timeout?$AA@ 004e3d50     libdb41s:txn.obj
 0003:00005d64       ??_C@_0BL@KAEO@not?5a?5restored?5transaction?$AA@ 004e3d64     libdb41s:txn.obj
 0003:00005d80       ??_C@_0BN@LFJE@transaction?5already?5prepared?$AA@ 004e3d80     libdb41s:txn.obj
 0003:00005da0       ??_C@_0BH@JFFE@transaction?5already?5?$CFs?$AA@ 004e3da0     libdb41s:txn.obj
 0003:00005db8       ??_C@_07ODKM@aborted?$AA@  004e3db8     libdb41s:txn.obj
 0003:00005dc0       ??_C@_09FNBJ@committed?$AA@ 004e3dc0     libdb41s:txn.obj
 0003:00005dcc       ??_C@_0CJ@KHAM@Prepare?5disallowed?5on?5child?5tran@ 004e3dcc     libdb41s:txn.obj
 0003:00005df8       ??_C@_0BP@JKJO@transaction?5has?5active?5cursors?$AA@ 004e3df8     libdb41s:txn.obj
 0003:00005e18       ??_C@_0DE@NLHE@DB_TXN?9?$DOabort?3?5Log?5undo?5failed?5f@ 004e3e18     libdb41s:txn.obj
 0003:00005e4c       ??_C@_0CP@JFGG@txn_checkpoint?3?5log?5failed?5at?5LS@ 004e3e4c     libdb41s:txn.obj
 0003:00005e7c       ??_C@_0DE@EIJJ@txn_checkpoint?3?5failed?5to?5flush?5@ 004e3e7c     libdb41s:txn.obj
 0003:00005eb0       ??_C@_0P@OOCG@txn_checkpoint?$AA@ 004e3eb0     libdb41s:txn.obj
 0003:00005ec0       ??_C@_0BM@PPDC@Child?5transaction?5is?5active?$AA@ 004e3ec0     libdb41s:txn.obj
 0003:00005edc       ??_C@_0BB@PJHI@DB_ENV?9?$DOtxn_stat?$AA@ 004e3edc     libdb41s:txn_stat.obj
 0003:00005ef0       ??_C@_08NHBM@txn_stat?$AA@ 004e3ef0     libdb41s:txn_stat.obj
 0003:00005efc       ??_C@_0CK@OBHL@operation?5not?5permitted?5while?5in@ 004e3efc     libdb41s:txn_recover.obj
 0003:00005f28       ??_C@_0M@CDDL@txn_recover?$AA@ 004e3f28     libdb41s:txn_recover.obj
 0003:00005f34       ??_C@_0P@LMFA@No?5log?5records?$AA@ 004e3f34     libdb41s:txn_recover.obj
 0003:00005f44       ??_C@_0EA@FJDG@DB_ENV?9?$DOrep_process_message?3?5con@ 004e3f44     libdb41s:rep_record.obj
 0003:00005f84       ??_C@_0ED@HFKD@DB_ENV?9?$DOrep_process_message?3?5unk@ 004e3f84     libdb41s:rep_record.obj
 0003:00005fc8       ??_C@_0CO@GDLP@unexpected?5log?5record?5version?5?$CFd@ 004e3fc8     libdb41s:rep_record.obj
 0003:00005ff8       ??_C@_0DH@KHKM@unexpected?5replication?5message?5v@ 004e3ff8     libdb41s:rep_record.obj
 0003:00006030       ??_C@_08DFDL@db?4m?$CF08x?$AA@ 004e4030     libdb41s:mut_win32.obj
 0003:0000603c       ??_C@_0O@LIHP@__db_dispatch?$AA@ 004e403c     libdb41s:db_dispatch.obj
 0003:0000604c       ??_C@_0BP@MMKK@Illegal?5record?5type?5?$CFlu?5in?5log?$AA@ 004e404c     libdb41s:db_dispatch.obj
 0003:0000606c       ??_C@_0CG@LHPJ@Fatal?5error?5in?5abort?5of?5an?5alloc@ 004e406c     libdb41s:db_dispatch.obj
 0003:00006094       ??_C@_0BL@HPKE@Flushing?5free?5list?5to?5disk?$AA@ 004e4094     libdb41s:db_dispatch.obj
 0003:000060b0       ??_C@_0BB@PIAK@?7timestamp?3?5?$CFld?6?$AA@ 004e40b0     libdb41s:txn_auto.obj
 0003:000060c4       ??_C@_0O@MLNA@?7opcode?3?5?$CFlu?6?$AA@ 004e40c4     libdb41s:txn_auto.obj
 0003:000060d4       ??_C@_0DO@JLNL@?$FL?$CFlu?$FN?$FL?$CFlu?$FN__txn_regop?3?5rec?3?5?$CFlu?5@ 004e40d4     libdb41s:txn_auto.obj
 0003:00006114       ??_C@_0BH@EOIA@?7last_ckp?3?5?$FL?$CFlu?$FN?$FL?$CFlu?$FN?6?$AA@ 004e4114     libdb41s:txn_auto.obj
 0003:0000612c       ??_C@_0BG@FKKH@?7ckp_lsn?3?5?$FL?$CFlu?$FN?$FL?$CFlu?$FN?6?$AA@ 004e412c     libdb41s:txn_auto.obj
 0003:00006144       ??_C@_0DM@KFOC@?$FL?$CFlu?$FN?$FL?$CFlu?$FN__txn_ckp?3?5rec?3?5?$CFlu?5tx@ 004e4144     libdb41s:txn_auto.obj
 0003:00006180       ??_C@_0BE@NGAI@?7c_lsn?3?5?$FL?$CFlu?$FN?$FL?$CFlu?$FN?6?$AA@ 004e4180     libdb41s:txn_auto.obj
 0003:00006194       ??_C@_0P@JIGP@?7child?3?50x?$CFlx?6?$AA@ 004e4194     libdb41s:txn_auto.obj
 0003:000061a4       ??_C@_0DO@GDPJ@?$FL?$CFlu?$FN?$FL?$CFlu?$FN__txn_child?3?5rec?3?5?$CFlu?5@ 004e41a4     libdb41s:txn_auto.obj
 0003:000061e4       ??_C@_0BI@EAAJ@?7begin_lsn?3?5?$FL?$CFlu?$FN?$FL?$CFlu?$FN?6?$AA@ 004e41e4     libdb41s:txn_auto.obj
 0003:000061fc       ??_C@_0M@ODCJ@?7bqual?3?5?$CFu?6?$AA@ 004e41fc     libdb41s:txn_auto.obj
 0003:00006208       ??_C@_0M@LJOP@?7gtrid?3?5?$CFu?6?$AA@ 004e4208     libdb41s:txn_auto.obj
 0003:00006214       ??_C@_0BA@EGEJ@?7formatID?3?5?$CFld?6?$AA@ 004e4214     libdb41s:txn_auto.obj
 0003:00006224       ??_C@_02JBML@?$CFc?$AA@    004e4224     libdb41s:txn_auto.obj
 0003:00006228       ??_C@_04FMFM@?$CF?$CDx?5?$AA@ 004e4228     libdb41s:txn_auto.obj
 0003:00006230       ??_C@_06DNBK@?7xid?3?5?$AA@ 004e4230     libdb41s:txn_auto.obj
 0003:00006238       ??_C@_0EB@FLFJ@?$FL?$CFlu?$FN?$FL?$CFlu?$FN__txn_xa_regop?3?5rec?3?5?$CF@ 004e4238     libdb41s:txn_auto.obj
 0003:0000627c       ??_C@_09GIFF@?7max?3?5?$CFu?6?$AA@ 004e427c     libdb41s:txn_auto.obj
 0003:00006288       ??_C@_09DLDK@?7min?3?5?$CFu?6?$AA@ 004e4288     libdb41s:txn_auto.obj
 0003:00006294       ??_C@_0EA@PDBN@?$FL?$CFlu?$FN?$FL?$CFlu?$FN__txn_recycle?3?5rec?3?5?$CFl@ 004e4294     libdb41s:txn_auto.obj
 0003:000062d4       ??_C@_0DG@CBHH@txnid?5?$CFlx?5commit?5record?5found?0?5a@ 004e42d4     libdb41s:txn_rec.obj
 0003:0000630c       ??_C@_0BL@JIKP@Transaction?5not?5in?5list?5?$CFx?$AA@ 004e430c     libdb41s:txn_rec.obj
 0003:00006328       ??_C@_0N@LLGN@memp_trickle?$AA@ 004e4328     libdb41s:mp_trickle.obj
 0003:00006338       ??_C@_09EKML@memp_sync?$AA@ 004e4338     libdb41s:mp_sync.obj
 0003:00006344       ??_C@_0BO@IJPC@?$CFs?3?5unable?5to?5flush?5page?3?5?$CFlu?$AA@ 004e4344     libdb41s:mp_sync.obj
 0003:00006364       ??_C@_0BE@CPMK@?$CFs?3?5cannot?5sync?3?5?$CFs?$AA@ 004e4364     libdb41s:mp_sync.obj
 0003:00006378       ??_C@_05HGCM@trash?$AA@    004e4378     libdb41s:mp_stat.obj
 0003:00006380       ??_C@_06BFOJ@locked?$AA@   004e4380     libdb41s:mp_stat.obj
 0003:00006388       ??_C@_07KHMN@discard?$AA@  004e4388     libdb41s:mp_stat.obj
 0003:00006390       ??_C@_07JPDC@created?$AA@  004e4390     libdb41s:mp_stat.obj
 0003:00006398       ??_C@_05NBNN@dirty?$AA@    004e4398     libdb41s:mp_stat.obj
 0003:000063a0       ??_C@_08HGJL@callpgin?$AA@ 004e43a0     libdb41s:mp_stat.obj
 0003:000063ac       ??_C@_06CMJK@unlink?$AA@   004e43ac     libdb41s:mp_stat.obj
 0003:000063b4       ??_C@_09BID@temporary?$AA@ 004e43b4     libdb41s:mp_stat.obj
 0003:000063c0       ??_C@_06LLGB@extent?$AA@   004e43c0     libdb41s:mp_stat.obj
 0003:000063c8       ??_C@_09MLHN@no?5buffer?$AA@ 004e43c8     libdb41s:mp_stat.obj
 0003:000063d4       ??_C@_04ICJN@dead?$AA@     004e43d4     libdb41s:mp_stat.obj
 0003:000063dc       ??_C@_07KLDN@mmapped?$AA@  004e43dc     libdb41s:mp_stat.obj
 0003:000063e4       ??_C@_0BC@MII@DB_ENV?9?$DOmemp_stat?$AA@ 004e43e4     libdb41s:mp_stat.obj
 0003:000063f8       ??_C@_09OIKG@memp_stat?$AA@ 004e43f8     libdb41s:mp_stat.obj
 0003:00006404       ??_C@_0P@MFHE@?$CFs?6Cache?5?$CD?$CFd?3?6?$AA@ 004e4404     libdb41s:mp_stat.obj
 0003:00006414       ??_C@_0BP@KBPH@File?5?$CD?$CFd?3?5?$CFs?3?5per?9process?0?5?$CFs?6?$AA@ 004e4414     libdb41s:mp_stat.obj
 0003:00006434       ??_C@_0L@LCHL@read?1write?$AA@ 004e4434     libdb41s:mp_stat.obj
 0003:00006440       ??_C@_08JODI@readonly?$AA@ 004e4440     libdb41s:mp_stat.obj
 0003:0000644c       ??_C@_02JDLK@?$CFx?$AA@    004e444c     libdb41s:mp_stat.obj
 0003:00006450       ??_C@_08PHAJ@?6?7?5UID?3?5?$AA@ 004e4450     libdb41s:mp_stat.obj
 0003:0000645c       ??_C@_0CL@CDDH@?7?5type?5?$CFld?$DL?5ref?5?$CFlu?$DL?5blocks?5?$CFlu?$DL@ 004e445c     libdb41s:mp_stat.obj
 0003:00006488       ??_C@_0BM@GHHN@File?5?$CD?$CFd?3?5?$CFs?3?5pagesize?5?$CFlu?6?$AA@ 004e4488     libdb41s:mp_stat.obj
 0003:000064a4       ??_C@_0BN@FNOI@?$CFs?6Pool?5?$CIregion?5addr?50x?$CFlx?$CJ?6?$AA@ 004e44a4     libdb41s:mp_stat.obj
 0003:000064c4       ??_C@_0DC@MFOD@?$DN?9?$DN?9?$DN?9?$DN?9?$DN?9?$DN?9?$DN?9?$DN?9?$DN?9?$DN?9?$DN?9?$DN?9?$DN?9?$DN?9?$DN?9?$DN?9@ 004e44c4     libdb41s:mp_stat.obj
 0003:000064f8       ??_C@_0BB@FGFB@memp_dump_region?$AA@ 004e44f8     libdb41s:mp_stat.obj
 0003:0000650c       ??_C@_0L@DOKK@?$CFlu?5?$CI?$CFu?$CJ?3?6?$AA@ 004e450c     libdb41s:mp_stat.obj
 0003:00006518       ??_C@_0CM@DEAN@?7pageno?0?5file?0?5ref?0?5address?5?$FLLSN@ 004e4518     libdb41s:mp_stat.obj
 0003:00006544       ??_C@_0DG@LDCA@?$CFs?6BH?5hash?5table?5?$CI?$CFlu?5hash?5slots@ 004e4544     libdb41s:mp_stat.obj
 0003:0000657c       ??_C@_0CI@BFBD@?7?$CF5lu?0?5?5?5?$CD?$CFd?0?5?5?$CF2lu?0?5?$CF8lu?5?$FL?$CFlu?0?$CF@ 004e457c     libdb41s:mp_stat.obj
 0003:000065a4       ??_C@_0CF@PANC@?7?$CF5lu?0?5?$CFlu?0?5?$CF2lu?0?5?$CF8lu?5?$FL?$CFlu?0?$CFlu?$FN@ 004e45a4     libdb41s:mp_stat.obj
 0003:000065cc       ??_C@_0BG@DMNH@DB_ENV?9?$DOmemp_register?$AA@ 004e45cc     libdb41s:mp_register.obj
 0003:000065e4       ??_C@_0CL@FFJG@Unable?5to?5allocate?5memory?5for?5mp@ 004e45e4     libdb41s:mp_region.obj
 0003:00006610       ??_C@_0N@BHCH@memp_fcreate?$AA@ 004e4610     libdb41s:mp_fopen.obj
 0003:00006620       ??_C@_0O@BFAG@set_clear_len?$AA@ 004e4620     libdb41s:mp_fopen.obj
 0003:00006630       ??_C@_0L@DJOJ@set_fileid?$AA@ 004e4630     libdb41s:mp_fopen.obj
 0003:0000663c       ??_C@_09LJIB@set_ftype?$AA@ 004e463c     libdb41s:mp_fopen.obj
 0003:00006648       ??_C@_0P@KBBH@set_lsn_offset?$AA@ 004e4648     libdb41s:mp_fopen.obj
 0003:00006658       ??_C@_0N@KFII@set_pgcookie?$AA@ 004e4658     libdb41s:mp_fopen.obj
 0003:00006668       ??_C@_0BL@EPJH@Unknown?5priority?5value?3?5?$CFd?$AA@ 004e4668     libdb41s:mp_fopen.obj
 0003:00006684       ??_C@_0CM@ONJK@memp_fopen?3?5page?5sizes?5must?5be?5a@ 004e4684     libdb41s:mp_fopen.obj
 0003:000066b0       ??_C@_0CO@KHMA@memp_fopen?3?5temporary?5files?5can?8@ 004e46b0     libdb41s:mp_fopen.obj
 0003:000066e0       ??_C@_0CP@PBHL@memp_fopen?3?5clear?5length?5larger?5@ 004e46e0     libdb41s:mp_fopen.obj
 0003:00006710       ??_C@_0L@HCNP@memp_fopen?$AA@ 004e4710     libdb41s:mp_fopen.obj
 0003:0000671c       ??_C@_0DE@EMDE@?$CFs?3?5clear?5length?0?5page?5size?5or?5L@ 004e471c     libdb41s:mp_fopen.obj
 0003:00006750       ??_C@_0BE@ECLN@DB_MPOOLFILE?9?$DOclose?$AA@ 004e4750     libdb41s:mp_fopen.obj
 0003:00006764       ??_C@_0CC@PPJA@?$CFs?3?5close?3?5?$CFlu?5blocks?5left?5pinne@ 004e4764     libdb41s:mp_fopen.obj
 0003:00006788       ??_C@_0BA@BJEO@DB_ENV?9?$DOlock_id?$AA@ 004e4788     libdb41s:lock.obj
 0003:00006798       ??_C@_0BH@EGBP@Locker?5still?5has?5locks?$AA@ 004e4798     libdb41s:lock.obj
 0003:000067b0       ??_C@_0BF@OJHD@DB_ENV?9?$DOlock_id_free?$AA@ 004e47b0     libdb41s:lock.obj
 0003:000067c8       ??_C@_0BL@LII@Invalid?5lock?5operation?3?5?$CFd?$AA@ 004e47c8     libdb41s:lock.obj
 0003:000067e4       ??_C@_0BL@HGBJ@Parent?5locker?5is?5not?5valid?$AA@ 004e47e4     libdb41s:lock.obj
 0003:00006800       ??_C@_0BI@DEHK@Not?5a?5child?5transaction?$AA@ 004e4800     libdb41s:lock.obj
 0003:00006818       ??_C@_0BB@OFJE@DB_ENV?9?$DOlock_vec?$AA@ 004e4818     libdb41s:lock.obj
 0003:0000682c       ??_C@_0BB@GKHN@DB_ENV?9?$DOlock_get?$AA@ 004e482c     libdb41s:lock.obj
 0003:00006840       ??_C@_0BG@DPHE@Locker?5does?5not?5exist?$AA@ 004e4840     libdb41s:lock.obj
 0003:00006858       ??_C@_05MDFJ@locks?$AA@    004e4858     libdb41s:lock.obj
 0003:00006860       ??_C@_0CI@DBHB@DB_ENV?9?$DOlock_get?3?5invalid?5lock?5m@ 004e4860     libdb41s:lock.obj
 0003:00006888       ??_C@_0BC@LBPG@DB_LOCK?9?$DOlock_put?$AA@ 004e4888     libdb41s:lock.obj
 0003:0000689c       ??_C@_0P@BGAO@lock_downgrade?$AA@ 004e489c     libdb41s:lock.obj
 0003:000068ac       ??_C@_0BK@FFCP@Freeing?5locker?5with?5locks?$AA@ 004e48ac     libdb41s:lock.obj
 0003:000068c8       ??_C@_0P@OOIJ@locker?5entries?$AA@ 004e48c8     libdb41s:lock.obj
 0003:000068d8       ??_C@_0CB@MDEC@No?5space?5for?5lock?5object?5storage@ 004e48d8     libdb41s:lock.obj
 0003:000068fc       ??_C@_0P@BFBC@object?5entries?$AA@ 004e48fc     libdb41s:lock.obj
 0003:0000690c       ??_C@_0BC@MFNK@DB_ENV?9?$DOlock_stat?$AA@ 004e490c     libdb41s:lock_stat.obj
 0003:00006920       ??_C@_0BM@LKCJ@?$CFs?6Locks?5grouped?5by?5object?6?$AA@ 004e4920     libdb41s:lock_stat.obj
 0003:0000693c       ??_C@_0BN@GPFO@?$CFs?6Locks?5grouped?5by?5lockers?6?$AA@ 004e493c     libdb41s:lock_stat.obj
 0003:0000695c       ??_C@_04KCLJ@?$CFlu?7?$AA@ 004e495c     libdb41s:lock_stat.obj
 0003:00006964       ??_C@_0BF@GBHJ@?6?$CFs?6Conflict?5matrix?6?$AA@ 004e4964     libdb41s:lock_stat.obj
 0003:0000697c       ??_C@_0DP@MANA@?$CFs?3?5?$CFlu?0?5?$CFs?3?5?$CFlu?0?5?$CFs?3?5?$CFlu?0?6?$CFs?3?5?$CF@ 004e497c     libdb41s:lock_stat.obj
 0003:000069bc       ??_C@_0BC@LNLN@locker?5table?5size?$AA@ 004e49bc     libdb41s:lock_stat.obj
 0003:000069d0       ??_C@_0BC@JGNP@object?5table?5size?$AA@ 004e49d0     libdb41s:lock_stat.obj
 0003:000069e4       ??_C@_07EJDB@obj_off?$AA@  004e49e4     libdb41s:lock_stat.obj
 0003:000069ec       ??_C@_0L@FHFI@osynch_off?$AA@ 004e49ec     libdb41s:lock_stat.obj
 0003:000069f8       ??_C@_0L@BAL@locker_off?$AA@ 004e49f8     libdb41s:lock_stat.obj
 0003:00006a04       ??_C@_0L@MHBO@lsynch_off?$AA@ 004e4a04     libdb41s:lock_stat.obj
 0003:00006a10       ??_C@_07EPNF@need_dd?$AA@  004e4a10     libdb41s:lock_stat.obj
 0003:00006a18       ??_C@_0BL@NLKM@?$CFs?6Lock?5region?5parameters?6?$AA@ 004e4a18     libdb41s:lock_stat.obj
 0003:00006a34       ??_C@_0BB@EKLK@lock_dump_region?$AA@ 004e4a34     libdb41s:lock_stat.obj
 0003:00006a48       ??_C@_0BD@JOMH@?5lk?5expires?5?$CFs?4?$CFlu?$AA@ 004e4a48     libdb41s:lock_stat.obj
 0003:00006a5c       ??_C@_0P@PEOP@?5lk?5timeout?5?$CFu?$AA@ 004e4a5c     libdb41s:lock_stat.obj
 0003:00006a6c       ??_C@_0BA@PJCM@?5expires?5?$CFs?4?$CFlu?$AA@ 004e4a6c     libdb41s:lock_stat.obj
 0003:00006a7c       ??_C@_0P@HPBF@?$CFm?9?$CFd?9?$CFH?3?$CFM?3?$CFS?$AA@ 004e4a7c     libdb41s:lock_stat.obj
 0003:00006a8c       ??_C@_04IOJK@?5?$CFs?5?$AA@ 004e4a8c     libdb41s:lock_stat.obj
 0003:00006a94       ??_C@_03MFGH@?5?5?5?$AA@   004e4a94     libdb41s:lock_stat.obj
 0003:00006a98       ??_C@_03IOKA@?$CID?$CJ?$AA@ 004e4a98     libdb41s:lock_stat.obj
 0003:00006a9c       ??_C@_0CO@BLMH@?$CF8lx?5dd?$DN?$CF2ld?5locks?5held?5?$CF?94d?5wri@ 004e4a9c     libdb41s:lock_stat.obj
 0003:00006acc       ??_C@_0BN@KFJC@?$CF?98s?5?5?$CF?96s?5?5?$CF?96s?5?5?$CF?910s?5?5?$CFs?6?$AA@ 004e4acc     libdb41s:lock_stat.obj
 0003:00006aec       ??_C@_06PHOP@Locker?$AA@   004e4aec     libdb41s:lock_stat.obj
 0003:00006af4       ??_C@_04PFBC@Mode?$AA@     004e4af4     libdb41s:lock_stat.obj
 0003:00006afc       ??_C@_05HCNL@Count?$AA@    004e4afc     libdb41s:lock_stat.obj
 0003:00006b04       ??_C@_06IOLI@Status?$AA@   004e4b04     libdb41s:lock_stat.obj
 0003:00006b0c       ??_C@_0BO@COGJ@?9?9?9?9?9?9?9?9?9?9?9?5Object?5?9?9?9?9?9?9?9?9?9?9?$AA@ 004e4b0c     libdb41s:lock_stat.obj
 0003:00006b2c       ??_C@_06BHKF@0x?$CFlx?5?$AA@ 004e4b2c     libdb41s:lock_stat.obj
 0003:00006b34       ??_C@_0L@KHMK@?$CF?97s?5?5?$CFlu?6?$AA@ 004e4b34     libdb41s:lock_stat.obj
 0003:00006b40       ??_C@_06DPKL@handle?$AA@   004e4b40     libdb41s:lock_stat.obj
 0003:00006b48       ??_C@_06JNOM@record?$AA@   004e4b48     libdb41s:lock_stat.obj
 0003:00006b50       ??_C@_04NHMG@page?$AA@     004e4b50     libdb41s:lock_stat.obj
 0003:00006b58       ??_C@_05MNFC@?$CF?920s?$AA@ 004e4b58     libdb41s:lock_stat.obj
 0003:00006b60       ??_C@_0BG@FCOH@?$CI?$CFlx?5?$CFlx?5?$CFlx?5?$CFlx?5?$CFlx?$CJ?$AA@ 004e4b60     libdb41s:lock_stat.obj
 0003:00006b78       ??_C@_0BK@JCCB@?$CF8lx?5?5?$CF?96s?5?5?$CF6lu?5?5?$CF?910s?5?5?$AA@ 004e4b78     libdb41s:lock_stat.obj
 0003:00006b94       ??_C@_07BHDD@EXPIRED?$AA@  004e4b94     libdb41s:lock_stat.obj
 0003:00006b9c       ??_C@_07DBFF@PENDING?$AA@  004e4b9c     libdb41s:lock_stat.obj
 0003:00006ba4       ??_C@_04KLDE@HELD?$AA@     004e4ba4     libdb41s:lock_stat.obj
 0003:00006bac       ??_C@_04MICK@FREE?$AA@     004e4bac     libdb41s:lock_stat.obj
 0003:00006bb4       ??_C@_05EFDD@ERROR?$AA@    004e4bb4     libdb41s:lock_stat.obj
 0003:00006bbc       ??_C@_05FHJL@ABORT?$AA@    004e4bbc     libdb41s:lock_stat.obj
 0003:00006bc4       ??_C@_04IDBB@WAIT?$AA@     004e4bc4     libdb41s:lock_stat.obj
 0003:00006bcc       ??_C@_09KKED@WAS_WRITE?$AA@ 004e4bcc     libdb41s:lock_stat.obj
 0003:00006bd8       ??_C@_05FIFP@WRITE?$AA@    004e4bd8     libdb41s:lock_stat.obj
 0003:00006be0       ??_C@_04GHHF@READ?$AA@     004e4be0     libdb41s:lock_stat.obj
 0003:00006be8       ??_C@_02JICL@NG?$AA@       004e4be8     libdb41s:lock_stat.obj
 0003:00006bec       ??_C@_06IPH@IWRITE?$AA@    004e4bec     libdb41s:lock_stat.obj
 0003:00006bf4       ??_C@_03LPMO@IWR?$AA@      004e4bf4     libdb41s:lock_stat.obj
 0003:00006bf8       ??_C@_05MPCO@IREAD?$AA@    004e4bf8     libdb41s:lock_stat.obj
 0003:00006c00       ??_C@_0L@GFOC@DIRTY_READ?$AA@ 004e4c00     libdb41s:lock_stat.obj
 0003:00006c0c       ??_C@_0DP@OPDL@DB_ENV?9?$DOlock_detect?3?5unknown?5dea@ 004e4c0c     libdb41s:lock_deadlock.obj
 0003:00006c4c       ??_C@_0BE@NJNL@Aborting?5locker?5?$CFlx?$AA@ 004e4c4c     libdb41s:lock_deadlock.obj
 0003:00006c60       ??_C@_0CE@PPEF@warning?3?5unable?5to?5abort?5locker?5@ 004e4c60     libdb41s:lock_deadlock.obj
 0003:00006c84       ??_C@_0BE@DAMO@DB_ENV?9?$DOlock_detect?$AA@ 004e4c84     libdb41s:lock_deadlock.obj
 0003:00006c98       ??_C@_0BI@POKI@No?5locks?5for?5locker?5?$CFlu?$AA@ 004e4c98     libdb41s:lock_deadlock.obj
 0003:00006cb0       ??_C@_0M@FLBE@?$CFlu?5lockers?$AA@ 004e4cb0     libdb41s:lock_deadlock.obj
 0003:00006cbc       ??_C@_0CN@EOH@Unable?5to?5allocate?5memory?5for?5th@ 004e4cbc     libdb41s:log.obj
 0003:00006cec       ??_C@_0DB@KAKH@Finding?5last?5valid?5log?5LSN?3?5file@ 004e4cec     libdb41s:log.obj
 0003:00006d20       ??_C@_0BJ@NHFE@Invalid?5log?5file?3?5?$CFs?3?5?$CFs?$AA@ 004e4d20     libdb41s:log.obj
 0003:00006d3c       ??_C@_04EPDM@log?4?$AA@    004e4d3c     libdb41s:log.obj
 0003:00006d44       ??_C@_0BK@OHFK@Ignoring?5log?5file?3?5?$CFs?3?5?$CFs?$AA@ 004e4d44     libdb41s:log.obj
 0003:00006d60       ??_C@_0DD@LNGP@Ignoring?5log?5file?3?5?$CFs?3?5unsupport@ 004e4d60     libdb41s:log.obj
 0003:00006d94       ??_C@_0DB@LGNC@Ignoring?5log?5file?3?5?$CFs?3?5magic?5num@ 004e4d94     libdb41s:log.obj
 0003:00006dc8       ??_C@_0BN@GNAE@log?5record?5checksum?5mismatch?$AA@ 004e4dc8     libdb41s:log.obj
 0003:00006de8       ??_C@_0BJ@IFHF@log?5record?5size?5mismatch?$AA@ 004e4de8     libdb41s:log.obj
 0003:00006e04       ??_C@_0BB@CCPG@DB_ENV?9?$DOlog_stat?$AA@ 004e4e04     libdb41s:log.obj
 0003:00006e18       ??_C@_0DC@MBDK@DB_ENV?9?$DOlog_put?5is?5illegal?5on?5re@ 004e4e18     libdb41s:log_put.obj
 0003:00006e4c       ??_C@_0BA@LDNG@DB_ENV?9?$DOlog_put?$AA@ 004e4e4c     libdb41s:log_put.obj
 0003:00006e5c       ??_C@_0DG@CDMJ@DB_ENV?9?$DOlog_put?3?5record?5larger?5t@ 004e4e5c     libdb41s:log_put.obj
 0003:00006e94       ??_C@_0BP@JMFB@Short?5read?5while?5restoring?5log?$AA@ 004e4e94     libdb41s:log_put.obj
 0003:00006eb4       ??_C@_0BC@KHIL@DB_ENV?9?$DOlog_flush?$AA@ 004e4eb4     libdb41s:log_put.obj
 0003:00006ec8       ??_C@_0CP@HMCH@DB_ENV?9?$DOlog_flush?3?5LSN?5past?5curr@ 004e4ec8     libdb41s:log_put.obj
 0003:00006ef8       ??_C@_0CL@PAGF@DB_ENV?9?$DOlog_file?3?5name?5buffer?5is@ 004e4ef8     libdb41s:log_put.obj
 0003:00006f24       ??_C@_0BB@JGON@DB_ENV?9?$DOlog_file?$AA@ 004e4f24     libdb41s:log_put.obj
 0003:00006f38       ??_C@_0BI@PJAI@DB_ENV?9?$DOlog_put?3?5?$CFs?3?5?$CFs?$AA@ 004e4f38     libdb41s:log_put.obj
 0003:00006f50       ??_C@_08IDHC@log?4?$CF05d?$AA@ 004e4f50     libdb41s:log_put.obj
 0003:00006f5c       ??_C@_0BN@ONAL@?$CFs?3?5log?5file?5open?5failed?3?5?$CFs?$AA@ 004e4f5c     libdb41s:log_put.obj
 0003:00006f7c       ??_C@_09KFAD@log?4?$CF010d?$AA@ 004e4f7c     libdb41s:log_put.obj
 0003:00006f88       ??_C@_0BD@FOEI@DB_ENV?9?$DOlog_cursor?$AA@ 004e4f88     libdb41s:log_get.obj
 0003:00006f9c       ??_C@_0P@EEFM@DB_LOGC?9?$DOclose?$AA@ 004e4f9c     libdb41s:log_get.obj
 0003:00006fac       ??_C@_0N@HGNM@DB_LOGC?9?$DOget?$AA@ 004e4fac     libdb41s:log_get.obj
 0003:00006fbc       ??_C@_0BK@KLNO@DB_LOGC?9?$DOget?3?5invalid?5LSN?$AA@ 004e4fbc     libdb41s:log_get.obj
 0003:00006fd8       ??_C@_0DL@OIOE@Encountered?5zero?5length?5records?5@ 004e4fd8     libdb41s:log_get.obj
 0003:00007014       ??_C@_0DE@LLAJ@DB_LOGC?9?$DOget?3?5catastrophic?5recov@ 004e5014     libdb41s:log_get.obj
 0003:00007048       ??_C@_0CL@GIDC@DB_LOGC?9?$DOget?3?5log?5record?5checksu@ 004e5048     libdb41s:log_get.obj
 0003:00007074       ??_C@_0CI@JOGJ@DB_LOGC?9?$DOget?3?5invalid?5log?5record@ 004e5074     libdb41s:log_get.obj
 0003:0000709c       ??_C@_0BB@FCFH@DB_LOGC?9?$DOget?3?5?$CFs?$AA@ 004e509c     libdb41s:log_get.obj
 0003:000070b0       ??_C@_0BH@JAMB@DB_LOGC?9?$DOget?3?5read?3?5?$CFs?$AA@ 004e50b0     libdb41s:log_get.obj
 0003:000070c8       ??_C@_0BH@OPLP@DB_LOGC?9?$DOget?3?5seek?3?5?$CFs?$AA@ 004e50c8     libdb41s:log_get.obj
 0003:000070e0       ??_C@_0BF@JMGG@DB_LOGC?9?$DOget?3?5?$CFs?3?5?$CFs?$AA@ 004e50e0     libdb41s:log_get.obj
 0003:000070f8       ??_C@_0BJ@BNMM@DB_LOGC?9?$DOget?3?5short?5read?$AA@ 004e50f8     libdb41s:log_get.obj
 0003:00007114       ??_C@_0BE@MGBE@DB_ENV?9?$DOlog_archive?$AA@ 004e5114     libdb41s:log_archive.obj
 0003:00007128       ??_C@_0CP@JOBK@DB_ENV?9?$DOlog_archive?3?5unable?5to?5r@ 004e5128     libdb41s:log_archive.obj
 0003:00007158       ??_C@_0CE@DPGL@DB_ENV?9?$DOlog_archive?3?5bad?5log?5rec@ 004e5158     libdb41s:log_archive.obj
 0003:0000717c       ??_C@_0CE@IJDN@Unable?5to?5allocate?5memory?5for?5mu@ 004e517c     libdb41s:mutex.obj
 0003:000071a0       ??_C@_0DE@CCOK@Recovery?5function?5for?5LSN?5?$CFlu?5?$CFl@ 004e51a0     libdb41s:env_recover.obj
 0003:000071d4       ??_C@_0BF@PBBJ@?$CFs?5?$CFlx?5?$CFs?5?$FL?$CFlu?$FN?$FL?$CFlu?$FN?$AA@ 004e51d4     libdb41s:env_recover.obj
 0003:000071ec       ??_C@_0BH@LCNG@Maximum?5transaction?5ID?$AA@ 004e51ec     libdb41s:env_recover.obj
 0003:00007204       ??_C@_0BE@FFDI@Recovery?5checkpoint?$AA@ 004e5204     libdb41s:env_recover.obj
 0003:00007218       ??_C@_0BL@CFCJ@Recovery?5complete?5at?5?$CF?424s?$AA@ 004e5218     libdb41s:env_recover.obj
 0003:00007234       ??_C@_0BL@NJDE@First?5log?5record?5not?5found?$AA@ 004e5234     libdb41s:env_recover.obj
 0003:00007250       ??_C@_07OHGK@forward?$AA@  004e5250     libdb41s:env_recover.obj
 0003:00007258       ??_C@_08OIHD@backward?$AA@ 004e5258     libdb41s:env_recover.obj
 0003:00007264       ??_C@_0CC@MLJN@Recovery?5starting?5from?5?$FL?$CFlu?$FN?$FL?$CFlu@ 004e5264     libdb41s:env_recover.obj
 0003:00007288       ??_C@_0CL@NCFC@Checkpoint?5LSN?5record?5?$FL?$CFld?$FN?$FL?$CFld?$FN@ 004e5288     libdb41s:env_recover.obj
 0003:000072b4       ??_C@_0CI@IPIA@Invalid?5checkpoint?5record?5at?5?$FL?$CFl@ 004e52b4     libdb41s:env_recover.obj
 0003:000072dc       ??_C@_0BK@GOML@Last?5log?5record?5not?5found?$AA@ 004e52dc     libdb41s:env_recover.obj
 0003:000072f8       ??_C@_0DD@INBM@Invalid?5recovery?5timestamp?5?$CFs?$DL?5e@ 004e52f8     libdb41s:env_recover.obj
 0003:0000732c       ??_C@_0CJ@FKIA@Recovery?5function?5for?5LSN?5?$CFlu?5?$CFl@ 004e532c     libdb41s:env_recover.obj
 0003:00007358       ??_C@_0BB@BAHK@?7meta_pgno?3?5?$CFlu?6?$AA@ 004e5358     libdb41s:qam_auto.obj
 0003:0000736c       ??_C@_0N@KMAD@?7recno?3?5?$CFlu?6?$AA@ 004e536c     libdb41s:qam_auto.obj
 0003:0000737c       ??_C@_0O@ODJJ@?7fileid?3?5?$CFld?6?$AA@ 004e537c     libdb41s:qam_auto.obj
 0003:0000738c       ??_C@_0EB@OEL@?$FL?$CFlu?$FN?$FL?$CFlu?$FN__qam_incfirst?3?5rec?3?5?$CF@ 004e538c     libdb41s:qam_auto.obj
 0003:000073d0       ??_C@_0BG@DBLO@?7metalsn?3?5?$FL?$CFlu?$FN?$FL?$CFlu?$FN?6?$AA@ 004e53d0     libdb41s:qam_auto.obj
 0003:000073e8       ??_C@_0P@DMIA@?7new_cur?3?5?$CFlu?6?$AA@ 004e53e8     libdb41s:qam_auto.obj
 0003:000073f8       ??_C@_0P@PIDP@?7old_cur?3?5?$CFlu?6?$AA@ 004e53f8     libdb41s:qam_auto.obj
 0003:00007408       ??_C@_0BB@CEFF@?7new_first?3?5?$CFlu?6?$AA@ 004e5408     libdb41s:qam_auto.obj
 0003:0000741c       ??_C@_0BB@KBEH@?7old_first?3?5?$CFlu?6?$AA@ 004e541c     libdb41s:qam_auto.obj
 0003:00007430       ??_C@_0DO@FMLD@?$FL?$CFlu?$FN?$FL?$CFlu?$FN__qam_mvptr?3?5rec?3?5?$CFlu?5@ 004e5430     libdb41s:qam_auto.obj
 0003:00007470       ??_C@_0M@PGAO@?7indx?3?5?$CFlu?6?$AA@ 004e5470     libdb41s:qam_auto.obj
 0003:0000747c       ??_C@_0M@NKGI@?7pgno?3?5?$CFlu?6?$AA@ 004e547c     libdb41s:qam_auto.obj
 0003:00007488       ??_C@_0BC@FHIK@?7lsn?3?5?$FL?$CFlu?$FN?$FL?$CFlu?$FN?6?$AA@ 004e5488     libdb41s:qam_auto.obj
 0003:0000749c       ??_C@_0DM@CHCE@?$FL?$CFlu?$FN?$FL?$CFlu?$FN__qam_del?3?5rec?3?5?$CFlu?5tx@ 004e549c     libdb41s:qam_auto.obj
 0003:000074d8       ??_C@_0L@CMNP@?7olddata?3?5?$AA@ 004e54d8     libdb41s:qam_auto.obj
 0003:000074e4       ??_C@_0N@GND@?7vflag?3?5?$CFlu?6?$AA@ 004e54e4     libdb41s:qam_auto.obj
 0003:000074f4       ??_C@_07KDLD@?7data?3?5?$AA@ 004e54f4     libdb41s:qam_auto.obj
 0003:000074fc       ??_C@_0DM@EPFH@?$FL?$CFlu?$FN?$FL?$CFlu?$FN__qam_add?3?5rec?3?5?$CFlu?5tx@ 004e54fc     libdb41s:qam_auto.obj
 0003:00007538       ??_C@_0DP@KJJP@?$FL?$CFlu?$FN?$FL?$CFlu?$FN__qam_delext?3?5rec?3?5?$CFlu@ 004e5538     libdb41s:qam_auto.obj
 0003:00007578       ??_C@_06MLGL@?7key?3?5?$AA@ 004e5578     libdb41s:hash_auto.obj
 0003:00007580       ??_C@_0BG@BECH@?7pagelsn?3?5?$FL?$CFlu?$FN?$FL?$CFlu?$FN?6?$AA@ 004e5580     libdb41s:hash_auto.obj
 0003:00007598       ??_C@_0L@EACE@?7ndx?3?5?$CFlu?6?$AA@ 004e5598     libdb41s:hash_auto.obj
 0003:000075a4       ??_C@_0DP@IDEA@?$FL?$CFlu?$FN?$FL?$CFlu?$FN__ham_insdel?3?5rec?3?5?$CFlu@ 004e55a4     libdb41s:hash_auto.obj
 0003:000075e4       ??_C@_0BG@GLHH@?7nextlsn?3?5?$FL?$CFlu?$FN?$FL?$CFlu?$FN?6?$AA@ 004e55e4     libdb41s:hash_auto.obj
 0003:000075fc       ??_C@_0BB@JNKK@?7next_pgno?3?5?$CFlu?6?$AA@ 004e55fc     libdb41s:hash_auto.obj
 0003:00007610       ??_C@_0BA@NOCO@?7new_pgno?3?5?$CFlu?6?$AA@ 004e5610     libdb41s:hash_auto.obj
 0003:00007620       ??_C@_0BG@ICNA@?7prevlsn?3?5?$FL?$CFlu?$FN?$FL?$CFlu?$FN?6?$AA@ 004e5620     libdb41s:hash_auto.obj
 0003:00007638       ??_C@_0BB@BLHC@?7prev_pgno?3?5?$CFlu?6?$AA@ 004e5638     libdb41s:hash_auto.obj
 0003:0000764c       ??_C@_0EA@CBNP@?$FL?$CFlu?$FN?$FL?$CFlu?$FN__ham_newpage?3?5rec?3?5?$CFl@ 004e564c     libdb41s:hash_auto.obj
 0003:0000768c       ??_C@_0N@LDAF@?7pageimage?3?5?$AA@ 004e568c     libdb41s:hash_auto.obj
 0003:0000769c       ??_C@_0EC@PEDJ@?$FL?$CFlu?$FN?$FL?$CFlu?$FN__ham_splitdata?3?5rec?3?5@ 004e569c     libdb41s:hash_auto.obj
 0003:000076e0       ??_C@_0P@FJAJ@?7makedup?3?5?$CFlu?6?$AA@ 004e56e0     libdb41s:hash_auto.obj
 0003:000076f0       ??_C@_0L@JJHB@?7newitem?3?5?$AA@ 004e56f0     libdb41s:hash_auto.obj
 0003:000076fc       ??_C@_0L@MIIH@?7olditem?3?5?$AA@ 004e56fc     libdb41s:hash_auto.obj
 0003:00007708       ??_C@_0L@BELI@?7off?3?5?$CFld?6?$AA@ 004e5708     libdb41s:hash_auto.obj
 0003:00007714       ??_C@_0EA@JGBO@?$FL?$CFlu?$FN?$FL?$CFlu?$FN__ham_replace?3?5rec?3?5?$CFl@ 004e5714     libdb41s:hash_auto.obj
 0003:00007754       ??_C@_07NNLM@?7page?3?5?$AA@ 004e5754     libdb41s:hash_auto.obj
 0003:0000775c       ??_C@_0BH@IMCO@?7nnextlsn?3?5?$FL?$CFlu?$FN?$FL?$CFlu?$FN?6?$AA@ 004e575c     libdb41s:hash_auto.obj
 0003:00007774       ??_C@_0BC@GFDE@?7nnext_pgno?3?5?$CFlu?6?$AA@ 004e5774     libdb41s:hash_auto.obj
 0003:00007788       ??_C@_0EB@GEDP@?$FL?$CFlu?$FN?$FL?$CFlu?$FN__ham_copypage?3?5rec?3?5?$CF@ 004e5788     libdb41s:hash_auto.obj
 0003:000077cc       ??_C@_0BA@GDAH@?7newalloc?3?5?$CFlu?6?$AA@ 004e57cc     libdb41s:hash_auto.obj
 0003:000077dc       ??_C@_0N@IAOB@?7mpgno?3?5?$CFlu?6?$AA@ 004e57dc     libdb41s:hash_auto.obj
 0003:000077ec       ??_C@_0BH@GGCD@?7mmetalsn?3?5?$FL?$CFlu?$FN?$FL?$CFlu?$FN?6?$AA@ 004e57ec     libdb41s:hash_auto.obj
 0003:00007804       ??_C@_0O@CKLL@?7mmpgno?3?5?$CFlu?6?$AA@ 004e5804     libdb41s:hash_auto.obj
 0003:00007814       ??_C@_0O@LILF@?7bucket?3?5?$CFlu?6?$AA@ 004e5814     libdb41s:hash_auto.obj
 0003:00007824       ??_C@_0EC@MAFO@?$FL?$CFlu?$FN?$FL?$CFlu?$FN__ham_metagroup?3?5rec?3?5@ 004e5824     libdb41s:hash_auto.obj
 0003:00007868       ??_C@_0M@FJKK@?7free?3?5?$CFlu?6?$AA@ 004e5868     libdb41s:hash_auto.obj
 0003:00007874       ??_C@_0L@PHHK@?7num?3?5?$CFlu?6?$AA@ 004e5874     libdb41s:hash_auto.obj
 0003:00007880       ??_C@_0BC@MDHF@?7start_pgno?3?5?$CFlu?6?$AA@ 004e5880     libdb41s:hash_auto.obj
 0003:00007894       ??_C@_0BH@CEBB@?7meta_lsn?3?5?$FL?$CFlu?$FN?$FL?$CFlu?$FN?6?$AA@ 004e5894     libdb41s:hash_auto.obj
 0003:000078ac       ??_C@_0ED@HNHN@?$FL?$CFlu?$FN?$FL?$CFlu?$FN__ham_groupalloc?3?5rec?3@ 004e58ac     libdb41s:hash_auto.obj
 0003:000078f0       ??_C@_0N@JMJB@?7order?3?5?$CFlu?6?$AA@ 004e58f0     libdb41s:hash_auto.obj
 0003:00007900       ??_C@_0O@ECIN@?7is_dup?3?5?$CFld?6?$AA@ 004e5900     libdb41s:hash_auto.obj
 0003:00007910       ??_C@_0L@EGDP@?7add?3?5?$CFld?6?$AA@ 004e5910     libdb41s:hash_auto.obj
 0003:0000791c       ??_C@_0P@EMME@?7dup_off?3?5?$CFlu?6?$AA@ 004e591c     libdb41s:hash_auto.obj
 0003:0000792c       ??_C@_0L@ICLN@?7len?3?5?$CFlu?6?$AA@ 004e592c     libdb41s:hash_auto.obj
 0003:00007938       ??_C@_0DP@ECBF@?$FL?$CFlu?$FN?$FL?$CFlu?$FN__ham_curadj?3?5rec?3?5?$CFlu@ 004e5938     libdb41s:hash_auto.obj
 0003:00007978       ??_C@_0BA@PCEI@?7new_indx?3?5?$CFlu?6?$AA@ 004e5978     libdb41s:hash_auto.obj
 0003:00007988       ??_C@_0BA@OAIM@?7old_indx?3?5?$CFlu?6?$AA@ 004e5988     libdb41s:hash_auto.obj
 0003:00007998       ??_C@_0BA@MMOK@?7old_pgno?3?5?$CFlu?6?$AA@ 004e5998     libdb41s:hash_auto.obj
 0003:000079a8       ??_C@_0M@HOHI@?7mode?3?5?$CFld?6?$AA@ 004e59a8     libdb41s:hash_auto.obj
 0003:000079b4       ??_C@_0DO@OPBP@?$FL?$CFlu?$FN?$FL?$CFlu?$FN__ham_chgpg?3?5rec?3?5?$CFlu?5@ 004e59b4     libdb41s:hash_auto.obj
 0003:000079f4       ??_C@_0L@IJLO@?7mode?3?5?$CFo?6?$AA@ 004e59f4     libdb41s:fileops_auto.obj
 0003:00007a00       ??_C@_0P@HMLJ@?7appname?3?5?$CFlu?6?$AA@ 004e5a00     libdb41s:fileops_auto.obj
 0003:00007a10       ??_C@_07DHEL@?7name?3?5?$AA@ 004e5a10     libdb41s:fileops_auto.obj
 0003:00007a18       ??_C@_0DP@OEMF@?$FL?$CFlu?$FN?$FL?$CFlu?$FN__fop_create?3?5rec?3?5?$CFlu@ 004e5a18     libdb41s:fileops_auto.obj
 0003:00007a58       ??_C@_06POLK@?7fid?3?5?$AA@ 004e5a58     libdb41s:fileops_auto.obj
 0003:00007a60       ??_C@_0DP@HAPB@?$FL?$CFlu?$FN?$FL?$CFlu?$FN__fop_remove?3?5rec?3?5?$CFlu@ 004e5a60     libdb41s:fileops_auto.obj
 0003:00007aa0       ??_C@_0M@JPEI@?7flag?3?5?$CFlu?6?$AA@ 004e5aa0     libdb41s:fileops_auto.obj
 0003:00007aac       ??_C@_0O@BMMF@?7offset?3?5?$CFlu?6?$AA@ 004e5aac     libdb41s:fileops_auto.obj
 0003:00007abc       ??_C@_0DO@MLPC@?$FL?$CFlu?$FN?$FL?$CFlu?$FN__fop_write?3?5rec?3?5?$CFlu?5@ 004e5abc     libdb41s:fileops_auto.obj
 0003:00007afc       ??_C@_09ECIF@?7fileid?3?5?$AA@ 004e5afc     libdb41s:fileops_auto.obj
 0003:00007b08       ??_C@_0L@OJNB@?7newname?3?5?$AA@ 004e5b08     libdb41s:fileops_auto.obj
 0003:00007b14       ??_C@_0L@LICH@?7oldname?3?5?$AA@ 004e5b14     libdb41s:fileops_auto.obj
 0003:00007b20       ??_C@_0DP@DJCO@?$FL?$CFlu?$FN?$FL?$CFlu?$FN__fop_rename?3?5rec?3?5?$CFlu@ 004e5b20     libdb41s:fileops_auto.obj
 0003:00007b60       ??_C@_0L@PBM@?7tmp_fid?3?5?$AA@ 004e5b60     libdb41s:fileops_auto.obj
 0003:00007b6c       ??_C@_0M@LOD@?7real_fid?3?5?$AA@ 004e5b6c     libdb41s:fileops_auto.obj
 0003:00007b78       ??_C@_0EE@BBG@?$FL?$CFlu?$FN?$FL?$CFlu?$FN__fop_file_remove?3?5rec@ 004e5b78     libdb41s:fileops_auto.obj
 0003:00007bbc       ??_C@_0M@FFKB@?7id?3?50x?$CFlx?6?$AA@ 004e5bbc     libdb41s:dbreg_auto.obj
 0003:00007bc8       ??_C@_0P@FNGI@?7ftype?3?50x?$CFlx?6?$AA@ 004e5bc8     libdb41s:dbreg_auto.obj
 0003:00007bd8       ??_C@_06BMIA@?7uid?3?5?$AA@ 004e5bd8     libdb41s:dbreg_auto.obj
 0003:00007be0       ??_C@_0ED@BCOF@?$FL?$CFlu?$FN?$FL?$CFlu?$FN__dbreg_register?3?5rec?3@ 004e5be0     libdb41s:dbreg_auto.obj
 0003:00007c24       ??_C@_06NKPM@?7dbt?3?5?$AA@ 004e5c24     libdb41s:db_auto.obj
 0003:00007c2c       ??_C@_06GINI@?7hdr?3?5?$AA@ 004e5c2c     libdb41s:db_auto.obj
 0003:00007c34       ??_C@_0O@HAHJ@?7nbytes?3?5?$CFlu?6?$AA@ 004e5c34     libdb41s:db_auto.obj
 0003:00007c44       ??_C@_0DO@LPMO@?$FL?$CFlu?$FN?$FL?$CFlu?$FN__db_addrem?3?5rec?3?5?$CFlu?5@ 004e5c44     libdb41s:db_auto.obj
 0003:00007c84       ??_C@_0DL@JEGO@?$FL?$CFlu?$FN?$FL?$CFlu?$FN__db_big?3?5rec?3?5?$CFlu?5txn@ 004e5c84     libdb41s:db_auto.obj
 0003:00007cc0       ??_C@_0O@EIFH@?7adjust?3?5?$CFld?6?$AA@ 004e5cc0     libdb41s:db_auto.obj
 0003:00007cd0       ??_C@_0DN@DJPH@?$FL?$CFlu?$FN?$FL?$CFlu?$FN__db_ovref?3?5rec?3?5?$CFlu?5t@ 004e5cd0     libdb41s:db_auto.obj
 0003:00007d10       ??_C@_0BH@NEDM@?7lsn_next?3?5?$FL?$CFlu?$FN?$FL?$CFlu?$FN?6?$AA@ 004e5d10     libdb41s:db_auto.obj
 0003:00007d28       ??_C@_0M@CAAE@?7next?3?5?$CFlu?6?$AA@ 004e5d28     libdb41s:db_auto.obj
 0003:00007d34       ??_C@_0BH@EBAJ@?7lsn_prev?3?5?$FL?$CFlu?$FN?$FL?$CFlu?$FN?6?$AA@ 004e5d34     libdb41s:db_auto.obj
 0003:00007d4c       ??_C@_0M@BPOH@?7prev?3?5?$CFlu?6?$AA@ 004e5d4c     libdb41s:db_auto.obj
 0003:00007d58       ??_C@_0DO@EMPI@?$FL?$CFlu?$FN?$FL?$CFlu?$FN__db_relink?3?5rec?3?5?$CFlu?5@ 004e5d58     libdb41s:db_auto.obj
 0003:00007d98       ??_C@_0BB@LHGC@?7arg_flags?3?5?$CFlu?6?$AA@ 004e5d98     libdb41s:db_auto.obj
 0003:00007dac       ??_C@_05BMOJ@?7op?3?5?$AA@ 004e5dac     libdb41s:db_auto.obj
 0003:00007db4       ??_C@_0DN@GAIK@?$FL?$CFlu?$FN?$FL?$CFlu?$FN__db_debug?3?5rec?3?5?$CFlu?5t@ 004e5db4     libdb41s:db_auto.obj
 0003:00007df4       ??_C@_0DM@MPPL@?$FL?$CFlu?$FN?$FL?$CFlu?$FN__db_noop?3?5rec?3?5?$CFlu?5tx@ 004e5df4     libdb41s:db_auto.obj
 0003:00007e30       ??_C@_0N@OCFF@?7ptype?3?5?$CFlu?6?$AA@ 004e5e30     libdb41s:db_auto.obj
 0003:00007e40       ??_C@_0BH@MIDE@?7page_lsn?3?5?$FL?$CFlu?$FN?$FL?$CFlu?$FN?6?$AA@ 004e5e40     libdb41s:db_auto.obj
 0003:00007e58       ??_C@_0EA@EGPP@?$FL?$CFlu?$FN?$FL?$CFlu?$FN__db_pg_alloc?3?5rec?3?5?$CFl@ 004e5e58     libdb41s:db_auto.obj
 0003:00007e98       ??_C@_09MBCM@?7header?3?5?$AA@ 004e5e98     libdb41s:db_auto.obj
 0003:00007ea4       ??_C@_0DP@GJAF@?$FL?$CFlu?$FN?$FL?$CFlu?$FN__db_pg_free?3?5rec?3?5?$CFlu@ 004e5ea4     libdb41s:db_auto.obj
 0003:00007ee4       ??_C@_0DN@NIJB@?$FL?$CFlu?$FN?$FL?$CFlu?$FN__db_cksum?3?5rec?3?5?$CFlu?5t@ 004e5ee4     libdb41s:db_auto.obj
 0003:00007f24       ??_C@_0EC@LEKF@?$FL?$CFlu?$FN?$FL?$CFlu?$FN__crdel_metasub?3?5rec?3?5@ 004e5f24     libdb41s:crdel_auto.obj
 0003:00007f68       ??_C@_0P@HOM@?7opflags?3?5?$CFlu?6?$AA@ 004e5f68     libdb41s:btree_auto.obj
 0003:00007f78       ??_C@_05GON@?7pg?3?5?$AA@  004e5f78     libdb41s:btree_auto.obj
 0003:00007f80       ??_C@_0BB@EKNK@?7root_pgno?3?5?$CFlu?6?$AA@ 004e5f80     libdb41s:btree_auto.obj
 0003:00007f94       ??_C@_0BD@KNHC@?7nlsn?3?5?$FL?$CFlu?$FN?$FL?$CFlu?$FN?6?$AA@ 004e5f94     libdb41s:btree_auto.obj
 0003:00007fa8       ??_C@_0N@LPHB@?7npgno?3?5?$CFlu?6?$AA@ 004e5fa8     libdb41s:btree_auto.obj
 0003:00007fb8       ??_C@_0BD@JOOH@?7rlsn?3?5?$FL?$CFlu?$FN?$FL?$CFlu?$FN?6?$AA@ 004e5fb8     libdb41s:btree_auto.obj
 0003:00007fcc       ??_C@_0N@LKJG@?7right?3?5?$CFlu?6?$AA@ 004e5fcc     libdb41s:btree_auto.obj
 0003:00007fdc       ??_C@_0BD@EFDB@?7llsn?3?5?$FL?$CFlu?$FN?$FL?$CFlu?$FN?6?$AA@ 004e5fdc     libdb41s:btree_auto.obj
 0003:00007ff0       ??_C@_0M@EMPK@?7left?3?5?$CFlu?6?$AA@ 004e5ff0     libdb41s:btree_auto.obj
 0003:00007ffc       ??_C@_0DO@HKMO@?$FL?$CFlu?$FN?$FL?$CFlu?$FN__bam_split?3?5rec?3?5?$CFlu?5@ 004e5ffc     libdb41s:btree_auto.obj
 0003:0000803c       ??_C@_0BG@HOJE@?7rootlsn?3?5?$FL?$CFlu?$FN?$FL?$CFlu?$FN?6?$AA@ 004e603c     libdb41s:btree_auto.obj
 0003:00008054       ??_C@_0L@NKLA@?7rootent?3?5?$AA@ 004e6054     libdb41s:btree_auto.obj
 0003:00008060       ??_C@_0M@MAMF@?7nrec?3?5?$CFlu?6?$AA@ 004e6060     libdb41s:btree_auto.obj
 0003:0000806c       ??_C@_08EBOM@?7pgdbt?3?5?$AA@ 004e606c     libdb41s:btree_auto.obj
 0003:00008078       ??_C@_0DP@DBJB@?$FL?$CFlu?$FN?$FL?$CFlu?$FN__bam_rsplit?3?5rec?3?5?$CFlu@ 004e6078     libdb41s:btree_auto.obj
 0003:000080b8       ??_C@_0BB@OOAJ@?7is_insert?3?5?$CFlu?6?$AA@ 004e60b8     libdb41s:btree_auto.obj
 0003:000080cc       ??_C@_0BB@DBDF@?7indx_copy?3?5?$CFlu?6?$AA@ 004e60cc     libdb41s:btree_auto.obj
 0003:000080e0       ??_C@_0DM@EAB@?$FL?$CFlu?$FN?$FL?$CFlu?$FN__bam_adj?3?5rec?3?5?$CFlu?5tx@ 004e60e0     libdb41s:btree_auto.obj
 0003:0000811c       ??_C@_0EA@HOPE@?$FL?$CFlu?$FN?$FL?$CFlu?$FN__bam_cadjust?3?5rec?3?5?$CFl@ 004e611c     libdb41s:btree_auto.obj
 0003:0000815c       ??_C@_0DN@NHGI@?$FL?$CFlu?$FN?$FL?$CFlu?$FN__bam_cdel?3?5rec?3?5?$CFlu?5t@ 004e615c     libdb41s:btree_auto.obj
 0003:0000819c       ??_C@_0O@MNCA@?7suffix?3?5?$CFlu?6?$AA@ 004e619c     libdb41s:btree_auto.obj
 0003:000081ac       ??_C@_0O@HOPG@?7prefix?3?5?$CFlu?6?$AA@ 004e61ac     libdb41s:btree_auto.obj
 0003:000081bc       ??_C@_07BLFF@?7repl?3?5?$AA@ 004e61bc     libdb41s:btree_auto.obj
 0003:000081c4       ??_C@_07HBLE@?7orig?3?5?$AA@ 004e61c4     libdb41s:btree_auto.obj
 0003:000081cc       ??_C@_0BB@JEL@?7isdeleted?3?5?$CFlu?6?$AA@ 004e61cc     libdb41s:btree_auto.obj
 0003:000081e0       ??_C@_0DN@MHIM@?$FL?$CFlu?$FN?$FL?$CFlu?$FN__bam_repl?3?5rec?3?5?$CFlu?5t@ 004e61e0     libdb41s:btree_auto.obj
 0003:00008220       ??_C@_0DN@HEDJ@?$FL?$CFlu?$FN?$FL?$CFlu?$FN__bam_root?3?5rec?3?5?$CFlu?5t@ 004e6220     libdb41s:btree_auto.obj
 0003:00008260       ??_C@_0P@KMGF@?7to_indx?3?5?$CFlu?6?$AA@ 004e6260     libdb41s:btree_auto.obj
 0003:00008270       ??_C@_0BB@LMKH@?7from_indx?3?5?$CFlu?6?$AA@ 004e6270     libdb41s:btree_auto.obj
 0003:00008284       ??_C@_0BC@BGFP@?7first_indx?3?5?$CFlu?6?$AA@ 004e6284     libdb41s:btree_auto.obj
 0003:00008298       ??_C@_0BB@GCDH@?7left_pgno?3?5?$CFlu?6?$AA@ 004e6298     libdb41s:btree_auto.obj
 0003:000082ac       ??_C@_0P@IAAD@?7to_pgno?3?5?$CFlu?6?$AA@ 004e62ac     libdb41s:btree_auto.obj
 0003:000082bc       ??_C@_0BB@JAMB@?7from_pgno?3?5?$CFlu?6?$AA@ 004e62bc     libdb41s:btree_auto.obj
 0003:000082d0       ??_C@_0DP@NBBF@?$FL?$CFlu?$FN?$FL?$CFlu?$FN__bam_curadj?3?5rec?3?5?$CFlu@ 004e62d0     libdb41s:btree_auto.obj
 0003:00008310       ??_C@_0N@OAJC@?7order?3?5?$CFld?6?$AA@ 004e6310     libdb41s:btree_auto.obj
 0003:00008320       ??_C@_0N@NAAA@?7recno?3?5?$CFld?6?$AA@ 004e6320     libdb41s:btree_auto.obj
 0003:00008330       ??_C@_0M@NMJ@?7root?3?5?$CFld?6?$AA@ 004e6330     libdb41s:btree_auto.obj
 0003:0000833c       ??_C@_0EA@FMFO@?$FL?$CFlu?$FN?$FL?$CFlu?$FN__bam_rcuradj?3?5rec?3?5?$CFl@ 004e633c     libdb41s:btree_auto.obj
 0003:0000837c       ??_C@_0DF@FOAF@Unable?5to?5allocate?5memory?5for?5th@ 004e637c     libdb41s:txn_region.obj
 0003:000083b4       ??_C@_0CF@MDIO@Unable?5to?5abort?5transaction?50x?$CFx@ 004e63b4     libdb41s:txn_region.obj
 0003:000083dc       ??_C@_0DP@GMJD@Error?3?5closing?5the?5transaction?5r@ 004e63dc     libdb41s:txn_region.obj
 0003:0000841c       ??_C@_0CP@PDI@lock_open?3?5incompatible?5deadlock@ 004e641c     libdb41s:lock_region.obj
 0003:0000844c       ??_C@_0CN@IIMF@Unable?5to?5allocate?5memory?5for?5th@ 004e644c     libdb41s:lock_region.obj
 0003:00008490       ??_C@_0P@FCIL@__db_txn?4share?$AA@ 004e6490     libdb41s:env_region.obj
 0003:000084a0       ??_C@_0BB@EDPB@__db_mpool?4share?$AA@ 004e64a0     libdb41s:env_region.obj
 0003:000084b4       ??_C@_0P@EEFA@__db_log?4share?$AA@ 004e64b4     libdb41s:env_region.obj
 0003:000084c4       ??_C@_0BA@CBOL@__db_lock?4share?$AA@ 004e64c4     libdb41s:env_region.obj
 0003:000084d4       ??_C@_0BP@EMMM@unable?5to?5join?5the?5environment?$AA@ 004e64d4     libdb41s:env_region.obj
 0003:000084f4       ??_C@_0EE@PEKI@Program?5version?5?$CFd?4?$CFd?4?$CFd?5doesn?8t@ 004e64f4     libdb41s:env_region.obj
 0003:00008538       ??_C@_0BP@MOHM@?$CFs?3?5unable?5to?5find?5environment?$AA@ 004e6538     libdb41s:env_region.obj
 0003:00008558       ??_C@_0DK@KJEG@?$CFs?3?5existing?5environment?5not?5cre@ 004e6558     libdb41s:env_region.obj
 0003:00008594       ??_C@_0DG@FGAC@?$CFs?3?5unable?5to?5read?5system?9memory@ 004e6594     libdb41s:env_region.obj
 0003:000085cc       ??_C@_0DC@COHO@?$CFs?3?5unable?5to?5write?5out?5public?5e@ 004e65cc     libdb41s:env_region.obj
 0003:00008600       ??_C@_0CL@ELKE@?$CFs?3?5unable?5to?5acquire?5environmen@ 004e6600     libdb41s:env_region.obj
 0003:0000862c       ??_C@_0CO@CLG@?$CFs?3?5unable?5to?5initialize?5environ@ 004e662c     libdb41s:env_region.obj
 0003:0000865c       ??_C@_08NEMC@__db?4001?$AA@ 004e665c     libdb41s:env_region.obj
 0003:00008668       ??_C@_0BA@DCJO@process?9private?$AA@ 004e6668     libdb41s:env_region.obj
 0003:00008678       ??_C@_0DI@BIFI@region?5?$CFlu?5?$CIenvironment?$CJ?3?5refere@ 004e6678     libdb41s:env_region.obj
 0003:000086b0       ??_C@_0BC@ECKB@region?5detach?3?5?$CFs?$AA@ 004e66b0     libdb41s:env_region.obj
 0003:000086c4       ??_C@_0BF@NIK@region?5?$CFs?5attach?3?5?$CFs?$AA@ 004e66c4     libdb41s:env_region.obj
 0003:000086dc       ??_C@_09IEMG@__db?4?$CF03d?$AA@ 004e66dc     libdb41s:env_region.obj
 0003:000086e8       ??_C@_0N@IEDG@DB_ENV?9?$DOstat?$AA@ 004e66e8     libdb41s:env_region.obj
 0003:00008714       ??_C@_06JNKG@C?3?1tmp?$AA@ 004e6714     libdb41s:os_tmpdir.obj
 0003:0000871c       ??_C@_07OAIF@C?3?1temp?$AA@ 004e671c     libdb41s:os_tmpdir.obj
 0003:00008724       ??_C@_04MNA@?1tmp?$AA@     004e6724     libdb41s:os_tmpdir.obj
 0003:0000872c       ??_C@_05FOBE@?1temp?$AA@   004e672c     libdb41s:os_tmpdir.obj
 0003:00008734       ??_C@_08MNPE@?1usr?1tmp?$AA@ 004e6734     libdb41s:os_tmpdir.obj
 0003:00008740       ??_C@_08MPAI@?1var?1tmp?$AA@ 004e6740     libdb41s:os_tmpdir.obj
 0003:0000874c       ??_C@_0CI@HNBA@illegal?5TempFolder?5environment?5v@ 004e674c     libdb41s:os_tmpdir.obj
 0003:00008774       ??_C@_0L@BFJM@TempFolder?$AA@ 004e6774     libdb41s:os_tmpdir.obj
 0003:00008780       ??_C@_0CB@BCII@illegal?5TMP?5environment?5variable@ 004e6780     libdb41s:os_tmpdir.obj
 0003:000087a4       ??_C@_03LDNL@TMP?$AA@      004e67a4     libdb41s:os_tmpdir.obj
 0003:000087a8       ??_C@_0CC@GLKE@illegal?5TEMP?5environment?5variabl@ 004e67a8     libdb41s:os_tmpdir.obj
 0003:000087cc       ??_C@_04FEEL@TEMP?$AA@     004e67cc     libdb41s:os_tmpdir.obj
 0003:000087d4       ??_C@_0CE@BIOA@illegal?5TMPDIR?5environment?5varia@ 004e67d4     libdb41s:os_tmpdir.obj
 0003:000087f8       ??_C@_06NANE@TMPDIR?$AA@   004e67f8     libdb41s:os_tmpdir.obj
 0003:00008800       ??_C@_0BP@OLJG@GetFileInformationByHandle?3?5?$CFs?$AA@ 004e6800     libdb41s:os_stat.obj
 0003:00008820       ??_C@_04POLC@?$CFc?3?2?$AA@ 004e6820     libdb41s:os_open.obj
 0003:00008828       ??_C@_0BC@DMKI@DBcursor?9?$DOc_count?$AA@ 004e6828     libdb41s:db_iface.obj
 0003:0000883c       ??_C@_05IJAN@c_del?$AA@    004e683c     libdb41s:db_iface.obj
 0003:00008844       ??_C@_0BA@EEDB@DBcursor?9?$DOc_del?$AA@ 004e6844     libdb41s:db_iface.obj
 0003:00008854       ??_C@_0DA@FNIL@DB_DBT_PARTIAL?5forbidden?5with?5DB@ 004e6854     libdb41s:db_iface.obj
 0003:00008884       ??_C@_0DG@NOHM@DB_MULTIPLE?$CI_KEY?$CJ?5requires?5that?5@ 004e6884     libdb41s:db_iface.obj
 0003:000088bc       ??_C@_04OMKF@data?$AA@     004e68bc     libdb41s:db_iface.obj
 0003:000088c4       ??_C@_03DCHJ@key?$AA@      004e68c4     libdb41s:db_iface.obj
 0003:000088c8       ??_C@_0EC@IHIH@DB_DIRTY_READ?5is?5not?5supported?5w@ 004e68c8     libdb41s:db_iface.obj
 0003:0000890c       ??_C@_0BA@EPMC@DBcursor?9?$DOc_get?$AA@ 004e690c     libdb41s:db_iface.obj
 0003:0000891c       ??_C@_05HHFM@c_put?$AA@    004e691c     libdb41s:db_iface.obj
 0003:00008924       ??_C@_0BA@LKGA@DBcursor?9?$DOc_put?$AA@ 004e6924     libdb41s:db_iface.obj
 0003:00008934       ??_C@_0CP@NCFE@DBcursor?9?$DOc_put?5forbidden?5on?5sec@ 004e6934     libdb41s:db_iface.obj
 0003:00008964       ??_C@_0DI@GGFI@DB_GET_BOTH?5on?5a?5secondary?5index@ 004e6964     libdb41s:db_iface.obj
 0003:0000899c       ??_C@_0M@FPIG@primary?5key?$AA@ 004e699c     libdb41s:db_iface.obj
 0003:000089a8       ??_C@_0EF@HBIC@DB_MULTIPLE?5and?5DB_MULTIPLE_KEY?5@ 004e69a8     libdb41s:db_iface.obj
 0003:000089f0       ??_C@_0CP@MCKD@DB?9?$DOpget?5may?5only?5be?5used?5on?5sec@ 004e69f0     libdb41s:db_iface.obj
 0003:00008a20       ??_C@_0BB@MMPC@DBcursor?9?$DOc_pget?$AA@ 004e6a20     libdb41s:db_iface.obj
 0003:00008a34       ??_C@_0DI@NKBK@DB_GET_BOTH?5requires?5both?5a?5seco@ 004e6a34     libdb41s:db_iface.obj
 0003:00008a6c       ??_C@_0DH@KGEK@DBcursor?9?$DOc_pget?5may?5only?5be?5use@ 004e6a6c     libdb41s:db_iface.obj
 0003:00008aa4       ??_C@_06IDPA@delete?$AA@   004e6aa4     libdb41s:db_iface.obj
 0003:00008aac       ??_C@_0DA@NJBO@DB_MULTIPLE?5requires?5that?5DB_DBT@ 004e6aac     libdb41s:db_iface.obj
 0003:00008adc       ??_C@_08DJMI@DB?9?$DOjoin?$AA@ 004e6adc     libdb41s:db_iface.obj
 0003:00008ae8       ??_C@_0DM@EBLI@At?5least?5one?5secondary?5cursor?5mu@ 004e6ae8     libdb41s:db_iface.obj
 0003:00008b24       ??_C@_0DG@FLNM@All?5secondary?5cursors?5must?5share@ 004e6b24     libdb41s:db_iface.obj
 0003:00008b5c       ??_C@_0DF@BCLL@DB_DBT_PARTIAL?5may?5not?5be?5set?5on@ 004e6b5c     libdb41s:db_iface.obj
 0003:00008b94       ??_C@_03ELEH@put?$AA@      004e6b94     libdb41s:db_iface.obj
 0003:00008b98       ??_C@_0EI@JFPM@a?5partial?5put?5in?5the?5presence?5of@ 004e6b98     libdb41s:db_iface.obj
 0003:00008be0       ??_C@_0CH@NMOM@DB?9?$DOput?5forbidden?5on?5secondary?5i@ 004e6be0     libdb41s:db_iface.obj
 0003:00008c08       ??_C@_0DE@GPAE@DB_THREAD?5mandates?5memory?5alloca@ 004e6c08     libdb41s:db_iface.obj
 0003:00008c3c       ??_C@_0CH@EMOG@?$CFs?3?5attempt?5to?5modify?5a?5read?9onl@ 004e6c3c     libdb41s:db_iface.obj
 0003:00008c64       ??_C@_0DH@KABI@?$CFs?3?5the?5DB_DIRTY_READ?5and?5DB_RMW@ 004e6c64     libdb41s:db_iface.obj
 0003:00008c9c       ??_C@_0DN@PPFJ@Cursor?5position?5must?5be?5set?5befo@ 004e6c9c     libdb41s:db_iface.obj
 0003:00008cdc       ??_C@_0EA@HBOL@Secondary?5index?5corrupt?3?5item?5in@ 004e6cdc     libdb41s:db_iface.obj
 0003:00008d1c       ??_C@_0O@KIGC@DB?9?$DOassociate?$AA@ 004e6d1c     libdb41s:db_iface.obj
 0003:00008d2c       ??_C@_0EH@GPIN@Callback?5function?5may?5be?5NULL?5on@ 004e6d2c     libdb41s:db_iface.obj
 0003:00008d74       ??_C@_0EB@NPEO@Renumbering?5recno?5databases?5may?5@ 004e6d74     libdb41s:db_iface.obj
 0003:00008db8       ??_C@_0DI@HDBN@Primary?5databases?5may?5not?5be?5con@ 004e6db8     libdb41s:db_iface.obj
 0003:00008df0       ??_C@_0DH@HMEI@Secondary?5indices?5may?5not?5be?5use@ 004e6df0     libdb41s:db_iface.obj
 0003:00008e28       ??_C@_0DB@FABM@Secondary?5index?5handles?5may?5not?5@ 004e6e28     libdb41s:db_iface.obj
 0003:00008e5c       ??_C@_0EF@NOAL@DB_AUTO_COMMIT?5may?5not?5be?5specif@ 004e6e5c     libdb41s:db_iface.obj
 0003:00008ea4       ??_C@_0EE@FOAM@DB_AUTO_COMMIT?5may?5not?5be?5specif@ 004e6ea4     libdb41s:db_iface.obj
 0003:00008ee8       ??_C@_0BH@KJB@rename?3?5file?5?$CFs?5exists?$AA@ 004e6ee8     libdb41s:fop_util.obj
 0003:00008f00       ??_C@_0BD@HDAI@multiple?9databases?$AA@ 004e6f00     libdb41s:db_pr.obj
 0003:00008f14       ??_C@_0P@FAAJ@recno?3renumber?$AA@ 004e6f14     libdb41s:db_pr.obj
 0003:00008f24       ??_C@_0BD@MJNB@recno?3fixed?9length?$AA@ 004e6f24     libdb41s:db_pr.obj
 0003:00008f38       ??_C@_0N@DDPK@btree?3recnum?$AA@ 004e6f38     libdb41s:db_pr.obj
 0003:00008f48       ??_C@_05HLFJ@recno?$AA@    004e6f48     libdb41s:db_pr.obj
 0003:00008f50       ??_C@_08MCKG@verifier?$AA@ 004e6f50     libdb41s:db_pr.obj
 0003:00008f5c       ??_C@_0O@NLDO@transactional?$AA@ 004e6f5c     libdb41s:db_pr.obj
 0003:00008f6c       ??_C@_08CFNE@needswap?$AA@ 004e6f6c     libdb41s:db_pr.obj
 0003:00008f78       ??_C@_0N@EPGF@subdatabases?$AA@ 004e6f78     libdb41s:db_pr.obj
 0003:00008f88       ??_C@_0N@BJCO@load?5on?5open?$AA@ 004e6f88     libdb41s:db_pr.obj
 0003:00008f98       ??_C@_09OICA@secondary?$AA@ 004e6f98     libdb41s:db_pr.obj
 0003:00008fa4       ??_C@_0BC@GHIM@no?5reverse?5splits?$AA@ 004e6fa4     libdb41s:db_pr.obj
 0003:00008fb8       ??_C@_08ODJN@renumber?$AA@ 004e6fb8     libdb41s:db_pr.obj
 0003:00008fc4       ??_C@_0BE@IHIK@opened?5for?5recovery?$AA@ 004e6fc4     libdb41s:db_pr.obj
 0003:00008fd8       ??_C@_0BF@LJPN@Btree?5record?5numbers?$AA@ 004e6fd8     libdb41s:db_pr.obj
 0003:00008ff0       ??_C@_09EOCJ@read?9only?$AA@ 004e6ff0     libdb41s:db_pr.obj
 0003:00008ffc       ??_C@_0BC@LLFA@default?5page?5size?$AA@ 004e6ffc     libdb41s:db_pr.obj
 0003:00009010       ??_C@_09GFJP@pad?5value?$AA@ 004e7010     libdb41s:db_pr.obj
 0003:0000901c       ??_C@_0BA@CBJE@DB?9?$DOopen?5called?$AA@ 004e701c     libdb41s:db_pr.obj
 0003:0000902c       ??_C@_0BG@LJDD@file?5is?5being?5renamed?$AA@ 004e702c     libdb41s:db_pr.obj
 0003:00009044       ??_C@_09EMMJ@in?9memory?$AA@ 004e7044     libdb41s:db_pr.obj
 0003:00009050       ??_C@_0BF@BOKA@fixed?9length?5records?$AA@ 004e7050     libdb41s:db_pr.obj
 0003:00009068       ??_C@_09IDCJ@encrypted?$AA@ 004e7068     libdb41s:db_pr.obj
 0003:00009074       ??_C@_0BC@CDCH@sorted?5duplicates?$AA@ 004e7074     libdb41s:db_pr.obj
 0003:00009088       ??_C@_0L@NIHG@duplicates?$AA@ 004e7088     libdb41s:db_pr.obj
 0003:00009094       ??_C@_0BF@GEBO@discard?5cached?5pages?$AA@ 004e7094     libdb41s:db_pr.obj
 0003:000090ac       ??_C@_0M@BGFP@dirty?5reads?$AA@ 004e70ac     libdb41s:db_pr.obj
 0003:000090b8       ??_C@_0BA@PJI@variable?5length?$AA@ 004e70b8     libdb41s:db_pr.obj
 0003:000090c8       ??_C@_0P@LOKK@dbm?1ndbm?5error?$AA@ 004e70c8     libdb41s:db_pr.obj
 0003:000090d8       ??_C@_0BK@ILOK@encompassing?5file?5created?$AA@ 004e70d8     libdb41s:db_pr.obj
 0003:000090f4       ??_C@_0BB@KGFI@database?5created?$AA@ 004e70f4     libdb41s:db_pr.obj
 0003:00009108       ??_C@_0CE@OPCH@created?5by?5compensating?5transact@ 004e7108     libdb41s:db_pr.obj
 0003:0000912c       ??_C@_0BG@PIDP@client?5replica?5writer?$AA@ 004e712c     libdb41s:db_pr.obj
 0003:00009144       ??_C@_0N@JPHG@checksumming?$AA@ 004e7144     libdb41s:db_pr.obj
 0003:00009154       ??_C@_03HHKO@?$CFs?6?$AA@  004e7154     libdb41s:db_pr.obj
 0003:00009158       ??_C@_01LLF@w?$AA@         004e7158     libdb41s:db_pr.obj
 0003:0000915c       ??_C@_0P@FNEP@page_ext?3?5?$CFlu?6?$AA@ 004e715c     libdb41s:db_pr.obj
 0003:0000916c       ??_C@_0P@ELDK@rec_page?3?5?$CFlu?6?$AA@ 004e716c     libdb41s:db_pr.obj
 0003:0000917c       ??_C@_0BK@FLKE@re_pad?3?5?$CF?$CDlx?5re_len?3?5?$CFlu?6?$AA@ 004e717c     libdb41s:db_pr.obj
 0003:00009198       ??_C@_0N@HBFG@q_root?3?5?$CFlu?6?$AA@ 004e7198     libdb41s:db_pr.obj
 0003:000091a8       ??_C@_0N@KMIJ@q_meta?3?5?$CFlu?6?$AA@ 004e71a8     libdb41s:db_pr.obj
 0003:000091b8       ??_C@_0O@BJJE@h_hash?3?5?$CF?$CDlx?6?$AA@ 004e71b8     libdb41s:db_pr.obj
 0003:000091c8       ??_C@_0O@FGPH@h_nelem?3?5?$CFlu?6?$AA@ 004e71c8     libdb41s:db_pr.obj
 0003:000091d8       ??_C@_0BA@JCHG@h_ffactor?3?5?$CFlu?6?$AA@ 004e71d8     libdb41s:db_pr.obj
 0003:000091e8       ??_C@_0BA@DPKN@meta_pgno?3?5?$CFlu?6?$AA@ 004e71e8     libdb41s:db_pr.obj
 0003:000091f8       ??_C@_0CJ@JHDH@re_modified?3?5?$CFd?5re_eof?3?5?$CFd?5re_la@ 004e71f8     libdb41s:db_pr.obj
 0003:00009224       ??_C@_0DH@BEAM@re_pad?3?5?$CF?$CDlx?5re_delim?3?5?$CF?$CDlx?5re_l@ 004e7224     libdb41s:db_pr.obj
 0003:0000925c       ??_C@_0P@NJGA@bt_lpgno?3?5?$CFlu?6?$AA@ 004e725c     libdb41s:db_pr.obj
 0003:0000926c       ??_C@_0CC@ODME@bt_compare?3?5?$CF?$CDlx?5bt_prefix?3?5?$CF?$CDlx@ 004e726c     libdb41s:db_pr.obj
 0003:00009290       ??_C@_0BP@DJME@bt_maxkey?3?5?$CFlu?5bt_minkey?3?5?$CFlu?6?$AA@ 004e7290     libdb41s:db_pr.obj
 0003:000092b0       ??_C@_0BL@CCOH@bt_meta?3?5?$CFlu?5bt_root?3?5?$CFlu?6?$AA@ 004e72b0     libdb41s:db_pr.obj
 0003:000092cc       ??_C@_0CB@CMLH@In?9memory?5DB?5structure?3?6?$CFs?3?5?$CF?$CDlx@ 004e72cc     libdb41s:db_pr.obj
 0003:000092f0       ??_C@_0CH@HPPE@ILLEGAL?5PAGE?5OFFSET?3?5indx?3?5?$CFlu?5o@ 004e72f0     libdb41s:db_pr.obj
 0003:00009318       ??_C@_0BI@KEBK@ILLEGAL?5PAGE?5ITEM?3?5?$CFlu?6?$AA@ 004e7318     libdb41s:db_pr.obj
 0003:00009330       ??_C@_0CL@PMHB@ILLEGAL?5DUPLICATE?1LBTREE?1LRECNO?5@ 004e7330     libdb41s:db_pr.obj
 0003:0000935c       ??_C@_0BI@ILFF@entries?5?$CF4lu?5pgno?5?$CF4lu?6?$AA@ 004e735c     libdb41s:db_pr.obj
 0003:00009374       ??_C@_0BN@ILHB@ILLEGAL?5BINTERNAL?5TYPE?3?5?$CFlu?6?$AA@ 004e7374     libdb41s:db_pr.obj
 0003:00009394       ??_C@_0CC@NFDK@count?3?5?$CF4lu?5pgno?3?5?$CF4lu?5type?3?5?$CF4l@ 004e7394     libdb41s:db_pr.obj
 0003:000093b8       ??_C@_0CG@MGAJ@overflow?3?5total?5len?3?5?$CF4lu?5page?3?5@ 004e73b8     libdb41s:db_pr.obj
 0003:000093e0       ??_C@_02FNNB@?7?7?$AA@     004e73e0     libdb41s:db_pr.obj
 0003:000093e4       ??_C@_0N@FOJO@Duplicates?3?6?$AA@ 004e73e4     libdb41s:db_pr.obj
 0003:000093f4       ??_C@_0BF@ENGL@?$CF4lu?5?$FLoffpage?5dups?$FN?6?$AA@ 004e73f4     libdb41s:db_pr.obj
 0003:0000940c       ??_C@_0P@BANP@?5offset?3?5?$CF4lu?6?$AA@ 004e740c     libdb41s:db_pr.obj
 0003:0000941c       ??_C@_0BA@MJNC@?$CFsentries?3?5?$CF4lu?$AA@ 004e741c     libdb41s:db_pr.obj
 0003:0000942c       ??_C@_0BB@EAPI@?$CFsref?5cnt?3?5?$CF4lu?5?$AA@ 004e742c     libdb41s:db_pr.obj
 0003:00009440       ??_C@_0BI@BBJD@?$CFsprev?3?5?$CF4lu?5next?3?5?$CF4lu?$AA@ 004e7440     libdb41s:db_pr.obj
 0003:00009458       ??_C@_0O@FJGB@?$FL?$CF03lu?$FN?5?$CF4lu?5?$AA@ 004e7458     libdb41s:db_pr.obj
 0003:00009468       ??_C@_08FFJB@?5?5?5?5?5?5?5D?$AA@ 004e7468     libdb41s:db_pr.obj
 0003:00009474       ??_C@_01POCP@?7?$AA@       004e7474     libdb41s:db_pr.obj
 0003:00009478       ??_C@_0CC@PCMM@?5?$CIlsn?4file?3?5?$CFlu?5lsn?4offset?3?5?$CFlu?$CJ@ 004e7478     libdb41s:db_pr.obj
 0003:0000949c       ??_C@_0O@NBNA@?5records?3?5?$CFlu?$AA@ 004e749c     libdb41s:db_pr.obj
 0003:000094ac       ??_C@_0BI@HBBM@page?5?$CFlu?3?5?$CFs?5level?3?5?$CFlu?$AA@ 004e74ac     libdb41s:db_pr.obj
 0003:000094c4       ??_C@_0CI@BPCI@ILLEGAL?5PAGE?5TYPE?3?5page?3?5?$CFlu?5typ@ 004e74c4     libdb41s:db_pr.obj
 0003:000094ec       ??_C@_0M@HBMK@?7root?3?5?$CFlu?6?$AA@ 004e74ec     libdb41s:db_pr.obj
 0003:000094f8       ??_C@_0BL@PEBF@?7re_len?3?5?$CF?$CDlx?5re_pad?3?5?$CFlu?6?$AA@ 004e74f8     libdb41s:db_pr.obj
 0003:00009514       ??_C@_0BK@FEHH@?7maxkey?3?5?$CFlu?5minkey?3?5?$CFlu?6?$AA@ 004e7514     libdb41s:db_pr.obj
 0003:00009530       ??_C@_0N@JMCM@?7flags?3?5?$CF?$CDlx?$AA@ 004e7530     libdb41s:db_pr.obj
 0003:00009540       ??_C@_0BB@OBHG@?7last_pgno?3?5?$CFlu?6?$AA@ 004e7540     libdb41s:db_pr.obj
 0003:00009554       ??_C@_0CM@GBIH@Unable?5to?5retrieve?5free?9list?5pag@ 004e7554     libdb41s:db_pr.obj
 0003:00009580       ??_C@_05HGAB@?$CFs?$CFlu?$AA@ 004e7580     libdb41s:db_pr.obj
 0003:00009588       ??_C@_0BA@BMJB@?7free?5list?3?5?$CFlu?$AA@ 004e7588     libdb41s:db_pr.obj
 0003:00009598       ??_C@_0BJ@IPCI@?7keys?3?5?$CFlu?7records?3?5?$CFlu?6?$AA@ 004e7598     libdb41s:db_pr.obj
 0003:000095b4       ??_C@_0M@EOO@?7type?3?5?$CFlu?6?$AA@ 004e75b4     libdb41s:db_pr.obj
 0003:000095c0       ??_C@_0BA@HPEM@?7pagesize?3?5?$CFlu?6?$AA@ 004e75c0     libdb41s:db_pr.obj
 0003:000095d0       ??_C@_0P@LKGD@?7version?3?5?$CFlu?6?$AA@ 004e75d0     libdb41s:db_pr.obj
 0003:000095e0       ??_C@_0O@DDDK@?7magic?3?5?$CF?$CDlx?6?$AA@ 004e75e0     libdb41s:db_pr.obj
 0003:000095f0       ??_C@_04OHG@?$CFlu?5?$AA@  004e75f0     libdb41s:db_pr.obj
 0003:000095f8       ??_C@_0BA@KNPE@?7spare?5points?3?5?$AA@ 004e75f8     libdb41s:db_pr.obj
 0003:00009608       ??_C@_0BC@GFIJ@?7h_charkey?3?5?$CF?$CDlx?6?$AA@ 004e7608     libdb41s:db_pr.obj
 0003:0000961c       ??_C@_0N@GDCL@?7nelem?3?5?$CFlu?6?$AA@ 004e761c     libdb41s:db_pr.obj
 0003:0000962c       ??_C@_0P@KLMA@?7ffactor?3?5?$CFlu?6?$AA@ 004e762c     libdb41s:db_pr.obj
 0003:0000963c       ??_C@_0BC@NEOC@?7low_mask?3?5?5?$CF?$CDlx?6?$AA@ 004e763c     libdb41s:db_pr.obj
 0003:00009650       ??_C@_0BC@MGON@?7high_mask?3?5?$CF?$CDlx?6?$AA@ 004e7650     libdb41s:db_pr.obj
 0003:00009664       ??_C@_0BC@IACG@?7max_bucket?3?5?$CFlu?6?$AA@ 004e7664     libdb41s:db_pr.obj
 0003:00009678       ??_C@_0BA@IKON@?7page_ext?3?5?$CFlu?6?$AA@ 004e7678     libdb41s:db_pr.obj
 0003:00009688       ??_C@_0BA@JMJI@?7rec_page?3?5?$CFlu?6?$AA@ 004e7688     libdb41s:db_pr.obj
 0003:00009698       ??_C@_0BB@IOI@?7cur_recno?3?5?$CFlu?6?$AA@ 004e7698     libdb41s:db_pr.obj
 0003:000096ac       ??_C@_0BD@IAOD@?7first_recno?3?5?$CFlu?6?$AA@ 004e76ac     libdb41s:db_pr.obj
 0003:000096c0       ??_C@_06FMIO@0x?$CF?42x?$AA@ 004e76c0     libdb41s:db_pr.obj
 0003:000096c8       ??_C@_07CLDP@?5data?3?5?$AA@ 004e76c8     libdb41s:db_pr.obj
 0003:000096d0       ??_C@_09GPCD@len?3?5?$CF3lu?$AA@ 004e76d0     libdb41s:db_pr.obj
 0003:000096dc       ??_C@_04LKNH@?$CFc?$CFc?$AA@ 004e76dc     libdb41s:db_pr.obj
 0003:000096e4       ??_C@_05DAGJ@?2?$CFc?$CFc?$AA@ 004e76e4     libdb41s:db_pr.obj
 0003:000096ec       ??_C@_03JGAL@?$CFlu?$AA@   004e76ec     libdb41s:db_pr.obj
 0003:000096f0       ??_C@_09FCIL@__OTHER__?$AA@ 004e76f0     libdb41s:db_pr.obj
 0003:000096fc       ??_C@_0BH@ONHJ@duplicate?3?5page?3?5?$CF4lu?6?$AA@ 004e76fc     libdb41s:db_pr.obj
 0003:00009714       ??_C@_01KMMP@?$CJ?$AA@     004e7714     libdb41s:db_pr.obj
 0003:00009718       ??_C@_02NDAK@?5?$CI?$AA@   004e7718     libdb41s:db_pr.obj
 0003:0000971c       ??_C@_0N@PJPB@UNKNOWN?5TYPE?$AA@ 004e771c     libdb41s:db_pr.obj
 0003:0000972c       ??_C@_05MHPE@queue?$AA@    004e772c     libdb41s:db_pr.obj
 0003:00009734       ??_C@_04MMAH@hash?$AA@     004e7734     libdb41s:db_pr.obj
 0003:0000973c       ??_C@_05PFDO@btree?$AA@    004e773c     libdb41s:db_pr.obj
 0003:00009744       ??_C@_0P@GMGI@queue?5metadata?$AA@ 004e7744     libdb41s:db_pr.obj
 0003:00009754       ??_C@_084overflow?$AA@     004e7754     libdb41s:db_pr.obj
 0003:00009760       ??_C@_0L@KJPA@recno?5leaf?$AA@ 004e7760     libdb41s:db_pr.obj
 0003:0000976c       ??_C@_0L@PIIL@btree?5leaf?$AA@ 004e776c     libdb41s:db_pr.obj
 0003:00009778       ??_C@_0P@CFEB@recno?5internal?$AA@ 004e7778     libdb41s:db_pr.obj
 0003:00009788       ??_C@_07KLCM@invalid?$AA@  004e7788     libdb41s:db_pr.obj
 0003:00009790       ??_C@_0P@NONO@btree?5internal?$AA@ 004e7790     libdb41s:db_pr.obj
 0003:000097a0       ??_C@_0O@FIGB@hash?5metadata?$AA@ 004e77a0     libdb41s:db_pr.obj
 0003:000097b0       ??_C@_09JPJI@duplicate?$AA@ 004e77b0     libdb41s:db_pr.obj
 0003:000097bc       ??_C@_0P@KPCB@btree?5metadata?$AA@ 004e77bc     libdb41s:db_pr.obj
 0003:000097cc       ??_C@_0M@CPGA@HEADER?$DNEND?6?$AA@ 004e77cc     libdb41s:db_pr.obj
 0003:000097d8       ??_C@_07EENH@keys?$DN1?6?$AA@ 004e77d8     libdb41s:db_pr.obj
 0003:000097e0       ??_C@_0BB@LNFP@db_pagesize?$DN?$CFlu?6?$AA@ 004e77e0     libdb41s:db_pr.obj
 0003:000097f4       ??_C@_09JACC@chksum?$DN1?6?$AA@ 004e77f4     libdb41s:db_pr.obj
 0003:00009800       ??_C@_0CE@GNKI@Impossible?5DB?5type?5in?5__db_prhea@ 004e7800     libdb41s:db_pr.obj
 0003:00009824       ??_C@_0L@MLDC@dupsort?$DN1?6?$AA@ 004e7824     libdb41s:db_pr.obj
 0003:00009830       ??_C@_0O@BPEE@duplicates?$DN1?6?$AA@ 004e7830     libdb41s:db_pr.obj
 0003:00009840       ??_C@_0M@HKHM@renumber?$DN1?6?$AA@ 004e7840     libdb41s:db_pr.obj
 0003:0000984c       ??_C@_0M@LHOG@type?$DNrecno?6?$AA@ 004e784c     libdb41s:db_pr.obj
 0003:00009858       ??_C@_0BA@GLFJ@extentsize?$DN?$CFlu?6?$AA@ 004e7858     libdb41s:db_pr.obj
 0003:00009868       ??_C@_0M@KLNO@re_pad?$DN?$CF?$CDx?6?$AA@ 004e7868     libdb41s:db_pr.obj
 0003:00009874       ??_C@_0M@CGME@re_len?$DN?$CFlu?6?$AA@ 004e7874     libdb41s:db_pr.obj
 0003:00009880       ??_C@_0M@LFK@type?$DNqueue?6?$AA@ 004e7880     libdb41s:db_pr.obj
 0003:0000988c       ??_C@_0N@GALG@h_nelem?$DN?$CFlu?6?$AA@ 004e788c     libdb41s:db_pr.obj
 0003:0000989c       ??_C@_0P@OBMK@h_ffactor?$DN?$CFlu?6?$AA@ 004e789c     libdb41s:db_pr.obj
 0003:000098ac       ??_C@_0L@HIP@type?$DNhash?6?$AA@ 004e78ac     libdb41s:db_pr.obj
 0003:000098b8       ??_C@_0P@FKCG@bt_minkey?$DN?$CFlu?6?$AA@ 004e78b8     libdb41s:db_pr.obj
 0003:000098c8       ??_C@_0P@INAG@bt_maxkey?$DN?$CFlu?6?$AA@ 004e78c8     libdb41s:db_pr.obj
 0003:000098d8       ??_C@_09BPIG@recnum?$DN1?6?$AA@ 004e78d8     libdb41s:db_pr.obj
 0003:000098e4       ??_C@_0M@MBGI@type?$DNbtree?6?$AA@ 004e78e4     libdb41s:db_pr.obj
 0003:000098f0       ??_C@_09ODBB@database?$DN?$AA@ 004e78f0     libdb41s:db_pr.obj
 0003:000098fc       ??_C@_0BC@LDNI@format?$DNbytevalue?6?$AA@ 004e78fc     libdb41s:db_pr.obj
 0003:00009910       ??_C@_0O@NCKH@format?$DNprint?6?$AA@ 004e7910     libdb41s:db_pr.obj
 0003:00009920       ??_C@_0L@KGME@VERSION?$DN3?6?$AA@ 004e7920     libdb41s:db_pr.obj
 0003:0000992c       ??_C@_09BIGG@DATA?$DNEND?6?$AA@ 004e792c     libdb41s:db_pr.obj
 0003:00009938       ??_C@_0BF@DHBP@read?3?50x?$CFlx?0?5?$CFlu?3?5?$CFs?$AA@ 004e7938     libdb41s:os_rw.obj
 0003:00009950       ??_C@_0BF@GJBC@write?3?50x?$CFx?0?5?$CFlu?3?5?$CFs?$AA@ 004e7950     libdb41s:os_rw.obj
 0003:00009968       ??_C@_0BE@OICO@seek?3?5?$CFlu?5?$CFd?5?$CFd?3?5?$CFs?$AA@ 004e7968     libdb41s:os_seek.obj
 0003:0000997c       ??_C@_0EH@KIKI@Page?5?$CFlu?3?5queue?5record?5length?5?$CFl@ 004e797c     libdb41s:qam_verify.obj
 0003:000099c4       ??_C@_0EI@PHLJ@Page?5?$CFlu?3?5current?5recno?5?$CFlu?5refe@ 004e79c4     libdb41s:qam_verify.obj
 0003:00009a0c       ??_C@_0CP@CGKN@Page?5?$CFlu?3?5queue?5databases?5must?5b@ 004e7a0c     libdb41s:qam_verify.obj
 0003:00009a3c       ??_C@_0DE@OEC@Page?5?$CFlu?3?5queue?5record?5?$CFlu?5exten@ 004e7a3c     libdb41s:qam_verify.obj
 0003:00009a70       ??_C@_0DE@POMH@Page?5?$CFlu?3?5queue?5database?5page?5of@ 004e7a70     libdb41s:qam_verify.obj
 0003:00009aa4       ??_C@_0CK@GMKH@Page?5?$CFlu?3?5queue?5database?5has?5no?5@ 004e7aa4     libdb41s:qam_verify.obj
 0003:00009ad0       ??_C@_0DF@GIPJ@Page?5?$CFlu?3?5re_len?5of?5?$CFlu?5in?5non?9f@ 004e7ad0     libdb41s:bt_verify.obj
 0003:00009b08       ??_C@_0DD@GLD@Page?5?$CFlu?3?5recno?5metadata?5page?5sp@ 004e7b08     libdb41s:bt_verify.obj
 0003:00009b3c       ??_C@_0DP@HLJM@Page?5?$CFlu?3?5metadata?5page?5has?5renu@ 004e7b3c     libdb41s:bt_verify.obj
 0003:00009b7c       ??_C@_0EC@DCBC@Page?5?$CFlu?3?5Btree?5metadata?5page?5il@ 004e7b7c     libdb41s:bt_verify.obj
 0003:00009bc0       ??_C@_0EJ@KDGF@Page?5?$CFlu?3?5Btree?5metadata?5page?5ha@ 004e7bc0     libdb41s:bt_verify.obj
 0003:00009c0c       ??_C@_0DF@DMPH@Page?5?$CFlu?3?5nonsensical?5root?5page?5@ 004e7c0c     libdb41s:bt_verify.obj
 0003:00009c44       ??_C@_0DL@GIGH@Page?5?$CFlu?3?5nonsensical?5bt_minkey?5@ 004e7c44     libdb41s:bt_verify.obj
 0003:00009c80       ??_C@_0CI@MDFM@Page?5?$CFlu?3?5nonsensical?5type?5for?5i@ 004e7c80     libdb41s:bt_verify.obj
 0003:00009ca8       ??_C@_0CC@KKFA@Page?5?$CFlu?3?5Recno?5database?5has?5dup@ 004e7ca8     libdb41s:bt_verify.obj
 0003:00009ccc       ??_C@_0DE@CAKP@Page?5?$CFlu?3?5?$CFs?5called?5on?5nonsensic@ 004e7ccc     libdb41s:bt_verify.obj
 0003:00009d00       ??_C@_0BA@CMPH@__ram_vrfy_leaf?$AA@ 004e7d00     libdb41s:bt_verify.obj
 0003:00009d10       ??_C@_0L@LHAA@__bam_vrfy?$AA@ 004e7d10     libdb41s:bt_verify.obj
 0003:00009d1c       ??_C@_0CM@LIHI@Page?5?$CFlu?3?5item?5order?5check?5unsaf@ 004e7d1c     libdb41s:bt_verify.obj
 0003:00009d48       ??_C@_0CN@CFKJ@Page?5?$CFlu?3?5bad?5HOFFSET?5?$CFlu?0?5appea@ 004e7d48     libdb41s:bt_verify.obj
 0003:00009d78       ??_C@_0CK@MPCP@Page?5?$CFlu?3?5gap?5between?5items?5at?5o@ 004e7d78     libdb41s:bt_verify.obj
 0003:00009da4       ??_C@_0CG@FAKN@Page?5?$CFlu?3?5bad?5offset?5?$CFlu?5at?5inde@ 004e7da4     libdb41s:bt_verify.obj
 0003:00009dcc       ??_C@_0DN@PJAI@Page?5?$CFlu?3?5RINTERNAL?5structure?5at@ 004e7dcc     libdb41s:bt_verify.obj
 0003:00009e0c       ??_C@_0P@DCGH@__ram_vrfy_inp?$AA@ 004e7e0c     libdb41s:bt_verify.obj
 0003:00009e1c       ??_C@_0P@OMMP@__bam_vrfy_inp?$AA@ 004e7e1c     libdb41s:bt_verify.obj
 0003:00009e2c       ??_C@_0CK@HFIK@Page?5?$CFlu?3?5overlapping?5items?5at?5o@ 004e7e2c     libdb41s:bt_verify.obj
 0003:00009e58       ??_C@_0BP@DPCM@Page?5?$CFlu?3?5offset?5?$CFlu?5unaligned?$AA@ 004e7e58     libdb41s:bt_verify.obj
 0003:00009e78       ??_C@_0CM@JLAN@Page?5?$CFlu?3?5offpage?5item?5?$CFlu?5has?5b@ 004e7e78     libdb41s:bt_verify.obj
 0003:00009ea4       ??_C@_0CI@KKMF@Page?5?$CFlu?3?5impossible?5tlen?5?$CFlu?0?5i@ 004e7ea4     libdb41s:bt_verify.obj
 0003:00009ecc       ??_C@_0DO@BKAA@Page?5?$CFlu?3?5duplicate?5page?5referen@ 004e7ecc     libdb41s:bt_verify.obj
 0003:00009f0c       ??_C@_0EH@DGPJ@Page?5?$CFlu?3?5duplicate?5page?5referen@ 004e7f0c     libdb41s:bt_verify.obj
 0003:00009f54       ??_C@_0CH@OICH@Page?5?$CFlu?3?5item?5?$CFlu?5of?5invalid?5ty@ 004e7f54     libdb41s:bt_verify.obj
 0003:00009f7c       ??_C@_0CC@NMCK@Page?5?$CFlu?3?5item?5?$CFlu?5marked?5delete@ 004e7f7c     libdb41s:bt_verify.obj
 0003:00009fa0       ??_C@_0BO@BAMK@Page?5?$CFlu?3?5duplicated?5item?5?$CFlu?$AA@ 004e7fa0     libdb41s:bt_verify.obj
 0003:00009fc0       ??_C@_0BF@JGCC@__bam_vrfy_itemorder?$AA@ 004e7fc0     libdb41s:bt_verify.obj
 0003:00009fd8       ??_C@_0DK@PKF@Page?5?$CFlu?3?5database?5with?5no?5dupli@ 004e7fd8     libdb41s:bt_verify.obj
 0003:0000a014       ??_C@_0CI@ECAE@Page?5?$CFlu?3?5out?9of?9order?5key?5at?5en@ 004e8014     libdb41s:bt_verify.obj
 0003:0000a03c       ??_C@_0DC@HHOB@Page?5?$CFlu?3?5error?5?$CFlu?5in?5fetching?5@ 004e803c     libdb41s:bt_verify.obj
 0003:0000a070       ??_C@_0DM@PCJD@Page?5?$CFlu?3?5btree?5root?5of?5incorrec@ 004e8070     libdb41s:bt_verify.obj
 0003:0000a0ac       ??_C@_0DH@HJBC@Page?5?$CFlu?3?5duplicate?5tree?5referen@ 004e80ac     libdb41s:bt_verify.obj
 0003:0000a0e4       ??_C@_0CM@OPOD@Page?5?$CFlu?3?5recno?5database?5has?5bad@ 004e80e4     libdb41s:bt_verify.obj
 0003:0000a110       ??_C@_0CK@GCNN@Page?5?$CFlu?3?5btree?5metadata?5page?5ha@ 004e8110     libdb41s:bt_verify.obj
 0003:0000a13c       ??_C@_0CN@MIHM@Page?5?$CFlu?3?5btree?5metadata?5page?5ob@ 004e813c     libdb41s:bt_verify.obj
 0003:0000a16c       ??_C@_0DL@EADL@Page?5?$CFlu?3?5btree?5or?5recno?5page?5is@ 004e816c     libdb41s:bt_verify.obj
 0003:0000a1a8       ??_C@_0BE@NNAM@btree?5or?5recno?5page?$AA@ 004e81a8     libdb41s:bt_verify.obj
 0003:0000a1bc       ??_C@_0CC@HHGK@Page?5?$CFlu?3?5unterminated?5leaf?5chai@ 004e81bc     libdb41s:bt_verify.obj
 0003:0000a1e0       ??_C@_0BH@NDJF@Page?5?$CFlu?3?5linked?5twice?$AA@ 004e81e0     libdb41s:bt_verify.obj
 0003:0000a1f8       ??_C@_0DI@DMOG@Page?5?$CFlu?3?5bad?5record?5count?3?5has?5@ 004e81f8     libdb41s:bt_verify.obj
 0003:0000a230       ??_C@_0DD@DOHP@Page?5?$CFlu?3?5internal?5page?5is?5empty@ 004e8230     libdb41s:bt_verify.obj
 0003:0000a264       ??_C@_0DH@COKN@Page?5?$CFlu?3?5Btree?5level?5incorrect?3@ 004e8264     libdb41s:bt_verify.obj
 0003:0000a29c       ??_C@_0EE@HLAA@Page?5?$CFlu?3?5item?5?$CFlu?5has?5incorrect@ 004e829c     libdb41s:bt_verify.obj
 0003:0000a2e0       ??_C@_0BD@CLIB@__bam_vrfy_subtree?$AA@ 004e82e0     libdb41s:bt_verify.obj
 0003:0000a2f4       ??_C@_0DH@NMCC@Page?5?$CFlu?3?5recno?5level?5incorrect?3@ 004e82f4     libdb41s:bt_verify.obj
 0003:0000a32c       ??_C@_0CN@MAHK@Page?5?$CFlu?3?5recno?5page?5returned?5ba@ 004e832c     libdb41s:bt_verify.obj
 0003:0000a35c       ??_C@_0CG@EBOM@Page?5?$CFlu?3?5duplicates?5in?5non?9dup?5@ 004e835c     libdb41s:bt_verify.obj
 0003:0000a384       ??_C@_0CM@PMDJ@Page?5?$CFlu?3?5non?9recno?5leaf?5page?5in@ 004e8384     libdb41s:bt_verify.obj
 0003:0000a3b0       ??_C@_0CJ@NBNN@Page?5?$CFlu?3?5recno?5leaf?5page?5non?9re@ 004e83b0     libdb41s:bt_verify.obj
 0003:0000a3dc       ??_C@_0EG@NJOG@Page?5?$CFlu?3?5incorrect?5prev_pgno?5?$CFl@ 004e83dc     libdb41s:bt_verify.obj
 0003:0000a424       ??_C@_0EG@NEJJ@Page?5?$CFlu?3?5incorrect?5next_pgno?5?$CFl@ 004e8424     libdb41s:bt_verify.obj
 0003:0000a46c       ??_C@_0EG@IPMA@Page?5?$CFlu?3?5unexpected?5page?5type?5?$CF@ 004e846c     libdb41s:bt_verify.obj
 0003:0000a4b4       ??_C@_0DB@OEGC@Page?5?$CFlu?3?5last?5item?5on?5page?5had?5@ 004e84b4     libdb41s:bt_verify.obj
 0003:0000a4e8       ??_C@_0DN@ODGH@Page?5?$CFlu?3?5last?5item?5on?5page?5sort@ 004e84e8     libdb41s:bt_verify.obj
 0003:0000a528       ??_C@_0CL@BMGF@Page?5?$CFlu?3?5unknown?5type?5for?5inter@ 004e8528     libdb41s:bt_verify.obj
 0003:0000a554       ??_C@_0DC@GDFF@Page?5?$CFlu?3?5first?5item?5on?5page?5had@ 004e8554     libdb41s:bt_verify.obj
 0003:0000a588       ??_C@_0DO@MIKK@Page?5?$CFlu?3?5first?5item?5on?5page?5sor@ 004e8588     libdb41s:bt_verify.obj
 0003:0000a5c8       ??_C@_0BF@HGGP@__bam_vrfy_treeorder?$AA@ 004e85c8     libdb41s:bt_verify.obj
 0003:0000a5e0       ??_C@_0DB@HAIP@__bam_salvage_walkdupint?5called?5@ 004e85e0     libdb41s:bt_verify.obj
 0003:0000a614       ??_C@_0CL@BAC@Page?5?$CFlu?3?5spares?5array?5entry?5?$CFd?5@ 004e8614     libdb41s:hash_verify.obj
 0003:0000a640       ??_C@_0CJ@LON@Page?5?$CFlu?3?5suspiciously?5high?5nele@ 004e8640     libdb41s:hash_verify.obj
 0003:0000a66c       ??_C@_0DA@OKMM@Page?5?$CFlu?3?5incorrect?5low_mask?5?$CFlu@ 004e866c     libdb41s:hash_verify.obj
 0003:0000a69c       ??_C@_0DB@MMLN@Page?5?$CFlu?3?5incorrect?5high_mask?5?$CFl@ 004e869c     libdb41s:hash_verify.obj
 0003:0000a6d0       ??_C@_0DB@LBLH@Page?5?$CFlu?3?5Impossible?5max_bucket?5@ 004e86d0     libdb41s:hash_verify.obj
 0003:0000a704       ??_C@_0FH@GCDG@Page?5?$CFlu?3?5database?5has?5different@ 004e8704     libdb41s:hash_verify.obj
 0003:0000a75c       ??_C@_0DC@GHBO@Page?5?$CFlu?3?5item?5?$CFlu?5is?5out?5of?5ord@ 004e875c     libdb41s:hash_verify.obj
 0003:0000a790       ??_C@_0CL@BBBN@Page?5?$CFlu?3?5entries?5array?5collided@ 004e8790     libdb41s:hash_verify.obj
 0003:0000a7bc       ??_C@_0L@GGCJ@__ham_vrfy?$AA@ 004e87bc     libdb41s:hash_verify.obj
 0003:0000a7c8       ??_C@_0BP@GCBC@Page?5?$CFlu?3?5item?5?$CFi?5has?5bad?5type?$AA@ 004e87c8     libdb41s:hash_verify.obj
 0003:0000a7e8       ??_C@_0CP@LJCN@Page?5?$CFlu?3?5offpage?5item?5?$CFlu?5has?5b@ 004e87e8     libdb41s:hash_verify.obj
 0003:0000a818       ??_C@_0CM@LGEO@Page?5?$CFlu?3?5duplicate?5item?5?$CFlu?5has@ 004e8818     libdb41s:hash_verify.obj
 0003:0000a844       ??_C@_0DH@NIJE@Page?5?$CFlu?3?5duplicate?5item?5?$CFlu?5has@ 004e8844     libdb41s:hash_verify.obj
 0003:0000a87c       ??_C@_0DA@FOLF@Page?5?$CFlu?3?5hash?5key?5stored?5as?5dup@ 004e887c     libdb41s:hash_verify.obj
 0003:0000a8ac       ??_C@_0DA@ICGB@Page?5?$CFlu?3?5hash?5bucket?5?$CFlu?5maps?5t@ 004e88ac     libdb41s:hash_verify.obj
 0003:0000a8dc       ??_C@_0DD@KMGF@Page?5?$CFlu?3?5non?9empty?5page?5in?5unus@ 004e88dc     libdb41s:hash_verify.obj
 0003:0000a910       ??_C@_0CG@JIG@Page?5?$CFlu?3?5above?5max_bucket?5refer@ 004e8910     libdb41s:hash_verify.obj
 0003:0000a938       ??_C@_0CK@HHIA@Page?5?$CFlu?3?5Hash?5meta?5page?5referen@ 004e8938     libdb41s:hash_verify.obj
 0003:0000a964       ??_C@_0CO@FKBJ@Page?5?$CFlu?3?5impossible?5first?5page?5@ 004e8964     libdb41s:hash_verify.obj
 0003:0000a994       ??_C@_0CF@OLJI@Page?5?$CFlu?3?5hash?5page?5referenced?5t@ 004e8994     libdb41s:hash_verify.obj
 0003:0000a9bc       ??_C@_0CG@CMNN@Page?5?$CFlu?3?5hash?5page?5has?5bad?5next@ 004e89bc     libdb41s:hash_verify.obj
 0003:0000a9e4       ??_C@_0CG@MPPK@Page?5?$CFlu?3?5hash?5page?5has?5bad?5prev@ 004e89e4     libdb41s:hash_verify.obj
 0003:0000aa0c       ??_C@_0CP@DEPG@Page?5?$CFlu?3?5unsorted?5dups?5in?5sorte@ 004e8a0c     libdb41s:hash_verify.obj
 0003:0000aa3c       ??_C@_0DH@CKDH@Page?5?$CFlu?3?5duplicates?5present?5in?5@ 004e8a3c     libdb41s:hash_verify.obj
 0003:0000aa74       ??_C@_0DI@DNCJ@Page?5?$CFlu?3?5first?5page?5in?5hash?5buc@ 004e8a74     libdb41s:hash_verify.obj
 0003:0000aaac       ??_C@_0CG@GDIF@Page?5?$CFlu?3?5item?5?$CFlu?5hashes?5incorr@ 004e8aac     libdb41s:hash_verify.obj
 0003:0000aad4       ??_C@_0DB@PCCA@Page?5?$CFlu?3?5overflow?5page?5has?5zero@ 004e8ad4     libdb41s:db_overflow.obj
 0003:0000ab08       ??_C@_0CD@FFGK@Page?5?$CFlu?3?5overflow?5item?5incomple@ 004e8b08     libdb41s:db_overflow.obj
 0003:0000ab2c       ??_C@_0DC@NLHD@Page?5?$CFlu?3?5encountered?5twice?5in?5o@ 004e8b2c     libdb41s:db_overflow.obj
 0003:0000ab60       ??_C@_0CN@BGOH@Page?5?$CFlu?3?5bad?5next_pgno?5?$CFlu?5on?5o@ 004e8b60     libdb41s:db_overflow.obj
 0003:0000ab90       ??_C@_0DN@FBMD@Page?5?$CFlu?3?5bad?5prev_pgno?5?$CFlu?5on?5o@ 004e8b90     libdb41s:db_overflow.obj
 0003:0000abd0       ??_C@_0DL@IJNA@Page?5?$CFlu?3?5first?5page?5in?5overflow@ 004e8bd0     libdb41s:db_overflow.obj
 0003:0000ac0c       ??_C@_0CM@ID@Page?5?$CFlu?3?5overflow?5page?5of?5inval@ 004e8c0c     libdb41s:db_overflow.obj
 0003:0000ac38       ??_C@_0BO@MPHF@Closing?5already?9closed?5cursor?$AA@ 004e8c38     libdb41s:db_cam.obj
 0003:0000ac58       ??_C@_0N@FNND@__db_c_count?$AA@ 004e8c58     libdb41s:db_cam.obj
 0003:0000ac68       ??_C@_0CC@NIDJ@Cannot?5duplicate?5writeable?5curso@ 004e8c68     libdb41s:db_cam.obj
 0003:0000ac8c       ??_C@_0M@NLFH@__db_c_idup?$AA@ 004e8c8c     libdb41s:db_cam.obj
 0003:0000ac98       ??_C@_0L@MHHF@__db_c_get?$AA@ 004e8c98     libdb41s:db_cam.obj
 0003:0000aca4       ??_C@_0DB@DJJG@Put?5results?5in?5a?5non?9unique?5seco@ 004e8ca4     libdb41s:db_cam.obj
 0003:0000acd8       ??_C@_0CL@IFB@index?5not?5configured?5to?5support?5@ 004e8cd8     libdb41s:db_cam.obj
 0003:0000ad04       ??_C@_0CM@IOKO@Length?5improper?5for?5fixed?5length@ 004e8d04     libdb41s:db_cam.obj
 0003:0000ad30       ??_C@_0DI@BEGC@Duplicate?5data?5items?5are?5not?5sup@ 004e8d30     libdb41s:db_cam.obj
 0003:0000ad68       ??_C@_0CE@KCOK@Write?5attempted?5on?5read?9only?5cur@ 004e8d68     libdb41s:db_cam.obj
 0003:0000ad8c       ??_C@_08MKFC@fsync?5?$CFs?$AA@ 004e8d8c     libdb41s:os_fsync.obj
 0003:0000ad98       ??_C@_0O@MHLP@__bam_c_close?$AA@ 004e8d98     libdb41s:bt_cursor.obj
 0003:0000ada8       ??_C@_0M@GMNH@__bam_c_get?$AA@ 004e8da8     libdb41s:bt_cursor.obj
 0003:0000adb4       ??_C@_0M@JJHF@__bam_c_put?$AA@ 004e8db4     libdb41s:bt_cursor.obj
 0003:0000adc0       ??_C@_0P@GHMH@__bam_c_search?$AA@ 004e8dc0     libdb41s:bt_cursor.obj
 0003:0000add0       ??_C@_0M@PLCP@__qam_c_put?$AA@ 004e8dd0     libdb41s:qam.obj
 0003:0000addc       ??_C@_0M@OIN@__qam_c_get?$AA@ 004e8ddc     libdb41s:qam.obj
 0003:0000ade8       ??_C@_0BL@IHDO@illegal?5record?5number?5of?50?$AA@ 004e8de8     libdb41s:qam.obj
 0003:0000ae04       ??_C@_0CB@CFBB@H_NOMORE?5returned?5to?5__ham_c_get@ 004e8e04     libdb41s:hash.obj
 0003:0000ae28       ??_C@_0M@EIFF@__ram_c_get?$AA@ 004e8e28     libdb41s:bt_recno.obj
 0003:0000ae34       ??_C@_0CF@CBOD@?$CFs?3?5write?5failed?5to?5backing?5file@ 004e8e34     libdb41s:bt_recno.obj
 0003:0000ae5c       ??_C@_0CP@GBDI@checksum?5error?3?5catastrophic?5rec@ 004e8e5c     libdb41s:db_conv.obj
 0003:0000ae8c       ??_C@_0DO@JLI@Extent?5size?5may?5not?5be?5specified@ 004e8e8c     libdb41s:qam_open.obj
 0003:0000aecc       ??_C@_0CB@LIAB@?$CFs?3?5unsupported?5qam?5version?3?5?$CFlu@ 004e8ecc     libdb41s:qam_open.obj
 0003:0000aef0       ??_C@_0DB@JBJ@?$CFs?3?5queue?5version?5?$CFlu?5requires?5a@ 004e8ef0     libdb41s:qam_open.obj
 0003:0000af24       ??_C@_0DC@IAPC@Record?5size?5of?5?$CFlu?5too?5large?5for@ 004e8f24     libdb41s:qam_open.obj
 0003:0000af58       ??_C@_0CB@CFFA@hash?3?5incompatible?5hash?5function@ 004e8f58     libdb41s:hash_open.obj
 0003:0000af7c       ??_C@_0DO@HPPP@?$CFs?3?5duplicate?5sort?5function?5spec@ 004e8f7c     libdb41s:hash_open.obj
 0003:0000afbc       ??_C@_0DL@MHBF@?$CFs?3?5multiple?5databases?5specified@ 004e8fbc     libdb41s:hash_open.obj
 0003:0000aff8       ??_C@_0DM@OAHE@?$CFs?3?5DB_DUP?5specified?5to?5open?5met@ 004e8ff8     libdb41s:hash_open.obj
 0003:0000b034       ??_C@_0DA@OAGM@?$CFs?3?5hash?5version?5?$CFlu?5requires?5a?5@ 004e9034     libdb41s:hash_open.obj
 0003:0000b064       ??_C@_0DF@GMIP@bt_minkey?5value?5of?5?$CFlu?5too?5high?5@ 004e9064     libdb41s:bt_open.obj
 0003:0000b09c       ??_C@_0EG@LCJK@prefix?5comparison?5may?5not?5be?5spe@ 004e909c     libdb41s:bt_open.obj
 0003:0000b0e4       ??_C@_0DL@ICAF@?$CFs?3?5duplicate?5sort?5specified?5but@ 004e90e4     libdb41s:bt_open.obj
 0003:0000b120       ??_C@_0DL@HCGE@?$CFs?3?5multiple?5databases?5specified@ 004e9120     libdb41s:bt_open.obj
 0003:0000b15c       ??_C@_0EB@LLEC@?$CFs?3?5DB_RENUMBER?5specified?5to?5ope@ 004e915c     libdb41s:bt_open.obj
 0003:0000b1a0       ??_C@_0DC@IBJ@open?5method?5type?5is?5Recno?0?5datab@ 004e91a0     libdb41s:bt_open.obj
 0003:0000b1d4       ??_C@_0EB@MCGP@?$CFs?3?5DB_FIXEDLEN?5specified?5to?5ope@ 004e91d4     libdb41s:bt_open.obj
 0003:0000b218       ??_C@_0DC@NK@open?5method?5type?5is?5Btree?0?5datab@ 004e9218     libdb41s:bt_open.obj
 0003:0000b24c       ??_C@_0DP@GGNF@?$CFs?3?5DB_RECNUM?5specified?5to?5open?5@ 004e924c     libdb41s:bt_open.obj
 0003:0000b28c       ??_C@_0DB@PGKI@?$CFs?3?5btree?5version?5?$CFlu?5requires?5a@ 004e928c     libdb41s:bt_open.obj
 0003:0000b2c0       ??_C@_0BP@HGNG@mac?5derivation?5key?5magic?5value?$AA@ 004e92c0     libdb41s:hmac.obj
 0003:0000b2e0       ??_C@_0DA@MGDL@Encrypted?5checksum?3?5no?5encryptio@ 004e92e0     libdb41s:hmac.obj
 0003:0000b310       ??_C@_0DE@BJFK@Unencrypted?5checksum?5with?5a?5supp@ 004e9310     libdb41s:hmac.obj
 0003:0000b344       ??_C@_0L@MJJ@?$CF?$CDlx?3?5?$CFlu?7?$AA@ 004e9344     libdb41s:db_salloc.obj
 0003:0000b350       ??_C@_0BF@OFNB@?$CFs?6Memory?5free?5list?6?$AA@ 004e9350     libdb41s:db_salloc.obj
 0003:0000b368       ??_C@_0BO@BGMD@?$CFs?3?5write?5failed?5for?5page?5?$CFlu?$AA@ 004e9368     libdb41s:mp_bh.obj
 0003:0000b388       ??_C@_0CI@PPPB@unable?5to?5create?5temporary?5backi@ 004e9388     libdb41s:mp_bh.obj
 0003:0000b3b0       ??_C@_0BL@NEED@?$CFs?3?5?$CFs?5failed?5for?5page?5?$CFlu?$AA@ 004e93b0     libdb41s:mp_bh.obj
 0003:0000b3cc       ??_C@_05EPCL@pgout?$AA@    004e93cc     libdb41s:mp_bh.obj
 0003:0000b3d4       ??_C@_04FCBL@pgin?$AA@     004e93d4     libdb41s:mp_bh.obj
 0003:0000b3dc       ??_C@_0BB@KAHC@Rename?5?$CFs?5?$CFs?3?5?$CFs?$AA@ 004e93dc     libdb41s:os_rename.obj
 0003:0000b3f0       ??_C@_0P@FDOJ@unlink?3?5?$CFs?3?5?$CFs?$AA@ 004e93f0     libdb41s:os_unlink.obj
 0003:0000b400       ??_C@_0CK@NPKP@?$CFs?3?5dirty?5flag?5set?5for?5readonly?5@ 004e9400     libdb41s:mp_fset.obj
 0003:0000b42c       ??_C@_09OJFG@memp_fset?$AA@ 004e942c     libdb41s:mp_fset.obj
 0003:0000b438       ??_C@_0CF@BNKI@?$CFs?3?5page?5?$CFlu?3?5unpinned?5page?5retu@ 004e9438     libdb41s:mp_fput.obj
 0003:0000b460       ??_C@_09HFME@memp_fput?$AA@ 004e9460     libdb41s:mp_fput.obj
 0003:0000b46c       ??_C@_0CH@HJIH@?$CFs?3?5page?5?$CFlu?3?5reference?5count?5ov@ 004e946c     libdb41s:mp_fget.obj
 0003:0000b494       ??_C@_09IAGG@memp_fget?$AA@ 004e9494     libdb41s:mp_fget.obj
 0003:0000b4a0       ??_C@_04FFGD@sync?$AA@     004e94a0     libdb41s:mp_fget.obj
 0003:0000b4a8       ??_C@_05DDNA@write?$AA@    004e94a8     libdb41s:mp_fget.obj
 0003:0000b4b0       ??_C@_0BE@GEBK@UnmapViewOfFile?3?5?$CFs?$AA@ 004e94b0     libdb41s:os_map.obj
 0003:0000b4c4       ??_C@_0BC@JCFH@MapViewOfFile?3?5?$CFs?$AA@ 004e94c4     libdb41s:os_map.obj
 0003:0000b4d8       ??_C@_0BE@ONAJ@OpenFileMapping?3?5?$CFs?$AA@ 004e94d8     libdb41s:os_map.obj
 0003:0000b4ec       ??_C@_0DB@JJDK@__db_shmem?4?$CF8?48lx?4?$CF8?48lx?4?$CF8?48lx?4@ 004e94ec     libdb41s:os_map.obj
 0003:0000b520       ??_C@_04FIFD@?$CFs?1?$CK?$AA@ 004e9520     libdb41s:os_dir.obj
 0003:0000b528       ??_C@_0DL@LMJG@Log?5sequence?5error?3?5page?5LSN?5?$CFlu@ 004e9528     libdb41s:hash_rec.obj
 0003:0000b564       ??_C@_0BP@ODGB@Improper?5file?5close?5at?5?$CFlu?1?$CFlu?$AA@ 004e9564     libdb41s:dbreg_rec.obj
 0003:0000b584       ??_C@_0DA@HHPK@Checksum?5failure?5requires?5catast@ 004e9584     libdb41s:db_rec.obj
 0003:0000b5b8       ??_C@_0O@DMFP@DB?9?$DOkey_range?$AA@ 004e95b8     libdb41s:bt_stat.obj
 0003:0000b5c8       ??_C@_0BK@LOEB@Too?5many?5btree?5levels?3?5?$CFd?$AA@ 004e95c8     libdb41s:bt_split.obj
 0003:0000b5e4       ??_C@_0M@INDG@__bam_iitem?$AA@ 004e95e4     libdb41s:bt_put.obj
 0003:0000b5f0       ??_C@_0CD@DDLE@Current?5data?5differs?5from?5put?5da@ 004e95f0     libdb41s:bt_put.obj
 0003:0000b614       ??_C@_0CB@NELN@Attempt?5to?5return?5a?5deleted?5item@ 004e9614     libdb41s:hash_page.obj
 0003:0000b63c       ??_C@_01ELIA@?$IA?$AA@     004e963c     libdb41s:sha1.obj
 0003:0000b640       ??_R0?AVexception@@@8      004e9640     libcpmt:string.obj
 0003:0000b658       ??_R0?AVlogic_error@std@@@8 004e9658     libcpmt:string.obj
 0003:0000b678       ??_R0?AVlength_error@std@@@8 004e9678     libcpmt:string.obj
 0003:0000b698       ??_R0?AVout_of_range@std@@@8 004e9698     libcpmt:string.obj
 0003:0000b6b8       __GUID_df0b3d60_548f_101b_8e65_08002b2bd119 004e96b8     comsupp:comsupp.obj
 0003:0000b6c8       __GUID_1cf2b120_547d_101b_8e65_08002b2bd119 004e96c8     comsupp:comsupp.obj
 0003:0000b6d8       __GUID_00020400_0000_0000_c000_000000000046 004e96d8     comsupp:comsupp.obj
 0003:0000b6f0       __sys_errlist              004e96f0     LIBCMTD:syserr.obj
 0003:0000b7a0       __sys_nerr                 004e97a0     LIBCMTD:syserr.obj
 0003:0000b7b0       ?_Nilrefs@?$_Tree@KU?$pair@$$CBKV?$list@PAU_BLOCKCHANNELOP@CChannelMgr@@V?$allocator@PAU_BLOCKCHANNELOP@CChannelMgr@@@std@@@std@@@std@@U_Kfn@?$map@KV?$list@PAU_BLOCKCHANNELOP@CChannelMgr@@V?$allocator@PAU_BLOCKCHANNELOP@CChannelMgr@@@std@@@std@@U?$less@K@2@V?$allocator@V?$list@PAU_BLOCKCHANNELOP@CChannelMgr@@V?$allocator@PAU_BLOCKCHANNELOP@CChannelMgr@@@std@@@std@@@2@@2@U?$less@K@2@V?$allocator@V?$list@PAU_BLOCKCHANNELOP@CChannelMgr@@V?$allocator@PAU_BLOCKCHANNELOP@CChannelMgr@@@std@@@std@@@2@@std@@1IA 004e97b0     ChannelMgr.obj
 0003:0000b7b4       ?_Nil@?$_Tree@KU?$pair@$$CBKV?$list@PAU_BLOCKCHANNELOP@CChannelMgr@@V?$allocator@PAU_BLOCKCHANNELOP@CChannelMgr@@@std@@@std@@@std@@U_Kfn@?$map@KV?$list@PAU_BLOCKCHANNELOP@CChannelMgr@@V?$allocator@PAU_BLOCKCHANNELOP@CChannelMgr@@@std@@@std@@U?$less@K@2@V?$allocator@V?$list@PAU_BLOCKCHANNELOP@CChannelMgr@@V?$allocator@PAU_BLOCKCHANNELOP@CChannelMgr@@@std@@@std@@@2@@2@U?$less@K@2@V?$allocator@V?$list@PAU_BLOCKCHANNELOP@CChannelMgr@@V?$allocator@PAU_BLOCKCHANNELOP@CChannelMgr@@@std@@@std@@@2@@std@@1PAU_Node@12@A 004e97b4     ChannelMgr.obj
 0003:0000b7b8       ?_Nilrefs@?$_Tree@V?$basic_string@DU?$char_traits@D@std@@V?$allocator@D@2@@std@@U?$pair@$$CBV?$basic_string@DU?$char_traits@D@std@@V?$allocator@D@2@@std@@K@2@U_Kfn@?$map@V?$basic_string@DU?$char_traits@D@std@@V?$allocator@D@2@@std@@KU_tstring_less@@V?$allocator@K@2@@2@U_tstring_less@@V?$allocator@K@2@@std@@1IA 004e97b8     ChannelMgr.obj
 0003:0000b7bc       ?_Nil@?$_Tree@V?$basic_string@DU?$char_traits@D@std@@V?$allocator@D@2@@std@@U?$pair@$$CBV?$basic_string@DU?$char_traits@D@std@@V?$allocator@D@2@@std@@K@2@U_Kfn@?$map@V?$basic_string@DU?$char_traits@D@std@@V?$allocator@D@2@@std@@KU_tstring_less@@V?$allocator@K@2@@2@U_tstring_less@@V?$allocator@K@2@@std@@1PAU_Node@12@A 004e97bc     ChannelMgr.obj
 0003:0000b7c0       ?_Nilrefs@?$_Tree@KU?$pair@$$CBKUCHANNINFO@CChannelMgr@@@std@@U_Kfn@?$map@KUCHANNINFO@CChannelMgr@@U?$less@K@std@@V?$allocator@UCHANNINFO@CChannelMgr@@@4@@2@U?$less@K@2@V?$allocator@UCHANNINFO@CChannelMgr@@@2@@std@@1IA 004e97c0     ChannelMgr.obj
 0003:0000b7c4       ?_Nil@?$_Tree@KU?$pair@$$CBKUCHANNINFO@CChannelMgr@@@std@@U_Kfn@?$map@KUCHANNINFO@CChannelMgr@@U?$less@K@std@@V?$allocator@UCHANNINFO@CChannelMgr@@@4@@2@U?$less@K@2@V?$allocator@UCHANNINFO@CChannelMgr@@@2@@std@@1PAU_Node@12@A 004e97c4     ChannelMgr.obj
 0003:0000b7c8       ??_C@_00A@?$AA@            004e97c8     ChannelMgr.obj
 0003:0000b7cc       ?_Nil@?$_Tree@KU?$pair@$$CBKV?$map@KUPLAYERINFO@CChannelMgr@@U?$less@K@std@@V?$allocator@UPLAYERINFO@CChannelMgr@@@4@@std@@@std@@U_Kfn@?$map@KV?$map@KUPLAYERINFO@CChannelMgr@@U?$less@K@std@@V?$allocator@UPLAYERINFO@CChannelMgr@@@4@@std@@U?$less@K@2@V?$allocator@V?$map@KUPLAYERINFO@CChannelMgr@@U?$less@K@std@@V?$allocator@UPLAYERINFO@CChannelMgr@@@4@@std@@@2@@2@U?$less@K@2@V?$allocator@V?$map@KUPLAYERINFO@CChannelMgr@@U?$less@K@std@@V?$allocator@UPLAYERINFO@CChannelMgr@@@4@@std@@@2@@std@@1PAU_Node@12@A 004e97cc     ChannelMgr.obj
 0003:0000b7d0       ?_Nil@?$_Tree@KU?$pair@$$CBKUPLAYERINFO@CChannelMgr@@@std@@U_Kfn@?$map@KUPLAYERINFO@CChannelMgr@@U?$less@K@std@@V?$allocator@UPLAYERINFO@CChannelMgr@@@4@@2@U?$less@K@2@V?$allocator@UPLAYERINFO@CChannelMgr@@@2@@std@@1PAU_Node@12@A 004e97d0     ChannelMgr.obj
 0003:0000b7d4       ?_Nilrefs@?$_Tree@KU?$pair@$$CBKUPLAYERINFO@CChannelMgr@@@std@@U_Kfn@?$map@KUPLAYERINFO@CChannelMgr@@U?$less@K@std@@V?$allocator@UPLAYERINFO@CChannelMgr@@@4@@2@U?$less@K@2@V?$allocator@UPLAYERINFO@CChannelMgr@@@2@@std@@1IA 004e97d4     ChannelMgr.obj
 0003:0000b7d8       ?_Nilrefs@?$_Tree@KU?$pair@$$CBKV?$map@KUPLAYERINFO@CChannelMgr@@U?$less@K@std@@V?$allocator@UPLAYERINFO@CChannelMgr@@@4@@std@@@std@@U_Kfn@?$map@KV?$map@KUPLAYERINFO@CChannelMgr@@U?$less@K@std@@V?$allocator@UPLAYERINFO@CChannelMgr@@@4@@std@@U?$less@K@2@V?$allocator@V?$map@KUPLAYERINFO@CChannelMgr@@U?$less@K@std@@V?$allocator@UPLAYERINFO@CChannelMgr@@@4@@std@@@2@@2@U?$less@K@2@V?$allocator@V?$map@KUPLAYERINFO@CChannelMgr@@U?$less@K@std@@V?$allocator@UPLAYERINFO@CChannelMgr@@@4@@std@@@2@@std@@1IA 004e97d8     ChannelMgr.obj
 0003:0000b7dc       ?_Nilrefs@?$_Tree@KU?$pair@$$CBKPAVCChatConnect@@@std@@U_Kfn@?$map@KPAVCChatConnect@@U?$less@K@std@@V?$allocator@PAVCChatConnect@@@3@@2@U?$less@K@2@V?$allocator@PAVCChatConnect@@@2@@std@@1IA 004e97dc     ChatServer.obj
 0003:0000b7e0       ?_Nil@?$_Tree@KU?$pair@$$CBKPAVCChatConnect@@@std@@U_Kfn@?$map@KPAVCChatConnect@@U?$less@K@std@@V?$allocator@PAVCChatConnect@@@3@@2@U?$less@K@2@V?$allocator@PAVCChatConnect@@@2@@std@@1PAU_Node@12@A 004e97e0     ChatServer.obj
 0003:0000b7e8       ?gs_Script@@3VKLuaScript@@A 004e97e8     DoScript.obj
 0003:0000b85c       ?g_ExecuteIP@@3KA          004e985c     DoScript.obj
 0003:0000b860       ?g_ExecuteRelayID@@3KA     004e9860     DoScript.obj
 0003:0000b888       ?_Nil@?$_Tree@V?$basic_string@DU?$char_traits@D@std@@V?$allocator@D@2@@std@@U?$pair@$$CBV?$basic_string@DU?$char_traits@D@std@@V?$allocator@D@2@@std@@UPLAYERINFO@CFriendMgr@@@2@U_Kfn@?$map@V?$basic_string@DU?$char_traits@D@std@@V?$allocator@D@2@@std@@UPLAYERINFO@CFriendMgr@@U_tstring_less@@V?$allocator@UPLAYERINFO@CFriendMgr@@@2@@2@U_tstring_less@@V?$allocator@UPLAYERINFO@CFriendMgr@@@2@@std@@1PAU_Node@12@A 004e9888     FriendMgr.obj
 0003:0000b88c       ?_Nilrefs@?$_Tree@V?$basic_string@DU?$char_traits@D@std@@V?$allocator@D@2@@std@@U?$pair@$$CBV?$basic_string@DU?$char_traits@D@std@@V?$allocator@D@2@@std@@UPLAYERINFO@CFriendMgr@@@2@U_Kfn@?$map@V?$basic_string@DU?$char_traits@D@std@@V?$allocator@D@2@@std@@UPLAYERINFO@CFriendMgr@@U_tstring_less@@V?$allocator@UPLAYERINFO@CFriendMgr@@@2@@2@U_tstring_less@@V?$allocator@UPLAYERINFO@CFriendMgr@@@2@@std@@1IA 004e988c     FriendMgr.obj
 0003:0000b890       ?_Nil@?$_Tree@UADDFRIENDKEY@CFriendMgr@@U?$pair@$$CBUADDFRIENDKEY@CFriendMgr@@UADDFRIENDVALUE@2@@std@@U_Kfn@?$map@UADDFRIENDKEY@CFriendMgr@@UADDFRIENDVALUE@2@U?$less@UADDFRIENDKEY@CFriendMgr@@@std@@V?$allocator@UADDFRIENDVALUE@CFriendMgr@@@5@@4@U?$less@UADDFRIENDKEY@CFriendMgr@@@4@V?$allocator@UADDFRIENDVALUE@CFriendMgr@@@4@@std@@1PAU_Node@12@A 004e9890     FriendMgr.obj
 0003:0000b894       ?_Nilrefs@?$_Tree@UADDFRIENDKEY@CFriendMgr@@U?$pair@$$CBUADDFRIENDKEY@CFriendMgr@@UADDFRIENDVALUE@2@@std@@U_Kfn@?$map@UADDFRIENDKEY@CFriendMgr@@UADDFRIENDVALUE@2@U?$less@UADDFRIENDKEY@CFriendMgr@@@std@@V?$allocator@UADDFRIENDVALUE@CFriendMgr@@@5@@4@U?$less@UADDFRIENDKEY@CFriendMgr@@@4@V?$allocator@UADDFRIENDVALUE@CFriendMgr@@@4@@std@@1IA 004e9894     FriendMgr.obj
 0003:0000b898       ?_Nil@?$_Tree@KU?$pair@$$CBKV?$list@UtagPlusSrcInfo@@V?$allocator@UtagPlusSrcInfo@@@std@@@std@@@std@@U_Kfn@?$map@KV?$list@UtagPlusSrcInfo@@V?$allocator@UtagPlusSrcInfo@@@std@@@std@@U?$less@K@2@V?$allocator@V?$list@UtagPlusSrcInfo@@V?$allocator@UtagPlusSrcInfo@@@std@@@std@@@2@@2@U?$less@K@2@V?$allocator@V?$list@UtagPlusSrcInfo@@V?$allocator@UtagPlusSrcInfo@@@std@@@std@@@2@@std@@1PAU_Node@12@A 004e9898     FriendMgr.obj
 0003:0000b89c       ?_Nilrefs@?$_Tree@KU?$pair@$$CBKV?$list@UtagPlusSrcInfo@@V?$allocator@UtagPlusSrcInfo@@@std@@@std@@@std@@U_Kfn@?$map@KV?$list@UtagPlusSrcInfo@@V?$allocator@UtagPlusSrcInfo@@@std@@@std@@U?$less@K@2@V?$allocator@V?$list@UtagPlusSrcInfo@@V?$allocator@UtagPlusSrcInfo@@@std@@@std@@@2@@2@U?$less@K@2@V?$allocator@V?$list@UtagPlusSrcInfo@@V?$allocator@UtagPlusSrcInfo@@@std@@@std@@@2@@std@@1IA 004e989c     FriendMgr.obj
 0003:0000b8a0       ?_Nil@?$_Tree@V?$basic_string@DU?$char_traits@D@std@@V?$allocator@D@2@@std@@U?$pair@$$CBV?$basic_string@DU?$char_traits@D@std@@V?$allocator@D@2@@std@@V?$list@U?$pair@EV?$basic_string@DU?$char_traits@D@std@@V?$allocator@D@2@@std@@@std@@V?$allocator@U?$pair@EV?$basic_string@DU?$char_traits@D@std@@V?$allocator@D@2@@std@@@std@@@2@@2@@2@U_Kfn@?$map@V?$basic_string@DU?$char_traits@D@std@@V?$allocator@D@2@@std@@V?$list@U?$pair@EV?$basic_string@DU?$char_traits@D@std@@V?$allocator@D@2@@std@@@std@@V?$allocator@U?$pair@EV?$basic_string@DU?$char_traits@D@std@@V?$allocator@D@2@@std@@@std@@@2@@2@U_tstring_less@@V?$allocator@V?$list@U?$pair@EV?$basic_string@DU?$char_traits@D@std@@V?$allocator@D@2@@std@@@std@@V?$allocator@U?$pair@EV?$basic_string@DU?$char_traits@D@std@@V?$allocator@D@2@@std@@@std@@@2@@std@@@2@@2@U_tstring_less@@V?$allocator@V?$list@U?$pair@EV?$basic_string@DU?$char_traits@D@std@@V?$allocator@D@2@@std@@@std@@V?$allocator@U?$pair@EV?$basic_string@DU?$char_traits@D@std@@V?$allocator@D@2@@std@@@std@@@2@@std@@@2@@std@@1PAU_Node@12@A 004e98a0     FriendMgr.obj
 0003:0000b8a4       ?_Nilrefs@?$_Tree@V?$basic_string@DU?$char_traits@D@std@@V?$allocator@D@2@@std@@U?$pair@$$CBV?$basic_string@DU?$char_traits@D@std@@V?$allocator@D@2@@std@@V?$list@U?$pair@EV?$basic_string@DU?$char_traits@D@std@@V?$allocator@D@2@@std@@@std@@V?$allocator@U?$pair@EV?$basic_string@DU?$char_traits@D@std@@V?$allocator@D@2@@std@@@std@@@2@@2@@2@U_Kfn@?$map@V?$basic_string@DU?$char_traits@D@std@@V?$allocator@D@2@@std@@V?$list@U?$pair@EV?$basic_string@DU?$char_traits@D@std@@V?$allocator@D@2@@std@@@std@@V?$allocator@U?$pair@EV?$basic_string@DU?$char_traits@D@std@@V?$allocator@D@2@@std@@@std@@@2@@2@U_tstring_less@@V?$allocator@V?$list@U?$pair@EV?$basic_string@DU?$char_traits@D@std@@V?$allocator@D@2@@std@@@std@@V?$allocator@U?$pair@EV?$basic_string@DU?$char_traits@D@std@@V?$allocator@D@2@@std@@@std@@@2@@std@@@2@@2@U_tstring_less@@V?$allocator@V?$list@U?$pair@EV?$basic_string@DU?$char_traits@D@std@@V?$allocator@D@2@@std@@@std@@V?$allocator@U?$pair@EV?$basic_string@DU?$char_traits@D@std@@V?$allocator@D@2@@std@@@std@@@2@@std@@@2@@std@@1IA 004e98a4     FriendMgr.obj
 0003:0000b8a8       ?_Nilrefs@?$_Tree@V?$basic_string@DU?$char_traits@D@std@@V?$allocator@D@2@@std@@U?$pair@$$CBV?$basic_string@DU?$char_traits@D@std@@V?$allocator@D@2@@std@@UFRIENDINFO@CFriendMgr@@@2@U_Kfn@?$map@V?$basic_string@DU?$char_traits@D@std@@V?$allocator@D@2@@std@@UFRIENDINFO@CFriendMgr@@U_tstring_less@@V?$allocator@UFRIENDINFO@CFriendMgr@@@2@@2@U_tstring_less@@V?$allocator@UFRIENDINFO@CFriendMgr@@@2@@std@@1IA 004e98a8     FriendMgr.obj
 0003:0000b8ac       ?_Nil@?$_Tree@V?$basic_string@DU?$char_traits@D@std@@V?$allocator@D@2@@std@@U?$pair@$$CBV?$basic_string@DU?$char_traits@D@std@@V?$allocator@D@2@@std@@UFRIENDINFO@CFriendMgr@@@2@U_Kfn@?$map@V?$basic_string@DU?$char_traits@D@std@@V?$allocator@D@2@@std@@UFRIENDINFO@CFriendMgr@@U_tstring_less@@V?$allocator@UFRIENDINFO@CFriendMgr@@@2@@2@U_tstring_less@@V?$allocator@UFRIENDINFO@CFriendMgr@@@2@@std@@1PAU_Node@12@A 004e98ac     FriendMgr.obj
 0003:0000b8b0       ?_Nilrefs@?$_Tree@GU?$pair@$$CBGUASKWAYMAP@CGatewayClient@@@std@@U_Kfn@?$map@GUASKWAYMAP@CGatewayClient@@U?$less@G@std@@V?$allocator@UASKWAYMAP@CGatewayClient@@@4@@2@U?$less@G@2@V?$allocator@UASKWAYMAP@CGatewayClient@@@2@@std@@1IA 004e98b0     GatewayClient.obj
 0003:0000b8b4       ?_Nil@?$_Tree@GU?$pair@$$CBGUASKWAYMAP@CGatewayClient@@@std@@U_Kfn@?$map@GUASKWAYMAP@CGatewayClient@@U?$less@G@std@@V?$allocator@UASKWAYMAP@CGatewayClient@@@4@@2@U?$less@G@2@V?$allocator@UASKWAYMAP@CGatewayClient@@@2@@std@@1PAU_Node@12@A 004e98b4     GatewayClient.obj
 0003:0000b91c       ?pConnectDB@@3PAVS3PDBConVBC@@A 004e991c     Global.obj
 0003:0000b920       ?m_DatabaseInfo@@3Utag_DATABASEINFO@@A 004e9920     Global.obj
 0003:0000b960       ?g_cTongSet@@3VCTongSet@@A 004e9960     Global.obj
 0003:0000b970       ?g_FriendMgr@@3VCFriendMgr@@A 004e9970     Global.obj
 0003:0000bf10       ?g_ChannelMgr@@3VCChannelMgr@@A 004e9f10     Global.obj
 0003:0000c008       ?g_ChatServer@@3VCChatServer@@A 004ea008     Global.obj
 0003:0000c0b0       ?g_TongServer@@3VCTongServer@@A 004ea0b0     Global.obj
 0003:0000c158       ?g_HostServer@@3VCHostServer@@A 004ea158     Global.obj
 0003:0000c200       ?g_GatewayClient@@3VCGatewayClient@@A 004ea200     Global.obj
 0003:0000c278       ?g_GatewayCenter@@3VCGatewayCenter@@A 004ea278     Global.obj
 0003:0000c308       ?g_DBClient@@3VCDBClient@@A 004ea308     Global.obj
 0003:0000c350       ?g_DBCenter@@3VCDBCenter@@A 004ea350     Global.obj
 0003:0000c3e0       ?g_RootClient@@3VCRootClient@@A 004ea3e0     Global.obj
 0003:0000c430       ?g_RootCenter@@3VCRootCenter@@A 004ea430     Global.obj
 0003:0000c4c0       ?g_RelayServer@@3VCRelayServer@@A 004ea4c0     Global.obj
 0003:0000c568       ?g_RelayCenter@@3VCRelayCenter@@A 004ea568     Global.obj
 0003:0000c640       ?g_threadSock@@3VCSockThread@@A 004ea640     Global.obj
 0003:0000c658       ?g_libRainbow@@3VCRainbowLib@@A 004ea658     Global.obj
 0003:0000c668       ?g_libHeaven@@3VCHeavenLib@@A 004ea668     Global.obj
 0003:0000c674       ?g_memory@@3VCMemory@@A    004ea674     Global.obj
 0003:0000c6d8       ?_Nilrefs@?$_Tree@KU?$pair@$$CBKUPARAMINFO@CHostConnect@@@std@@U_Kfn@?$map@KUPARAMINFO@CHostConnect@@U?$less@K@std@@V?$allocator@UPARAMINFO@CHostConnect@@@4@@2@U?$less@K@2@V?$allocator@UPARAMINFO@CHostConnect@@@2@@std@@1IA 004ea6d8     HostConnect.obj
 0003:0000c6dc       ?_Nil@?$_Tree@KU?$pair@$$CBKUPARAMINFO@CHostConnect@@@std@@U_Kfn@?$map@KUPARAMINFO@CHostConnect@@U?$less@K@std@@V?$allocator@UPARAMINFO@CHostConnect@@@4@@2@U?$less@K@2@V?$allocator@UPARAMINFO@CHostConnect@@@2@@std@@1PAU_Node@12@A 004ea6dc     HostConnect.obj
 0003:0000c6e0       ?_Nilrefs@?$_Tree@V?$basic_string@DU?$char_traits@D@std@@V?$allocator@D@2@@std@@U?$pair@$$CBV?$basic_string@DU?$char_traits@D@std@@V?$allocator@D@2@@std@@UROLEINFO@CHostConnect@@@2@U_Kfn@?$map@V?$basic_string@DU?$char_traits@D@std@@V?$allocator@D@2@@std@@UROLEINFO@CHostConnect@@U_tstring_less@@V?$allocator@UROLEINFO@CHostConnect@@@2@@2@U_tstring_less@@V?$allocator@UROLEINFO@CHostConnect@@@2@@std@@1IA 004ea6e0     HostConnect.obj
 0003:0000c6e4       ?_Nil@?$_Tree@V?$basic_string@DU?$char_traits@D@std@@V?$allocator@D@2@@std@@U?$pair@$$CBV?$basic_string@DU?$char_traits@D@std@@V?$allocator@D@2@@std@@UROLEINFO@CHostConnect@@@2@U_Kfn@?$map@V?$basic_string@DU?$char_traits@D@std@@V?$allocator@D@2@@std@@UROLEINFO@CHostConnect@@U_tstring_less@@V?$allocator@UROLEINFO@CHostConnect@@@2@@2@U_tstring_less@@V?$allocator@UROLEINFO@CHostConnect@@@2@@std@@1PAU_Node@12@A 004ea6e4     HostConnect.obj
 0003:0000c6e8       ?_Nilrefs@?$_Tree@V?$basic_string@DU?$char_traits@D@std@@V?$allocator@D@2@@std@@U?$pair@$$CBV?$basic_string@DU?$char_traits@D@std@@V?$allocator@D@2@@std@@UACCINFO@CHostConnect@@@2@U_Kfn@?$map@V?$basic_string@DU?$char_traits@D@std@@V?$allocator@D@2@@std@@UACCINFO@CHostConnect@@U_tstring_iless@@V?$allocator@UACCINFO@CHostConnect@@@2@@2@U_tstring_iless@@V?$allocator@UACCINFO@CHostConnect@@@2@@std@@1IA 004ea6e8     HostConnect.obj
 0003:0000c6ec       ?_Nil@?$_Tree@V?$basic_string@DU?$char_traits@D@std@@V?$allocator@D@2@@std@@U?$pair@$$CBV?$basic_string@DU?$char_traits@D@std@@V?$allocator@D@2@@std@@UACCINFO@CHostConnect@@@2@U_Kfn@?$map@V?$basic_string@DU?$char_traits@D@std@@V?$allocator@D@2@@std@@UACCINFO@CHostConnect@@U_tstring_iless@@V?$allocator@UACCINFO@CHostConnect@@@2@@2@U_tstring_iless@@V?$allocator@UACCINFO@CHostConnect@@@2@@std@@1PAU_Node@12@A 004ea6ec     HostConnect.obj
 0003:0000c6f0       ?_Nilrefs@?$_Tree@KU?$pair@$$CBKPAVCHostConnect@@@std@@U_Kfn@?$map@KPAVCHostConnect@@U?$less@K@std@@V?$allocator@PAVCHostConnect@@@3@@2@U?$less@K@2@V?$allocator@PAVCHostConnect@@@2@@std@@1IA 004ea6f0     HostServer.obj
 0003:0000c6f4       ?_Nil@?$_Tree@KU?$pair@$$CBKPAVCHostConnect@@@std@@U_Kfn@?$map@KPAVCHostConnect@@U?$less@K@std@@V?$allocator@PAVCHostConnect@@@3@@2@U?$less@K@2@V?$allocator@PAVCHostConnect@@@2@@std@@1PAU_Node@12@A 004ea6f4     HostServer.obj
 0003:0000c6f8       ?_Nilrefs@?$_Tree@PAVCNetClient@@PAV1@U_Kfn@?$set@PAVCNetClient@@U?$less@PAVCNetClient@@@std@@V?$allocator@PAVCNetClient@@@3@@std@@U?$less@PAVCNetClient@@@4@V?$allocator@PAVCNetClient@@@4@@std@@1IA 004ea6f8     NetCenter.obj
 0003:0000c6fc       ?_Nil@?$_Tree@PAVCNetClient@@PAV1@U_Kfn@?$set@PAVCNetClient@@U?$less@PAVCNetClient@@@std@@V?$allocator@PAVCNetClient@@@3@@std@@U?$less@PAVCNetClient@@@4@V?$allocator@PAVCNetClient@@@4@@std@@1PAU_Node@12@A 004ea6fc     NetCenter.obj
 0003:0000c700       ?_Nilrefs@?$_Tree@KU?$pair@$$CBKPAVCNetConnect@@@std@@U_Kfn@?$map@KPAVCNetConnect@@U?$less@K@std@@V?$allocator@PAVCNetConnect@@@3@@2@U?$less@K@2@V?$allocator@PAVCNetConnect@@@2@@std@@1IA 004ea700     NetServer.obj
 0003:0000c704       ?_Nil@?$_Tree@KU?$pair@$$CBKPAVCNetConnect@@@std@@U_Kfn@?$map@KPAVCNetConnect@@U?$less@K@std@@V?$allocator@PAVCNetConnect@@@3@@2@U?$less@K@2@V?$allocator@PAVCNetConnect@@@2@@std@@1PAU_Node@12@A 004ea704     NetServer.obj
 0003:0000c708       ?_Nilrefs@?$_Tree@KU?$pair@$$CBKPAVCRelayClient@@@std@@U_Kfn@?$map@KPAVCRelayClient@@U?$less@K@std@@V?$allocator@PAVCRelayClient@@@3@@2@U?$less@K@2@V?$allocator@PAVCRelayClient@@@2@@std@@1IA 004ea708     RelayCenter.obj
 0003:0000c70c       ?_Nil@?$_Tree@KU?$pair@$$CBKPAVCRelayClient@@@std@@U_Kfn@?$map@KPAVCRelayClient@@U?$less@K@std@@V?$allocator@PAVCRelayClient@@@3@@2@U?$less@K@2@V?$allocator@PAVCRelayClient@@@2@@std@@1PAU_Node@12@A 004ea70c     RelayCenter.obj
 0003:0000c710       ?_Nilrefs@?$_Tree@KU?$pair@$$CBKPAVCRelayConnect@@@std@@U_Kfn@?$map@KPAVCRelayConnect@@U?$less@K@std@@V?$allocator@PAVCRelayConnect@@@3@@2@U?$less@K@2@V?$allocator@PAVCRelayConnect@@@2@@std@@1IA 004ea710     RelayServer.obj
 0003:0000c714       ?_Nil@?$_Tree@KU?$pair@$$CBKPAVCRelayConnect@@@std@@U_Kfn@?$map@KPAVCRelayConnect@@U?$less@K@std@@V?$allocator@PAVCRelayConnect@@@3@@2@U?$less@K@2@V?$allocator@PAVCRelayConnect@@@2@@std@@1PAU_Node@12@A 004ea714     RelayServer.obj
 0003:0000c720       ?g_TraceBuffer@@3VTwoFixBuffer@@A 004ea720     S3Relay.obj
 0003:0020c750       ?g_rootloginpswd@@3V?$basic_string@DU?$char_traits@D@std@@V?$allocator@D@2@@std@@A 006ea750     S3Relay.obj
 0003:0020c760       ?g_rootloginname@@3V?$basic_string@DU?$char_traits@D@std@@V?$allocator@D@2@@std@@A 006ea760     S3Relay.obj
 0003:0020c770       ?szWindowClass@@3PADA      006ea770     S3Relay.obj
 0003:0020c7d4       ?szTitle@@3PADA            006ea7d4     S3Relay.obj
 0003:0020c838       ?hInst@@3PAUHINSTANCE__@@A 006ea838     S3Relay.obj
 0003:0020c8a8       ?g_interrupt@@3HA          006ea8a8     S3Relay.obj
 0003:0020c8ac       ?g_mainwnd@@3PAUHWND__@@A  006ea8ac     S3Relay.obj
 0003:0020c8b0       ?g_listwnd@@3PAUHWND__@@A  006ea8b0     S3Relay.obj
 0003:0020c8b4       ?g_cnt@@3JA                006ea8b4     S3Relay.obj
 0003:0020c8b8       ?g_nShowTime@@3HA          006ea8b8     S3Relay.obj
 0003:0020c8bc       ?_Nilrefs@?$_Tree@KU?$pair@$$CBKPAVCTongConnect@@@std@@U_Kfn@?$map@KPAVCTongConnect@@U?$less@K@std@@V?$allocator@PAVCTongConnect@@@3@@2@U?$less@K@2@V?$allocator@PAVCTongConnect@@@2@@std@@1IA 006ea8bc     TongServer.obj
 0003:0020c8c0       ?_Nil@?$_Tree@KU?$pair@$$CBKPAVCTongConnect@@@std@@U_Kfn@?$map@KPAVCTongConnect@@U?$less@K@std@@V?$allocator@PAVCTongConnect@@@3@@2@U?$less@K@2@V?$allocator@PAVCTongConnect@@@2@@std@@1PAU_Node@12@A 006ea8c0     TongServer.obj
 0003:0020c8c8       ?g_cTongDB@@3VCTongDB@@A   006ea8c8     TONGDB.OBJ
 0003:0020cfe0       ___fastflag                006eafe0     LIBCMTD:fpinit.obj
 0003:0020cfe4       __adjust_fdiv              006eafe4     LIBCMTD:fpinit.obj
 0003:0020d018       __aenvptr                  006eb018     LIBCMTD:wincrt0.obj
 0003:0020d01c       __wenvptr                  006eb01c     LIBCMTD:wincrt0.obj
 0003:0020d020       ___error_mode              006eb020     LIBCMTD:wincrt0.obj
 0003:0020d090       __umaskval                 006eb090     LIBCMTD:crt0dat.obj
 0003:0020d094       __osver                    006eb094     LIBCMTD:crt0dat.obj
 0003:0020d098       __winver                   006eb098     LIBCMTD:crt0dat.obj
 0003:0020d09c       __winmajor                 006eb09c     LIBCMTD:crt0dat.obj
 0003:0020d0a0       __winminor                 006eb0a0     LIBCMTD:crt0dat.obj
 0003:0020d0a4       ___argc                    006eb0a4     LIBCMTD:crt0dat.obj
 0003:0020d0a8       ___argv                    006eb0a8     LIBCMTD:crt0dat.obj
 0003:0020d0ac       ___wargv                   006eb0ac     LIBCMTD:crt0dat.obj
 0003:0020d0b0       __environ                  006eb0b0     LIBCMTD:crt0dat.obj
 0003:0020d0b4       ___initenv                 006eb0b4     LIBCMTD:crt0dat.obj
 0003:0020d0b8       __wenviron                 006eb0b8     LIBCMTD:crt0dat.obj
 0003:0020d0bc       ___winitenv                006eb0bc     LIBCMTD:crt0dat.obj
 0003:0020d0c0       __pgmptr                   006eb0c0     LIBCMTD:crt0dat.obj
 0003:0020d0c4       __wpgmptr                  006eb0c4     LIBCMTD:crt0dat.obj
 0003:0020d0c8       __exitflag                 006eb0c8     LIBCMTD:crt0dat.obj
 0003:0020d0cc       __C_Termination_Done       006eb0cc     LIBCMTD:crt0dat.obj
 0003:0020d0d0       __C_Exit_Done              006eb0d0     LIBCMTD:crt0dat.obj
 0003:0020d0d8       __newmode                  006eb0d8     LIBCMTD:_newmode.obj
 0003:0020d0dc       ?_pnhHeap@@3P6AHI@ZA       006eb0dc     LIBCMTD:handler.obj
 0003:0020d0e0       __cflush                   006eb0e0     LIBCMTD:_file.obj
 0003:0020d0e4       __stdbuf                   006eb0e4     LIBCMTD:_sftbuf.obj
 0003:0020d2e4       __adbgmsg                  006eb2e4     LIBCMTD:crt0msg.obj
 0003:0020d308       ___lc_handle               006eb308     LIBCMTD:nlsdata2.obj
 0003:0020d320       ___lc_codepage             006eb320     LIBCMTD:nlsdata2.obj
 0003:0020d324       ___lc_collate_cp           006eb324     LIBCMTD:nlsdata2.obj
 0003:0020d32c       __commode                  006eb32c     LIBCMTD:ncommode.obj
 0003:0020d33c       __fmode                    006eb33c     LIBCMTD:txtmode.obj
 0003:0020d340       ___lc_time_intl            006eb340     LIBCMTD:inittime.obj
 0003:0020d35c       ___lc_id                   006eb35c     LIBCMTD:nlsdata3.obj
 0003:0020d3ac       ___lconv_static_null       006eb3ac     LIBCMTD:lconv.obj
 0003:0020d410       __GUID_00000000_0000_0000_0000_000000000000 006eb410     comsupp:comsupp.obj
 0003:0020d420       ?vtMissing@@3V_variant_t@@A 006eb420     comsupp:comutil.obj
 0003:0020d476       ??_B?1???id@?$ctype@G@std@@$D@@9@51 006eb476     <common>
 0003:0020d478       ___alternate_form          006eb478     <common>
 0003:0020d47c       ___no_lead_zeros           006eb47c     <common>
 0003:0020d480       ___setlc_active            006eb480     <common>
 0003:0020d484       ___unguarded_readlc_active 006eb484     <common>
 0003:0020d4a0       ___pioinfo                 006eb4a0     <common>
 0003:0020d5a0       __nhandle                  006eb5a0     <common>
 0003:0020d5a4       ___piob                    006eb5a4     <common>
 0003:0020d5c0       __bufin                    006eb5c0     <common>
 0003:0020e5c0       __nstream                  006ec5c0     <common>
 0003:0020e5c4       ___sbh_sizeHeaderList      006ec5c4     <common>
 0003:0020e5c8       ___sbh_indGroupDefer       006ec5c8     <common>
 0003:0020e5cc       ___sbh_pHeaderScan         006ec5cc     <common>
 0003:0020e5d0       ___sbh_pHeaderDefer        006ec5d0     <common>
 0003:0020e5d4       ___sbh_cntHeaderList       006ec5d4     <common>
 0003:0020e5d8       ___sbh_pHeaderList         006ec5d8     <common>
 0003:0020e5dc       __crtheap                  006ec5dc     <common>
 0003:0020e5e0       ___env_initialized         006ec5e0     <common>
 0003:0020e5e4       ___mbctype_initialized     006ec5e4     <common>
 0003:0020e5e8       ___onexitend               006ec5e8     <common>
 0003:0020e5ec       ___onexitbegin             006ec5ec     <common>
 0003:0020e5f0       ___mbcodepage              006ec5f0     <common>
 0003:0020e600       ___mbulinfo                006ec600     <common>
 0003:0020e60c       ___ismbcodepage            006ec60c     <common>
 0003:0020e620       __mbcasemap                006ec620     <common>
 0003:0020e720       __mbctype                  006ec720     <common>
 0003:0020e824       ___mblcid                  006ec824     <common>
 0003:0020e828       __pfnReportHook            006ec828     <common>
 0003:0020e82c       __acmdln                   006ec82c     <common>
 0003:0020e830       __pfnDumpClient            006ec830     <common>
 0003:0020e834       ??_B?1???id@?$collate@D@std@@$D@@9@51 006ec834     <common>

 entry point at        0001:00047520

 Static symbols

 0001:00041730       _$E55                      00442730 f   TONGDB.OBJ
 0001:00041740       _$E52                      00442740 f   TONGDB.OBJ
 0001:00041750       _$E54                      00442750 f   TONGDB.OBJ
 0001:00041760       _$E53                      00442760 f   TONGDB.OBJ
 0001:00042400       _$E62                      00443400 f   TONGDB.OBJ
 0001:00042420       _$E61                      00443420 f   TONGDB.OBJ
 0001:00041700       _$E57                      00442700 f   KTongSet.obj
 0001:00041720       _$E56                      00442720 f   KTongSet.obj
 0001:0003f810       _$E57                      00440810 f   KTongControl.obj
 0001:0003f830       _$E56                      00440830 f   KTongControl.obj
 0001:00038190       _$E23                      00439190 f   TongServer.obj
 0001:000381b0       _$E22                      004391b0 f   TongServer.obj
 0001:00036bc0       _$E57                      00437bc0 f   TongConnect.obj
 0001:00036be0       _$E56                      00437be0 f   TongConnect.obj
 0001:00033f60       _$E19                      00434f60 f   StdAfx.obj
 0001:00033f80       _$E18                      00434f80 f   StdAfx.obj
 0001:00033f30       _$E57                      00434f30 f   SockThread.obj
 0001:00033f50       _$E56                      00434f50 f   SockThread.obj
 0001:00032460       _$E55                      00433460 f   S3Relay.obj
 0001:00032470       _$E52                      00433470 f   S3Relay.obj
 0001:00032480       _$E54                      00433480 f   S3Relay.obj
 0001:00032490       _$E53                      00433490 f   S3Relay.obj
 0001:000324a0       _$E60                      004334a0 f   S3Relay.obj
 0001:000324b0       _$E57                      004334b0 f   S3Relay.obj
 0001:000324c0       _$E59                      004334c0 f   S3Relay.obj
 0001:000324d0       _$E58                      004334d0 f   S3Relay.obj
 0001:000324e0       _$E65                      004334e0 f   S3Relay.obj
 0001:000324f0       _$E62                      004334f0 f   S3Relay.obj
 0001:00032500       _$E64                      00433500 f   S3Relay.obj
 0001:00032510       _$E63                      00433510 f   S3Relay.obj
 0001:000325e0       _$E70                      004335e0 f   S3Relay.obj
 0001:000325f0       _$E67                      004335f0 f   S3Relay.obj
 0001:00032610       _$E69                      00433610 f   S3Relay.obj
 0001:00032620       _$E68                      00433620 f   S3Relay.obj
 0001:00032670       _$E75                      00433670 f   S3Relay.obj
 0001:00032680       _$E72                      00433680 f   S3Relay.obj
 0001:000326a0       _$E74                      004336a0 f   S3Relay.obj
 0001:000326b0       _$E73                      004336b0 f   S3Relay.obj
 0001:00032a00       _$E80                      00433a00 f   S3Relay.obj
 0001:00032a10       _$E77                      00433a10 f   S3Relay.obj
 0001:00032a50       _$E79                      00433a50 f   S3Relay.obj
 0001:00032a60       _$E78                      00433a60 f   S3Relay.obj
 0001:00033c70       _$E87                      00434c70 f   S3Relay.obj
 0001:00033c90       _$E86                      00434c90 f   S3Relay.obj
 0001:00032430       _$E19                      00433430 f   S3PResultVBC.obj
 0001:00032450       _$E18                      00433450 f   S3PResultVBC.obj
 0001:000323c0       _$E19                      004333c0 f   S3PDBConVBC.obj
 0001:000323e0       _$E18                      004333e0 f   S3PDBConVBC.obj
 0001:00032370       _$E19                      00433370 f   S3PDB_MSSQLServer_Connection.obj
 0001:00032390       _$E18                      00433390 f   S3PDB_MSSQLServer_Connection.obj
 0001:00030a60       _$E19                      00431a60 f   S3P_MSSQLServer_Result.obj
 0001:00030a80       _$E18                      00431a80 f   S3P_MSSQLServer_Result.obj
 0001:00030360       _$E57                      00431360 f   RootClient.obj
 0001:00030380       _$E56                      00431380 f   RootClient.obj
 0001:0002f6b0       _$E57                      004306b0 f   RootCenter.obj
 0001:0002f6d0       _$E56                      004306d0 f   RootCenter.obj
 0001:0002f430       _$E23                      00430430 f   RelayServer.obj
 0001:0002f450       _$E22                      00430450 f   RelayServer.obj
 0001:0002de70       _$E57                      0042ee70 f   RelayConnect.obj
 0001:0002de90       _$E56                      0042ee90 f   RelayConnect.obj
 0001:0002dd70       _$E57                      0042ed70 f   RelayClient.obj
 0001:0002dd90       _$E56                      0042ed90 f   RelayClient.obj
 0001:0002dc40       _$E23                      0042ec40 f   RelayCenter.obj
 0001:0002dc60       _$E22                      0042ec60 f   RelayCenter.obj
 0001:0002c6f0       _$E19                      0042d6f0 f   RainbowLib.obj
 0001:0002c710       _$E18                      0042d710 f   RainbowLib.obj
 0001:0002c5e0       _$E19                      0042d5e0 f   NetSockDupEx.obj
 0001:0002c600       _$E18                      0042d600 f   NetSockDupEx.obj
 0001:0002c190       _$E57                      0042d190 f   NetServer.obj
 0001:0002c1b0       _$E56                      0042d1b0 f   NetServer.obj
 0001:0002a930       _$E57                      0042b930 f   NetConnect.obj
 0001:0002a950       _$E56                      0042b950 f   NetConnect.obj
 0001:0002a520       _$E57                      0042b520 f   NetClient.obj
 0001:0002a540       _$E56                      0042b540 f   NetClient.obj
 0001:00029d10       _$E21                      0042ad10 f   NetCenter.obj
 0001:00029d30       _$E20                      0042ad30 f   NetCenter.obj
 0001:00028920       _$E19                      00429920 f   Memory.obj
 0001:00028940       _$E18                      00429940 f   Memory.obj
 0001:00028820       _$E19                      00429820 f   LogFile.obj
 0001:00028840       _$E18                      00429840 f   LogFile.obj
 0001:00027c60       _$E19                      00428c60 f   Lock.obj
 0001:00027c80       _$E18                      00428c80 f   Lock.obj
 0001:00027a40       _$E19                      00428a40 f   KThread.obj
 0001:00027a60       _$E18                      00428a60 f   KThread.obj
 0001:00027810       _$E29                      00428810 f   HostServer.obj
 0001:00027830       _$E28                      00428830 f   HostServer.obj
 0001:00025be0       _$E57                      00426be0 f   HostConnect.obj
 0001:00025c00       _$E56                      00426c00 f   HostConnect.obj
 0001:000207e0       _$E19                      004217e0 f   HeavenLib.obj
 0001:00020800       _$E18                      00421800 f   HeavenLib.obj
 0001:0001f860       _$E17                      00420860 f   GlobalFun.obj
 0001:0001f870       _$E14                      00420870 f   GlobalFun.obj
 0001:0001f880       _$E16                      00420880 f   GlobalFun.obj
 0001:0001f890       _$E15                      00420890 f   GlobalFun.obj
 0001:0001f8a0       _$E20                      004208a0 f   GlobalFun.obj
 0001:0001f8b0       _$E19                      004208b0 f   GlobalFun.obj
 0001:0001f8d0       _$E23                      004208d0 f   GlobalFun.obj
 0001:0001f8e0       _$E22                      004208e0 f   GlobalFun.obj
 0001:0001f900       _$E26                      00420900 f   GlobalFun.obj
 0001:0001f910       _$E25                      00420910 f   GlobalFun.obj
 0001:0001f930       _$E29                      00420930 f   GlobalFun.obj
 0001:0001f940       _$E28                      00420940 f   GlobalFun.obj
 0001:0001f960       _$E32                      00420960 f   GlobalFun.obj
 0001:0001f970       _$E31                      00420970 f   GlobalFun.obj
 0001:0001f990       _$E35                      00420990 f   GlobalFun.obj
 0001:0001f9a0       _$E34                      004209a0 f   GlobalFun.obj
 0001:0001f9c0       _$E38                      004209c0 f   GlobalFun.obj
 0001:0001f9d0       _$E37                      004209d0 f   GlobalFun.obj
 0001:0001f9f0       _$E41                      004209f0 f   GlobalFun.obj
 0001:0001fa00       _$E40                      00420a00 f   GlobalFun.obj
 0001:0001fa20       _$E44                      00420a20 f   GlobalFun.obj
 0001:0001fa30       _$E43                      00420a30 f   GlobalFun.obj
 0001:0001ff60       ?IsEnterKey@@YAHPBDPAH@Z   00420f60 f   GlobalFun.obj
 0001:00020000       ?GetFirstLineLen@@YAJPBD@Z 00421000 f   GlobalFun.obj
 0001:00020090       ?GetPrivateProfileKeyPos@@YAHPBD00AAJ1@Z 00421090 f   GlobalFun.obj
 0001:00020240       ?GetStrInStrPos@@YAHPBD0AAJ@Z 00421240 f   GlobalFun.obj
 0001:000202b0       ?GetKeyValue@@YAPADPBDAAJ@Z 004212b0 f   GlobalFun.obj
 0001:000206d0       _$E51                      004216d0 f   GlobalFun.obj
 0001:000206f0       _$E50                      004216f0 f   GlobalFun.obj
 0001:0001c820       _$E55                      0041d820 f   Global.obj
 0001:0001c830       _$E52                      0041d830 f   Global.obj
 0001:0001c840       _$E54                      0041d840 f   Global.obj
 0001:0001c850       _$E53                      0041d850 f   Global.obj
 0001:0001c860       _$E60                      0041d860 f   Global.obj
 0001:0001c870       _$E57                      0041d870 f   Global.obj
 0001:0001c880       _$E59                      0041d880 f   Global.obj
 0001:0001c890       _$E58                      0041d890 f   Global.obj
 0001:0001c8a0       _$E65                      0041d8a0 f   Global.obj
 0001:0001c8b0       _$E62                      0041d8b0 f   Global.obj
 0001:0001c8c0       _$E64                      0041d8c0 f   Global.obj
 0001:0001c8d0       _$E63                      0041d8d0 f   Global.obj
 0001:0001c8e0       _$E70                      0041d8e0 f   Global.obj
 0001:0001c8f0       _$E67                      0041d8f0 f   Global.obj
 0001:0001c900       _$E69                      0041d900 f   Global.obj
 0001:0001c910       _$E68                      0041d910 f   Global.obj
 0001:0001c920       _$E75                      0041d920 f   Global.obj
 0001:0001c930       _$E72                      0041d930 f   Global.obj
 0001:0001c940       _$E74                      0041d940 f   Global.obj
 0001:0001c950       _$E73                      0041d950 f   Global.obj
 0001:0001c960       _$E80                      0041d960 f   Global.obj
 0001:0001c970       _$E77                      0041d970 f   Global.obj
 0001:0001c980       _$E79                      0041d980 f   Global.obj
 0001:0001c990       _$E78                      0041d990 f   Global.obj
 0001:0001c9a0       _$E85                      0041d9a0 f   Global.obj
 0001:0001c9b0       _$E82                      0041d9b0 f   Global.obj
 0001:0001c9c0       _$E84                      0041d9c0 f   Global.obj
 0001:0001c9d0       _$E83                      0041d9d0 f   Global.obj
 0001:0001c9e0       _$E90                      0041d9e0 f   Global.obj
 0001:0001c9f0       _$E87                      0041d9f0 f   Global.obj
 0001:0001ca10       _$E89                      0041da10 f   Global.obj
 0001:0001ca20       _$E88                      0041da20 f   Global.obj
 0001:0001ca30       _$E95                      0041da30 f   Global.obj
 0001:0001ca40       _$E92                      0041da40 f   Global.obj
 0001:0001ca50       _$E94                      0041da50 f   Global.obj
 0001:0001ca60       _$E93                      0041da60 f   Global.obj
 0001:0001ca70       _$E100                     0041da70 f   Global.obj
 0001:0001ca80       _$E97                      0041da80 f   Global.obj
 0001:0001caa0       _$E99                      0041daa0 f   Global.obj
 0001:0001cab0       _$E98                      0041dab0 f   Global.obj
 0001:0001cac0       _$E105                     0041dac0 f   Global.obj
 0001:0001cad0       _$E102                     0041dad0 f   Global.obj
 0001:0001cae0       _$E104                     0041dae0 f   Global.obj
 0001:0001caf0       _$E103                     0041daf0 f   Global.obj
 0001:0001cb00       _$E110                     0041db00 f   Global.obj
 0001:0001cb10       _$E107                     0041db10 f   Global.obj
 0001:0001cb30       _$E109                     0041db30 f   Global.obj
 0001:0001cb40       _$E108                     0041db40 f   Global.obj
 0001:0001cb50       _$E115                     0041db50 f   Global.obj
 0001:0001cb60       _$E112                     0041db60 f   Global.obj
 0001:0001cb70       _$E114                     0041db70 f   Global.obj
 0001:0001cb80       _$E113                     0041db80 f   Global.obj
 0001:0001cb90       _$E120                     0041db90 f   Global.obj
 0001:0001cba0       _$E117                     0041dba0 f   Global.obj
 0001:0001cbb0       _$E119                     0041dbb0 f   Global.obj
 0001:0001cbc0       _$E118                     0041dbc0 f   Global.obj
 0001:0001cbd0       _$E125                     0041dbd0 f   Global.obj
 0001:0001cbe0       _$E122                     0041dbe0 f   Global.obj
 0001:0001cbf0       _$E124                     0041dbf0 f   Global.obj
 0001:0001cc00       _$E123                     0041dc00 f   Global.obj
 0001:0001cc10       _$E130                     0041dc10 f   Global.obj
 0001:0001cc20       _$E127                     0041dc20 f   Global.obj
 0001:0001cc30       _$E129                     0041dc30 f   Global.obj
 0001:0001cc40       _$E128                     0041dc40 f   Global.obj
 0001:0001cc50       _$E135                     0041dc50 f   Global.obj
 0001:0001cc60       _$E132                     0041dc60 f   Global.obj
 0001:0001cc70       _$E134                     0041dc70 f   Global.obj
 0001:0001cc80       _$E133                     0041dc80 f   Global.obj
 0001:0001cc90       _$E140                     0041dc90 f   Global.obj
 0001:0001cca0       _$E137                     0041dca0 f   Global.obj
 0001:0001ccb0       _$E139                     0041dcb0 f   Global.obj
 0001:0001ccc0       _$E138                     0041dcc0 f   Global.obj
 0001:0001ccd0       _$E145                     0041dcd0 f   Global.obj
 0001:0001cce0       _$E142                     0041dce0 f   Global.obj
 0001:0001ccf0       _$E144                     0041dcf0 f   Global.obj
 0001:0001cd00       _$E143                     0041dd00 f   Global.obj
 0001:0001d0b0       _$E148                     0041e0b0 f   Global.obj
 0001:0001d640       _$E150                     0041e640 f   Global.obj
 0001:0001d890       _$E152                     0041e890 f   Global.obj
 0001:0001e7d0       _$E154                     0041f7d0 f   Global.obj
 0001:0001e9f0       _$E156                     0041f9f0 f   Global.obj
 0001:0001f830       _$E162                     00420830 f   Global.obj
 0001:0001f850       _$E161                     00420850 f   Global.obj
 0001:0001c7f0       _$E57                      0041d7f0 f   GatewayClient.obj
 0001:0001c810       _$E56                      0041d810 f   GatewayClient.obj
 0001:0001b270       _$E57                      0041c270 f   GatewayCenter.obj
 0001:0001b290       _$E56                      0041c290 f   GatewayCenter.obj
 0001:0000f4e0       _$E55                      004104e0 f   FriendMgr.obj
 0001:0000f4f0       _$E52                      004104f0 f   FriendMgr.obj
 0001:0000f520       _$E54                      00410520 f   FriendMgr.obj
 0001:0000f530       _$E53                      00410530 f   FriendMgr.obj
 0001:0000f580       _$E60                      00410580 f   FriendMgr.obj
 0001:0000f590       _$E57                      00410590 f   FriendMgr.obj
 0001:0000f5c0       _$E59                      004105c0 f   FriendMgr.obj
 0001:0000f5d0       _$E58                      004105d0 f   FriendMgr.obj
 0001:0001aff0       _$E71                      0041bff0 f   FriendMgr.obj
 0001:0001b010       _$E70                      0041c010 f   FriendMgr.obj
 0001:0000efe0       _$E55                      0040ffe0 f   DoScript.obj
 0001:0000eff0       _$E52                      0040fff0 f   DoScript.obj
 0001:0000f000       _$E54                      00410000 f   DoScript.obj
 0001:0000f010       _$E53                      00410010 f   DoScript.obj
 0001:0000f4b0       _$E62                      004104b0 f   DoScript.obj
 0001:0000f4d0       _$E61                      004104d0 f   DoScript.obj
 0001:0000eda0       _$E57                      0040fda0 f   DealRelay.obj
 0001:0000edc0       _$E56                      0040fdc0 f   DealRelay.obj
 0001:0000e630       _$E19                      0040f630 f   DBTable.obj
 0001:0000e650       _$E18                      0040f650 f   DBTable.obj
 0001:0000d670       _$E57                      0040e670 f   DBConnect.obj
 0001:0000d690       _$E56                      0040e690 f   DBConnect.obj
 0001:0000d1d0       _$E23                      0040e1d0 f   ChatServer.obj
 0001:0000d1f0       _$E22                      0040e1f0 f   ChatServer.obj
 0001:0000bbe0       _$E57                      0040cbe0 f   ChatConnect.obj
 0001:0000bc00       _$E56                      0040cc00 f   ChatConnect.obj
 0001:0000b930       _$E57                      0040c930 f   ChannelMgr.obj
 0001:0000b950       _$E56                      0040c950 f   ChannelMgr.obj
 0001:000cbfe0       MORE32                     004ccfe0 f   LIBCMTD:llshl.obj
 0001:000cbfea       RETZERO                    004ccfea f   LIBCMTD:llshl.obj
 0001:000cb9c0       _store_dt                  004cc9c0 f   LIBCMTD:asctime.obj
 0001:000cb6e0       __hextodec                 004cc6e0 f   LIBCMTD:input.obj
 0001:000cb740       __inc                      004cc740 f   LIBCMTD:input.obj
 0001:000cb7a0       __un_inc                   004cc7a0 f   LIBCMTD:input.obj
 0001:000cb7c0       __whiteout                 004cc7c0 f   LIBCMTD:input.obj
 0001:000c9bd0       MORE32                     004cabd0 f   LIBCMTD:ullshr.obj
 0001:000c9bda       RETZERO                    004cabda f   LIBCMTD:ullshr.obj
 0001:000c9730       _shortsort                 004ca730 f   LIBCMTD:qsort.obj
 0001:000c97a0       _swap                      004ca7a0 f   LIBCMTD:qsort.obj
 0001:0005b700       _findenv                   0045c700 f   LIBCMTD:setenv.obj
 0001:0005b780       _copy_environ              0045c780 f   LIBCMTD:setenv.obj
 0001:0005b3d0       _strncnt                   0045c3d0 f   LIBCMTD:a_cmp.obj
 0001:0005aeec       lupe                       0045beec f   LIBCMTD:strnicmp.obj
 0001:0005af04       skip1                      0045bf04 f   LIBCMTD:strnicmp.obj
 0001:0005af0e       skip2                      0045bf0e f   LIBCMTD:strnicmp.obj
 0001:0005af15       eject                      0045bf15 f   LIBCMTD:strnicmp.obj
 0001:0005af1f       differ                     0045bf1f f   LIBCMTD:strnicmp.obj
 0001:0005af31       notclocale                 0045bf31 f   LIBCMTD:strnicmp.obj
 0001:0005af45       do_lock                    0045bf45 f   LIBCMTD:strnicmp.obj
 0001:0005af5e       end_lock                   0045bf5e f   LIBCMTD:strnicmp.obj
 0001:0005af64       lupe2                      0045bf64 f   LIBCMTD:strnicmp.obj
 0001:0005af8f       eject2                     0045bf8f f   LIBCMTD:strnicmp.obj
 0001:0005af95       differ2                    0045bf95 f   LIBCMTD:strnicmp.obj
 0001:0005af9e       toend2                     0045bf9e f   LIBCMTD:strnicmp.obj
 0001:0005afac       do_unlock                  0045bfac f   LIBCMTD:strnicmp.obj
 0001:0005afba       end_unlock                 0045bfba f   LIBCMTD:strnicmp.obj
 0001:0005afba       toend                      0045bfba f   LIBCMTD:strnicmp.obj
 0001:00059cc0       __expandtime               0045acc0 f   LIBCMTD:strftime.obj
 0001:0005a2e0       __store_str                0045b2e0 f   LIBCMTD:strftime.obj
 0001:0005a330       __store_num                0045b330 f   LIBCMTD:strftime.obj
 0001:0005a3e0       __store_number             0045b3e0 f   LIBCMTD:strftime.obj
 0001:0005a490       __store_winword            0045b490 f   LIBCMTD:strftime.obj
 0001:00058240       _TranslateName             00459240 f   LIBCMTD:getqloc.obj
 0001:000582d0       _GetLcidFromLangCountry    004592d0 f   LIBCMTD:getqloc.obj
 0001:00058390       _LangCountryEnumProc@4     00459390 f   LIBCMTD:getqloc.obj
 0001:000586c0       _GetLcidFromLanguage       004596c0 f   LIBCMTD:getqloc.obj
 0001:00058740       _LanguageEnumProc@4        00459740 f   LIBCMTD:getqloc.obj
 0001:00058860       _GetLcidFromCountry        00459860 f   LIBCMTD:getqloc.obj
 0001:000588b0       _CountryEnumProc@4         004598b0 f   LIBCMTD:getqloc.obj
 0001:00058960       _GetLcidFromDefault        00459960 f   LIBCMTD:getqloc.obj
 0001:00058990       _ProcessCodePage           00459990 f   LIBCMTD:getqloc.obj
 0001:00058a30       _TestDefaultCountry        00459a30 f   LIBCMTD:getqloc.obj
 0001:00058a80       _TestDefaultLanguage       00459a80 f   LIBCMTD:getqloc.obj
 0001:00058b10       _IsThisWindowsNT           00459b10 f   LIBCMTD:getqloc.obj
 0001:00058b60       _crtGetLocaleInfoA@16      00459b60 f   LIBCMTD:getqloc.obj
 0001:00058cf0       _LcidFromHexString         00459cf0 f   LIBCMTD:getqloc.obj
 0001:00058d70       _GetPrimaryLen             00459d70 f   LIBCMTD:getqloc.obj
 0001:00058014       listnext                   00459014 f   LIBCMTD:strpbrk.obj
 0001:00058021       listdone                   00459021 f   LIBCMTD:strpbrk.obj
 0001:00058024       dstnext                    00459024 f   LIBCMTD:strpbrk.obj
 0001:00058034       dstdone                    00459034 f   LIBCMTD:strpbrk.obj
 0001:00057fd4       listnext                   00458fd4 f   LIBCMTD:strcspn.obj
 0001:00057fe1       listdone                   00458fe1 f   LIBCMTD:strcspn.obj
 0001:00057fe8       dstnext                    00458fe8 f   LIBCMTD:strcspn.obj
 0001:00057ff6       dstdone                    00458ff6 f   LIBCMTD:strcspn.obj
 0001:000578e0       __get_lc_lconv             004588e0 f   LIBCMTD:initmon.obj
 0001:00057af0       _fix_grouping              00458af0 f   LIBCMTD:initmon.obj
 0001:00057b70       __free_lc_lconv            00458b70 f   LIBCMTD:initmon.obj
 0001:00057730       _fix_grouping              00458730 f   LIBCMTD:initnum.obj
 0001:00056be0       __get_lc_time              00457be0 f   LIBCMTD:inittime.obj
 0001:00057170       __free_lc_time             00458170 f   LIBCMTD:inittime.obj
 0001:00055440       _x_ismbbtype               00456440 f   LIBCMTD:ismbbyte.obj
 0001:00054b60       __setlocale_set_cat        00455b60 f   LIBCMTD:setlocal.obj
 0001:00054d00       __setlocale_get_all        00455d00 f   LIBCMTD:setlocal.obj
 0001:000529f0       __abstract_cw              004539f0 f   LIBCMTD:ieee87.obj
 0001:00052b70       __hw_cw                    00453b70 f   LIBCMTD:ieee87.obj
 0001:00052cd0       __abstract_sw              00453cd0 f   LIBCMTD:ieee87.obj
 0001:000520d0       _ctrlevent_capture@4       004530d0 f   LIBCMTD:winsig.obj
 0001:000523b0       _siglookup                 004533b0 f   LIBCMTD:winsig.obj
 0001:00051ccd       dest_misaligned            00452ccd f   LIBCMTD:strcat.obj
 0001:00051cdc       find_end_of_dest_string_loop 00452cdc f   LIBCMTD:strcat.obj
 0001:00051d0f       start_byte_3               00452d0f f   LIBCMTD:strcat.obj
 0001:00051d14       start_byte_2               00452d14 f   LIBCMTD:strcat.obj
 0001:00051d19       start_byte_1               00452d19 f   LIBCMTD:strcat.obj
 0001:00051d1e       start_byte_0               00452d1e f   LIBCMTD:strcat.obj
 0001:00051d2d       src_misaligned             00452d2d f   LIBCMTD:strcat.obj
 0001:00051d41       main_loop                  00452d41 f   LIBCMTD:strcat.obj
 0001:00051d46       main_loop_entrance         00452d46 f   LIBCMTD:strcat.obj
 0001:00051d7a       byte_3                     00452d7a f   LIBCMTD:strcat.obj
 0001:00051d82       byte_2                     00452d82 f   LIBCMTD:strcat.obj
 0001:00051d8f       byte_1                     00452d8f f   LIBCMTD:strcat.obj
 0001:00051d98       byte_0                     00452d98 f   LIBCMTD:strcat.obj
 0001:00051d21       copy_start                 00452d21 f   LIBCMTD:strcat.obj
 0001:00051b3c       str_misaligned             00452b3c f   LIBCMTD:strlen.obj
 0001:00051b50       main_loop                  00452b50 f   LIBCMTD:strlen.obj
 0001:00051b83       byte_3                     00452b83 f   LIBCMTD:strlen.obj
 0001:00051b8d       byte_2                     00452b8d f   LIBCMTD:strlen.obj
 0001:00051b97       byte_1                     00452b97 f   LIBCMTD:strlen.obj
 0001:00051ba1       byte_0                     00452ba1 f   LIBCMTD:strlen.obj
 0001:000511d0       _parse_cmdline             004521d0 f   LIBCMTD:stdargv.obj
 0001:00050310       __tzset_lk                 00451310 f   LIBCMTD:tzset.obj
 0001:000506f0       __isindst_lk               004516f0 f   LIBCMTD:tzset.obj
 0001:000509f0       _cvtdate                   004519f0 f   LIBCMTD:tzset.obj
 0001:000500d0       _xcptlookup                004510d0 f   LIBCMTD:winxfltr.obj
 0001:0004fe5c       chk_null                   00450e5c f   LIBCMTD:stricmp.obj
 0001:0004fe8e       done                       00450e8e f   LIBCMTD:stricmp.obj
 0001:0004fe93       notclocale                 00450e93 f   LIBCMTD:stricmp.obj
 0001:0004fea7       do_lock                    00450ea7 f   LIBCMTD:stricmp.obj
 0001:0004febc       end_lock                   00450ebc f   LIBCMTD:stricmp.obj
 0001:0004fec4       chk_null2                  00450ec4 f   LIBCMTD:stricmp.obj
 0001:0004feef       done2                      00450eef f   LIBCMTD:stricmp.obj
 0001:0004feff       do_unlock                  00450eff f   LIBCMTD:stricmp.obj
 0001:0004ff09       end_unlock                 00450f09 f   LIBCMTD:stricmp.obj
 0001:0004ff0b       doret                      00450f0b f   LIBCMTD:stricmp.obj
 0001:0004fdf0       _strncnt                   00450df0 f   LIBCMTD:a_map.obj
 0001:0004f8ba       okay                       004508ba f   LIBCMTD:strncmp.obj
 0001:0004f8cd       firstbig                   004508cd f   LIBCMTD:strncmp.obj
 0001:0004f8cf       lastbig                    004508cf f   LIBCMTD:strncmp.obj
 0001:0004f8d1       toend                      004508d1 f   LIBCMTD:strncmp.obj
 0001:0004e240       LeadUp1                    0044f240 f   LIBCMTD:memcpy.obj
 0001:0004e26c       LeadUp2                    0044f26c f   LIBCMTD:memcpy.obj
 0001:0004e290       LeadUp3                    0044f290 f   LIBCMTD:memcpy.obj
 0001:0004e30f       UnwindUp0                  0044f30f f   LIBCMTD:memcpy.obj
 0001:0004e2fc       UnwindUp1                  0044f2fc f   LIBCMTD:memcpy.obj
 0001:0004e2f4       UnwindUp2                  0044f2f4 f   LIBCMTD:memcpy.obj
 0001:0004e2ec       UnwindUp3                  0044f2ec f   LIBCMTD:memcpy.obj
 0001:0004e2e4       UnwindUp4                  0044f2e4 f   LIBCMTD:memcpy.obj
 0001:0004e2dc       UnwindUp5                  0044f2dc f   LIBCMTD:memcpy.obj
 0001:0004e2d4       UnwindUp6                  0044f2d4 f   LIBCMTD:memcpy.obj
 0001:0004e2cc       UnwindUp7                  0044f2cc f   LIBCMTD:memcpy.obj
 0001:0004e328       TrailUp0                   0044f328 f   LIBCMTD:memcpy.obj
 0001:0004e330       TrailUp1                   0044f330 f   LIBCMTD:memcpy.obj
 0001:0004e33c       TrailUp2                   0044f33c f   LIBCMTD:memcpy.obj
 0001:0004e350       TrailUp3                   0044f350 f   LIBCMTD:memcpy.obj
 0001:0004e3c8       LeadDown1                  0044f3c8 f   LIBCMTD:memcpy.obj
 0001:0004e3e8       LeadDown2                  0044f3e8 f   LIBCMTD:memcpy.obj
 0001:0004e410       LeadDown3                  0044f410 f   LIBCMTD:memcpy.obj
 0001:0004e464       UnwindDown7                0044f464 f   LIBCMTD:memcpy.obj
 0001:0004e46c       UnwindDown6                0044f46c f   LIBCMTD:memcpy.obj
 0001:0004e474       UnwindDown5                0044f474 f   LIBCMTD:memcpy.obj
 0001:0004e47c       UnwindDown4                0044f47c f   LIBCMTD:memcpy.obj
 0001:0004e484       UnwindDown3                0044f484 f   LIBCMTD:memcpy.obj
 0001:0004e48c       UnwindDown2                0044f48c f   LIBCMTD:memcpy.obj
 0001:0004e494       UnwindDown1                0044f494 f   LIBCMTD:memcpy.obj
 0001:0004e4a7       UnwindDown0                0044f4a7 f   LIBCMTD:memcpy.obj
 0001:0004e4c0       TrailDown0                 0044f4c0 f   LIBCMTD:memcpy.obj
 0001:0004e4c8       TrailDown1                 0044f4c8 f   LIBCMTD:memcpy.obj
 0001:0004e4d8       TrailDown2                 0044f4d8 f   LIBCMTD:memcpy.obj
 0001:0004e4ec       TrailDown3                 0044f4ec f   LIBCMTD:memcpy.obj
 0001:0004e1f0       CopyUp                     0044f1f0 f   LIBCMTD:memcpy.obj
 0001:0004e20c       CopyLeadUp                 0044f20c f   LIBCMTD:memcpy.obj
 0001:0004e224       ByteCopyUp                 0044f224 f   LIBCMTD:memcpy.obj
 0001:0004e22c       CopyUnwindUp               0044f22c f   LIBCMTD:memcpy.obj
 0001:0004e368       CopyDown                   0044f368 f   LIBCMTD:memcpy.obj
 0001:0004e390       CopyUnwindDown             0044f390 f   LIBCMTD:memcpy.obj
 0001:0004e39c       CopyLeadDown               0044f39c f   LIBCMTD:memcpy.obj
 0001:0004e3b4       ByteCopyDown               0044f3b4 f   LIBCMTD:memcpy.obj
 0001:0004e090       _flsall                    0044f090 f   LIBCMTD:fflush.obj
 0001:0004d9d1       returndi                   0044e9d1 f   LIBCMTD:strrchr.obj
 0001:0004d9d3       toend                      0044e9d3 f   LIBCMTD:strrchr.obj
 0001:0004b743       adjust_loop                0044c743 f   LIBCMTD:memset.obj
 0001:0004b749       dwords                     0044c749 f   LIBCMTD:memset.obj
 0001:0004b763       main_loop_tail             0044c763 f   LIBCMTD:memset.obj
 0001:0004b767       tail                       0044c767 f   LIBCMTD:memset.obj
 0001:0004b76d       finish                     0044c76d f   LIBCMTD:memset.obj
 0001:0004b773       toend                      0044c773 f   LIBCMTD:memset.obj
 0001:0004b210       __cftoe2                   0044c210 f   LIBCMTD:cvt.obj
 0001:0004b3f0       __cftof2                   0044c3f0 f   LIBCMTD:cvt.obj
 0001:0004b680       __shift                    0044c680 f   LIBCMTD:cvt.obj
 0001:0004ad40       _write_char                0044bd40 f   LIBCMTD:output.obj
 0001:0004adc0       _write_multi_char          0044bdc0 f   LIBCMTD:output.obj
 0001:0004ae00       _write_string              0044be00 f   LIBCMTD:output.obj
 0001:0004ae50       _get_int_arg               0044be50 f   LIBCMTD:output.obj
 0001:0004ae70       _get_int64_arg             0044be70 f   LIBCMTD:output.obj
 0001:0004ae90       _get_short_arg             0044be90 f   LIBCMTD:output.obj
 0001:00049c50       _doexit                    0044ac50 f   LIBCMTD:crt0dat.obj
 0001:00049d60       __initterm                 0044ad60 f   LIBCMTD:crt0dat.obj
 0001:00049b31       L1                         0044ab31 f   LIBCMTD:ullrem.obj
 0001:00049b3f       L3                         0044ab3f f   LIBCMTD:ullrem.obj
 0001:00049b6a       L4                         0044ab6a f   LIBCMTD:ullrem.obj
 0001:00049b72       L5                         0044ab72 f   LIBCMTD:ullrem.obj
 0001:00049b81       L2                         0044ab81 f   LIBCMTD:ullrem.obj
 0001:00049ac2       L1                         0044aac2 f   LIBCMTD:ulldiv.obj
 0001:00049ad0       L3                         0044aad0 f   LIBCMTD:ulldiv.obj
 0001:00049afe       L4                         0044aafe f   LIBCMTD:ulldiv.obj
 0001:00049aff       L5                         0044aaff f   LIBCMTD:ulldiv.obj
 0001:00049b03       L2                         0044ab03 f   LIBCMTD:ulldiv.obj
 0001:00049a79       hard                       0044aa79 f   LIBCMTD:llmul.obj
 0001:00049920       dodwords                   0044a920 f   LIBCMTD:strcmp.obj
 0001:00049950       doneeq                     0044a950 f   LIBCMTD:strcmp.obj
 0001:00049954       donene                     0044a954 f   LIBCMTD:strcmp.obj
 0001:0004995c       dopartial                  0044a95c f   LIBCMTD:strcmp.obj
 0001:00049978       doword                     0044a978 f   LIBCMTD:strcmp.obj
 0001:00049450       _getSystemCP               0044a450 f   LIBCMTD:mbctype.obj
 0001:000494b0       _CPtoLCID                  0044a4b0 f   LIBCMTD:mbctype.obj
 0001:00049530       _setSBCS                   0044a530 f   LIBCMTD:mbctype.obj
 0001:000495b0       _setSBUpLow                0044a5b0 f   LIBCMTD:mbctype.obj
 0001:00048df0       _CrtMessageWindow          00449df0 f   LIBCMTD:dbgrpt.obj
 0001:000477e0       ?FindHandler@@YAXPAUEHExceptionRecord@@PAUEHRegistrationNode@@PAU_CONTEXT@@PAXPBU_s_FuncInfo@@EH1@Z 004487e0 f   LIBCMTD:frame.obj
 0001:00047a80       ?FindHandlerForForeignException@@YAXPAUEHExceptionRecord@@PAUEHRegistrationNode@@PAU_CONTEXT@@PAXPBU_s_FuncInfo@@HH1@Z 00448a80 f   LIBCMTD:frame.obj
 0001:00047ba0       ?TypeMatch@@YAHPBU_s_HandlerType@@PBU_s_CatchableType@@PBU_s_ThrowInfo@@@Z 00448ba0 f   LIBCMTD:frame.obj
 0001:00047d60       ?FrameUnwindFilter@@YAHPAU_EXCEPTION_POINTERS@@@Z 00448d60 f   LIBCMTD:frame.obj
 0001:00047d90       ?CatchIt@@YAXPAUEHExceptionRecord@@PAUEHRegistrationNode@@PAU_CONTEXT@@PAXPBU_s_FuncInfo@@PBU_s_HandlerType@@PBU_s_CatchableType@@PBU_s_TryBlockMapEntry@@H1E@Z 00448d90 f   LIBCMTD:frame.obj
 0001:00047e50       ?CallCatchBlock@@YAPAXPAUEHExceptionRecord@@PAUEHRegistrationNode@@PAU_CONTEXT@@PBU_s_FuncInfo@@PAXHK@Z 00448e50 f   LIBCMTD:frame.obj
 0001:00047fa0       ?ExFilterRethrow@@YAHPAU_EXCEPTION_POINTERS@@@Z 00448fa0 f   LIBCMTD:frame.obj
 0001:00047ff0       ?BuildCatchObject@@YAXPAUEHExceptionRecord@@PAUEHRegistrationNode@@PBU_s_HandlerType@@PBU_s_CatchableType@@@Z 00448ff0 f   LIBCMTD:frame.obj
 0001:00048300       ?AdjustPointer@@YAPAXPAXABUPMD@@@Z 00449300 f   LIBCMTD:frame.obj
 0001:000476c0       _fast_error_exit           004486c0 f   LIBCMTD:wincrt0.obj
 0001:00046f60       _$$$00001                  00447f60 f   LIBCMTD:strchr.obj
 0001:00046f88       str_misaligned             00447f88 f   LIBCMTD:strchr.obj
 0001:00046f9b       main_loop_start            00447f9b f   LIBCMTD:strchr.obj
 0001:00046fa6       main_loop                  00447fa6 f   LIBCMTD:strchr.obj
 0001:00046fe2       retnull                    00447fe2 f   LIBCMTD:strchr.obj
 0001:00046fe4       retnull_bx                 00447fe4 f   LIBCMTD:strchr.obj
 0001:00046fe8       chr_is_found               00447fe8 f   LIBCMTD:strchr.obj
 0001:00047010       byte_3                     00448010 f   LIBCMTD:strchr.obj
 0001:00047017       byte_2                     00448017 f   LIBCMTD:strchr.obj
 0001:0004701e       byte_1                     0044801e f   LIBCMTD:strchr.obj
 0001:00047025       byte_0                     00448025 f   LIBCMTD:strchr.obj
 0001:00046f60       found_bx                   00447f60 f   LIBCMTD:strchr.obj
 0001:00046ca0       __threadstartex@4          00447ca0 f   LIBCMTD:threadex.obj
 0001:00043f80       _realloc_help              00444f80 f   LIBCMTD:dbgheap.obj
 0001:00044bc0       _CheckBytes                00445bc0 f   LIBCMTD:dbgheap.obj
 0001:000457b0       __printMemBlockData        004467b0 f   LIBCMTD:dbgheap.obj
 0001:000438d4       src_misaligned             004448d4 f   LIBCMTD:strncpy.obj
 0001:000438f0       tail_loop_start            004448f0 f   LIBCMTD:strncpy.obj
 0001:000438f5       copy_tail_loop             004448f5 f   LIBCMTD:strncpy.obj
 0001:00043902       fill_tail_end1             00444902 f   LIBCMTD:strncpy.obj
 0001:0004390a       align_dest                 0044490a f   LIBCMTD:strncpy.obj
 0001:00043912       dest_align_loop            00444912 f   LIBCMTD:strncpy.obj
 0001:00043924       dest_align_loop_end        00444924 f   LIBCMTD:strncpy.obj
 0001:0004392b       finish_loop                0044492b f   LIBCMTD:strncpy.obj
 0001:0004392e       fill_tail_zero_bytes       0044492e f   LIBCMTD:strncpy.obj
 0001:00043933       finish                     00444933 f   LIBCMTD:strncpy.obj
 0001:00043939       main_loop                  00444939 f   LIBCMTD:strncpy.obj
 0001:00043941       main_loop_entrance         00444941 f   LIBCMTD:strncpy.obj
 0001:00043977       byte_2                     00444977 f   LIBCMTD:strncpy.obj
 0001:00043981       byte_1                     00444981 f   LIBCMTD:strncpy.obj
 0001:0004398b       byte_0                     0044498b f   LIBCMTD:strncpy.obj
 0001:0004398f       fill_with_EOS_dwords       0044498f f   LIBCMTD:strncpy.obj
 0001:00043997       fill_dwords_with_EOS       00444997 f   LIBCMTD:strncpy.obj
 0001:00043999       fill_with_EOS_loop         00444999 f   LIBCMTD:strncpy.obj
 0001:000439a1       fill_tail                  004449a1 f   LIBCMTD:strncpy.obj
 0001:000439a6       fill_tail_end              004449a6 f   LIBCMTD:strncpy.obj
 0001:000435eb       str_misaligned             004445eb f   LIBCMTD:memchr.obj
 0001:000435fd       main_loop_start            004445fd f   LIBCMTD:memchr.obj
 0001:00043613       return_from_main           00444613 f   LIBCMTD:memchr.obj
 0001:00043614       tail_less_then_4           00444614 f   LIBCMTD:memchr.obj
 0001:00043619       tail_loop                  00444619 f   LIBCMTD:memchr.obj
 0001:00043623       retnull                    00444623 f   LIBCMTD:memchr.obj
 0001:00043625       main_loop                  00444625 f   LIBCMTD:memchr.obj
 0001:0004362a       main_loop_entry            0044462a f   LIBCMTD:memchr.obj
 0001:00043645       char_is_found              00444645 f   LIBCMTD:memchr.obj
 0001:0004365d       byte_3                     0044465d f   LIBCMTD:memchr.obj
 0001:0004365e       found                      0044465e f   LIBCMTD:memchr.obj
 0001:00043663       byte_2                     00444663 f   LIBCMTD:memchr.obj
 0001:00043669       byte_1                     00444669 f   LIBCMTD:memchr.obj
 0001:0004366f       byte_0                     0044466f f   LIBCMTD:memchr.obj
 0001:00043300       LeadUp1                    00444300 f   LIBCMTD:memmove.obj
 0001:0004332c       LeadUp2                    0044432c f   LIBCMTD:memmove.obj
 0001:00043350       LeadUp3                    00444350 f   LIBCMTD:memmove.obj
 0001:000433cf       UnwindUp0                  004443cf f   LIBCMTD:memmove.obj
 0001:000433bc       UnwindUp1                  004443bc f   LIBCMTD:memmove.obj
 0001:000433b4       UnwindUp2                  004443b4 f   LIBCMTD:memmove.obj
 0001:000433ac       UnwindUp3                  004443ac f   LIBCMTD:memmove.obj
 0001:000433a4       UnwindUp4                  004443a4 f   LIBCMTD:memmove.obj
 0001:0004339c       UnwindUp5                  0044439c f   LIBCMTD:memmove.obj
 0001:00043394       UnwindUp6                  00444394 f   LIBCMTD:memmove.obj
 0001:0004338c       UnwindUp7                  0044438c f   LIBCMTD:memmove.obj
 0001:000433e8       TrailUp0                   004443e8 f   LIBCMTD:memmove.obj
 0001:000433f0       TrailUp1                   004443f0 f   LIBCMTD:memmove.obj
 0001:000433fc       TrailUp2                   004443fc f   LIBCMTD:memmove.obj
 0001:00043410       TrailUp3                   00444410 f   LIBCMTD:memmove.obj
 0001:00043488       LeadDown1                  00444488 f   LIBCMTD:memmove.obj
 0001:000434a8       LeadDown2                  004444a8 f   LIBCMTD:memmove.obj
 0001:000434d0       LeadDown3                  004444d0 f   LIBCMTD:memmove.obj
 0001:00043524       UnwindDown7                00444524 f   LIBCMTD:memmove.obj
 0001:0004352c       UnwindDown6                0044452c f   LIBCMTD:memmove.obj
 0001:00043534       UnwindDown5                00444534 f   LIBCMTD:memmove.obj
 0001:0004353c       UnwindDown4                0044453c f   LIBCMTD:memmove.obj
 0001:00043544       UnwindDown3                00444544 f   LIBCMTD:memmove.obj
 0001:0004354c       UnwindDown2                0044454c f   LIBCMTD:memmove.obj
 0001:00043554       UnwindDown1                00444554 f   LIBCMTD:memmove.obj
 0001:00043567       UnwindDown0                00444567 f   LIBCMTD:memmove.obj
 0001:00043580       TrailDown0                 00444580 f   LIBCMTD:memmove.obj
 0001:00043588       TrailDown1                 00444588 f   LIBCMTD:memmove.obj
 0001:00043598       TrailDown2                 00444598 f   LIBCMTD:memmove.obj
 0001:000435ac       TrailDown3                 004445ac f   LIBCMTD:memmove.obj
 0001:000432b0       CopyUp                     004442b0 f   LIBCMTD:memmove.obj
 0001:000432cc       CopyLeadUp                 004442cc f   LIBCMTD:memmove.obj
 0001:000432e4       ByteCopyUp                 004442e4 f   LIBCMTD:memmove.obj
 0001:000432ec       CopyUnwindUp               004442ec f   LIBCMTD:memmove.obj
 0001:00043428       CopyDown                   00444428 f   LIBCMTD:memmove.obj
 0001:00043450       CopyUnwindDown             00444450 f   LIBCMTD:memmove.obj
 0001:0004345c       CopyLeadDown               0044445c f   LIBCMTD:memmove.obj
 0001:00043474       ByteCopyDown               00444474 f   LIBCMTD:memmove.obj
 0001:00042ff0       _xtoa                      00443ff0 f   LIBCMTD:xtoa.obj
 0001:00043170       _x64toa@20                 00444170 f   LIBCMTD:xtoa.obj
 0001:00042d20       _$$$00001                  00443d20 f   LIBCMTD:chkstk.obj
 0001:00042d2c       probepages                 00443d2c f   LIBCMTD:chkstk.obj
 0001:00042d40       lastpage                   00443d40 f   LIBCMTD:chkstk.obj
 0001:00042a28       _gu_return                 00443a28 f   LIBCMTD:exsup.obj
 0001:00042a30       __unwind_handler           00443a30 f   LIBCMTD:exsup.obj
 0001:000427e0       ?CatchGuardHandler@@YA?AW4_EXCEPTION_DISPOSITION@@PAUEHExceptionRecord@@PAUCatchGuardRN@@PAX2@Z 004437e0 f   LIBCMTD:trnsctrl.obj
 0001:000428f0       ?TranslatorGuardHandler@@YA?AW4_EXCEPTION_DISPOSITION@@PAUEHExceptionRecord@@PAUTranslatorGuardRN@@PAX2@Z 004438f0 f   LIBCMTD:trnsctrl.obj
 0001:000c42f0       ___ham_check_move          004c52f0 f   libdb41s:hash_dup.obj
 0001:000c4a70       ___ham_move_offpage        004c5a70 f   libdb41s:hash_dup.obj
 0001:000c4e50       ___ham_dcursor             004c5e50 f   libdb41s:hash_dup.obj
 0001:000c4ec0       ___ham_c_chgpg             004c5ec0 f   libdb41s:hash_dup.obj
 0001:000c34b0       ___ham_c_delpg             004c44b0 f   libdb41s:hash_page.obj
 0001:000bf550       ___bam_partsize            004c0550 f   libdb41s:bt_put.obj
 0001:000bf5e0       ___bam_build               004c05e0 f   libdb41s:bt_put.obj
 0001:000bfb00       ___bam_dup_convert         004c0b00 f   libdb41s:bt_put.obj
 0001:000bff40       ___bam_ovput               004c0f40 f   libdb41s:bt_put.obj
 0001:000bcf80       ___bam_root                004bdf80 f   libdb41s:bt_split.obj
 0001:000bd2b0       ___bam_page                004be2b0 f   libdb41s:bt_split.obj
 0001:000bd9b0       ___bam_broot               004be9b0 f   libdb41s:bt_split.obj
 0001:000bdd20       ___ram_root                004bed20 f   libdb41s:bt_split.obj
 0001:000bde00       ___bam_pinsert             004bee00 f   libdb41s:bt_split.obj
 0001:000be620       ___bam_psplit              004bf620 f   libdb41s:bt_split.obj
 0001:000baf90       ___bam_opd_cursor          004bbf90 f   libdb41s:bt_curadj.obj
 0001:000ba4c0       ___db_build_bi             004bb4c0 f   libdb41s:db_upg_opd.obj
 0001:000ba8b0       ___db_build_ri             004bb8b0 f   libdb41s:db_upg_opd.obj
 0001:000ba990       ___db_up_ovref             004bb990 f   libdb41s:db_upg_opd.obj
 0001:000b9cb0       ___ham_stat_callback       004bacb0 f   libdb41s:hash_stat.obj
 0001:000b7e80       ___db_overwrite_pass       004b8e80 f   libdb41s:env_file.obj
 0001:000b36b0       ___dbreg_open_file         004b46b0 f   libdb41s:dbreg_rec.obj
 0001:000b27a0       ___ham_alloc_pages         004b37a0 f   libdb41s:hash_rec.obj
 0001:000af2c0       ___os_map                  004b02c0 f   libdb41s:os_map.obj
 0001:000af4a0       ___os_unique_name          004b04a0 f   libdb41s:os_map.obj
 0001:000aef80       ___memp_fs_notzero         004aff80 f   libdb41s:mp_fget.obj
 0001:000adf80       ___memp_bad_buffer         004aef80 f   libdb41s:mp_alloc.obj
 0001:000ae050       ___memp_reset_lru          004af050 f   libdb41s:mp_alloc.obj
 0001:000ad460       ___memp_pgwrite            004ae460 f   libdb41s:mp_bh.obj
 0001:000ad930       ___memp_upgrade            004ae930 f   libdb41s:mp_bh.obj
 0001:000ad020       ___db_idcmp                004ae020 f   libdb41s:db_idspace.obj
 0001:000ac670       ___db_hmac                 004ad670 f   libdb41s:hmac.obj
 0001:000ac280       ___bam_init_meta           004ad280 f   libdb41s:bt_open.obj
 0001:000ab5a0       ___ham_init_meta           004ac5a0 f   libdb41s:hash_open.obj
 0001:000aaea0       ___qam_init_meta           004abea0 f   libdb41s:qam_open.obj
 0001:000a90e0       ___db_init_meta            004aa0e0 f   libdb41s:db_meta.obj
 0001:000a86b0       ___ram_update              004a96b0 f   libdb41s:bt_recno.obj
 0001:000a8770       ___ram_source              004a9770 f   libdb41s:bt_recno.obj
 0001:000a8ae0       ___ram_sread               004a9ae0 f   libdb41s:bt_recno.obj
 0001:000a8cd0       ___ram_add                 004a9cd0 f   libdb41s:bt_recno.obj
 0001:000a47d0       ___ham_c_close             004a57d0 f   libdb41s:hash.obj
 0001:000a48f0       ___ham_c_destroy           004a58f0 f   libdb41s:hash.obj
 0001:000a4ac0       ___ham_c_del               004a5ac0 f   libdb41s:hash.obj
 0001:000a4d80       ___ham_c_get               004a5d80 f   libdb41s:hash.obj
 0001:000a5120       ___ham_bulk                004a6120 f   libdb41s:hash.obj
 0001:000a5d20       ___ham_c_put               004a6d20 f   libdb41s:hash.obj
 0001:000a5f90       ___ham_expand_table        004a6f90 f   libdb41s:hash.obj
 0001:000a6320       ___ham_dup_return          004a7320 f   libdb41s:hash.obj
 0001:000a6710       ___ham_overwrite           004a7710 f   libdb41s:hash.obj
 0001:000a6c20       ___ham_lookup              004a7c20 f   libdb41s:hash.obj
 0001:000a74d0       ___ham_c_writelock         004a84d0 f   libdb41s:hash.obj
 0001:000a28d0       ___qam_c_put               004a38d0 f   libdb41s:qam.obj
 0001:000a2c20       ___qam_c_del               004a3c20 f   libdb41s:qam.obj
 0001:000a2fa0       ___qam_c_get               004a3fa0 f   libdb41s:qam.obj
 0001:000a3b00       ___qam_consume             004a4b00 f   libdb41s:qam.obj
 0001:000a3f90       ___qam_bulk                004a4f90 f   libdb41s:qam.obj
 0001:000a4410       ___qam_c_close             004a5410 f   libdb41s:qam.obj
 0001:000a4450       ___qam_c_destroy           004a5450 f   libdb41s:qam.obj
 0001:000a4470       ___qam_getno               004a5470 f   libdb41s:qam.obj
 0001:0009e380       ___bam_c_close             0049f380 f   libdb41s:bt_cursor.obj
 0001:0009e7e0       ___bam_c_destroy           0049f7e0 f   libdb41s:bt_cursor.obj
 0001:0009e9c0       ___bam_c_del               0049f9c0 f   libdb41s:bt_cursor.obj
 0001:0009ec90       ___bam_c_get               0049fc90 f   libdb41s:bt_cursor.obj
 0001:0009f270       ___bam_bulk                004a0270 f   libdb41s:bt_cursor.obj
 0001:0009fb30       ___bam_get_prev            004a0b30 f   libdb41s:bt_cursor.obj
 0001:000a0100       ___bam_getbothc            004a1100 f   libdb41s:bt_cursor.obj
 0001:000a0250       ___bam_getboth_finddatum   004a1250 f   libdb41s:bt_cursor.obj
 0001:000a05f0       ___bam_c_put               004a15f0 f   libdb41s:bt_cursor.obj
 0001:000a0d40       ___bam_c_writelock         004a1d40 f   libdb41s:bt_cursor.obj
 0001:000a0db0       ___bam_c_first             004a1db0 f   libdb41s:bt_cursor.obj
 0001:000a0f80       ___bam_c_last              004a1f80 f   libdb41s:bt_cursor.obj
 0001:000a1170       ___bam_c_next              004a2170 f   libdb41s:bt_cursor.obj
 0001:000a13d0       ___bam_c_prev              004a23d0 f   libdb41s:bt_cursor.obj
 0001:000a1600       ___bam_c_search            004a2600 f   libdb41s:bt_cursor.obj
 0001:000a1b20       ___bam_c_physdel           004a2b20 f   libdb41s:bt_cursor.obj
 0001:000a1eb0       ___bam_c_getstack          004a2eb0 f   libdb41s:bt_cursor.obj
 0001:000a1f50       ___bam_isopd               004a2f50 f   libdb41s:bt_cursor.obj
 0001:0009cd60       ___db_c_cleanup            0049dd60 f   libdb41s:db_cam.obj
 0001:0009d090       ___db_c_pget_recno         0049e090 f   libdb41s:db_cam.obj
 0001:0009d270       ___db_wrlock_err           0049e270 f   libdb41s:db_cam.obj
 0001:0009d290       ___db_c_del_secondary      0049e290 f   libdb41s:db_cam.obj
 0001:0009d780       ___db_buildpartial         0049e780 f   libdb41s:db_cam.obj
 0001:00099270       ___ham_vrfy_item           0049a270 f   libdb41s:hash_verify.obj
 0001:00099910       ___ham_vrfy_bucket         0049a910 f   libdb41s:hash_verify.obj
 0001:0009a400       ___ham_dups_unsorted       0049b400 f   libdb41s:hash_verify.obj
 0001:00096630       ___ram_vrfy_inp            00497630 f   libdb41s:bt_verify.obj
 0001:00096960       ___bam_vrfy_inp            00497960 f   libdb41s:bt_verify.obj
 0001:00098300       ___bam_vrfy_treeorder      00499300 f   libdb41s:bt_verify.obj
 0001:00098d40       ___bam_safe_getdata        00499d40 f   libdb41s:bt_verify.obj
 0001:00095760       ___os_physwrite            00496760 f   libdb41s:os_rw.obj
 0001:00095810       ___os_zerofill             00496810 f   libdb41s:os_rw.obj
 0001:00094d40       ___db_vrfy_pgset_iinc      00495d40 f   libdb41s:db_vrfyutil.obj
 0001:00095050       ___db_vrfy_pageinfo_create 00496050 f   libdb41s:db_vrfyutil.obj
 0001:00092670       ___db_prdb                 00493670 f   libdb41s:db_pr.obj
 0001:00092820       ___db_prtree               00493820 f   libdb41s:db_pr.obj
 0001:000931a0       ___db_bmeta                004941a0 f   libdb41s:db_pr.obj
 0001:00093210       ___db_meta                 00494210 f   libdb41s:db_pr.obj
 0001:000933f0       ___db_hmeta                004943f0 f   libdb41s:db_pr.obj
 0001:000934b0       ___db_qmeta                004944b0 f   libdb41s:db_pr.obj
 0001:000938a0       ___db_proff                004948a0 f   libdb41s:db_pr.obj
 0001:00093990       ___db_pagetype_to_string   00494990 f   libdb41s:db_pr.obj
 0001:00090740       ___fop_set_pgsize          00491740 f   libdb41s:fop_util.obj
 0001:0008fa00       ___dbt_ferr                00490a00 f   libdb41s:db_iface.obj
 0001:0008fac0       ___db_rdonly               00490ac0 f   libdb41s:db_iface.obj
 0001:0008fae0       ___db_fnl                  00490ae0 f   libdb41s:db_iface.obj
 0001:0008fb00       ___db_curinval             00490b00 f   libdb41s:db_iface.obj
 0001:0008dd60       ___db_e_remfile            0048ed60 f   libdb41s:env_region.obj
 0001:0008e380       ___db_des_get              0048f380 f   libdb41s:env_region.obj
 0001:0008e510       ___db_des_destroy          0048f510 f   libdb41s:env_region.obj
 0001:0008e570       ___db_faultmem             0048f570 f   libdb41s:env_region.obj
 0001:0008e5d0       ___db_region_destroy       0048f5d0 f   libdb41s:env_region.obj
 0001:0008ce80       ___lock_init               0048de80 f   libdb41s:lock_region.obj
 0001:0008d2c0       ___lock_region_size        0048e2c0 f   libdb41s:lock_region.obj
 0001:0008c9d0       ___txn_init                0048d9d0 f   libdb41s:txn_region.obj
 0001:0008cac0       ___txn_findlastckp         0048dac0 f   libdb41s:txn_region.obj
 0001:0008cca0       ___txn_region_size         0048dca0 f   libdb41s:txn_region.obj
 0001:0007f2a0       ___lsn_diff                004802a0 f   libdb41s:env_recover.obj
 0001:0007f420       ___log_backup              00480420 f   libdb41s:env_recover.obj
 0001:0007f530       ___log_earliest            00480530 f   libdb41s:env_recover.obj
 0001:0007e770       ___db_mutex_alloc_int      0047f770 f   libdb41s:mutex.obj
 0001:0007e030       ___build_data              0047f030 f   libdb41s:log_archive.obj
 0001:0007e4f0       ___absname                 0047f4f0 f   libdb41s:log_archive.obj
 0001:0007e5c0       ___usermem                 0047f5c0 f   libdb41s:log_archive.obj
 0001:0007e6a0       ___cmpfunc                 0047f6a0 f   libdb41s:log_archive.obj
 0001:0007cc70       ___log_c_close             0047dc70 f   libdb41s:log_get.obj
 0001:0007cd10       ___log_c_get               0047dd10 f   libdb41s:log_get.obj
 0001:0007ce80       ___log_c_get_int           0047de80 f   libdb41s:log_get.obj
 0001:0007d360       ___log_c_incursor          0047e360 f   libdb41s:log_get.obj
 0001:0007d400       ___log_c_inregion          0047e400 f   libdb41s:log_get.obj
 0001:0007d6e0       ___log_c_ondisk            0047e6e0 f   libdb41s:log_get.obj
 0001:0007d860       ___log_c_hdrchk            0047e860 f   libdb41s:log_get.obj
 0001:0007d910       ___log_c_io                0047e910 f   libdb41s:log_get.obj
 0001:0007da90       ___log_c_shortread         0047ea90 f   libdb41s:log_get.obj
 0001:0007dac0       ___log_c_set_maxrec        0047eac0 f   libdb41s:log_get.obj
 0001:0007b8c0       ___log_put_next            0047c8c0 f   libdb41s:log_put.obj
 0001:0007b9a0       ___log_flush_commit        0047c9a0 f   libdb41s:log_put.obj
 0001:0007bbc0       ___log_putr                0047cbc0 f   libdb41s:log_put.obj
 0001:0007be10       ___log_flush_int           0047ce10 f   libdb41s:log_put.obj
 0001:0007c4e0       ___log_fill                0047d4e0 f   libdb41s:log_put.obj
 0001:0007c5f0       ___log_write               0047d5f0 f   libdb41s:log_put.obj
 0001:0007c7f0       ___log_newfh               0047d7f0 f   libdb41s:log_put.obj
 0001:0007cae0       ___log_encrypt_record      0047dae0 f   libdb41s:log_put.obj
 0001:0007a550       ___log_init                0047b550 f   libdb41s:log.obj
 0001:0007a6f0       ___log_recover             0047b6f0 f   libdb41s:log.obj
 0001:0007b030       ___log_region_size         0047c030 f   libdb41s:log.obj
 0001:0007b330       ___log_zero                0047c330 f   libdb41s:log.obj
 0001:000797c0       ___dd_build                0047a7c0 f   libdb41s:lock_deadlock.obj
 0001:00079e70       ___dd_find                 0047ae70 f   libdb41s:lock_deadlock.obj
 0001:0007a020       ___dd_abort                0047b020 f   libdb41s:lock_deadlock.obj
 0001:0007a1f0       ___dd_verify               0047b1f0 f   libdb41s:lock_deadlock.obj
 0001:0007a300       ___dd_isolder              0047b300 f   libdb41s:lock_deadlock.obj
 0001:00078e90       ___lock_dump_locker        00479e90 f   libdb41s:lock_stat.obj
 0001:00078fc0       ___lock_dump_object        00479fc0 f   libdb41s:lock_stat.obj
 0001:00079040       ___lock_printheader        0047a040 f   libdb41s:lock_stat.obj
 0001:00076ac0       ___lock_get_internal       00477ac0 f   libdb41s:lock.obj
 0001:00077630       ___lock_put_nolock         00478630 f   libdb41s:lock.obj
 0001:00077810       ___lock_put_internal       00478810 f   libdb41s:lock.obj
 0001:00077ac0       ___lock_checklocker        00478ac0 f   libdb41s:lock.obj
 0001:00077e60       ___lock_freelocker         00478e60 f   libdb41s:lock.obj
 0001:00078310       ___lock_getobj             00479310 f   libdb41s:lock.obj
 0001:000784e0       ___lock_is_parent          004794e0 f   libdb41s:lock.obj
 0001:00078740       ___lock_remove_waiter      00479740 f   libdb41s:lock.obj
 0001:00078800       ___lock_expires            00479800 f   libdb41s:lock.obj
 0001:000788c0       ___lock_trade              004798c0 f   libdb41s:lock.obj
 0001:00074fb0       ___memp_set_clear_len      00475fb0 f   libdb41s:mp_fopen.obj
 0001:00074fe0       ___memp_set_fileid         00475fe0 f   libdb41s:mp_fopen.obj
 0001:00075010       ___memp_set_ftype          00476010 f   libdb41s:mp_fopen.obj
 0001:00075040       ___memp_set_lsn_offset     00476040 f   libdb41s:mp_fopen.obj
 0001:00075070       ___memp_set_pgcookie       00476070 f   libdb41s:mp_fopen.obj
 0001:000750a0       ___memp_set_priority       004760a0 f   libdb41s:mp_fopen.obj
 0001:00075140       ___memp_fopen              00476140 f   libdb41s:mp_fopen.obj
 0001:00075a60       ___memp_get_fileid         00476a60 f   libdb41s:mp_fopen.obj
 0001:00075a90       ___memp_last_pgno          00476a90 f   libdb41s:mp_fopen.obj
 0001:00075ae0       ___memp_refcnt             00476ae0 f   libdb41s:mp_fopen.obj
 0001:00075b30       ___memp_set_unlink         00476b30 f   libdb41s:mp_fopen.obj
 0001:00075b90       ___memp_fclose             00476b90 f   libdb41s:mp_fopen.obj
 0001:00074990       ___mpool_init              00475990 f   libdb41s:mp_region.obj
 0001:000740e0       ___memp_dumpcache          004750e0 f   libdb41s:mp_stat.obj
 0001:000741f0       ___memp_pbh                004751f0 f   libdb41s:mp_stat.obj
 0001:000742f0       ___memp_stat_wait          004752f0 f   libdb41s:mp_stat.obj
 0001:000735d0       ___memp_sync_files         004745d0 f   libdb41s:mp_sync.obj
 0001:00073750       ___memp_close_flush_files  00474750 f   libdb41s:mp_sync.obj
 0001:000737e0       ___bhcmp                   004747e0 f   libdb41s:mp_sync.obj
 0001:000704e0       ___db_txnlist_find_internal 004714e0 f   libdb41s:db_dispatch.obj
 0001:00070a20       ___db_limbo_move           00471a20 f   libdb41s:db_dispatch.obj
 0001:00070a70       ___db_lock_move            00471a70 f   libdb41s:db_dispatch.obj
 0001:00070b40       ___db_limbo_bucket         00471b40 f   libdb41s:db_dispatch.obj
 0001:00070eb0       ___db_limbo_fix            00471eb0 f   libdb41s:db_dispatch.obj
 0001:000710f0       ___db_txnlist_pgnoadd      004720f0 f   libdb41s:db_dispatch.obj
 0001:000712a0       ___db_default_getpgnos     004722a0 f   libdb41s:db_dispatch.obj
 0001:0006fae0       ___dbreg_check_master      00470ae0 f   libdb41s:dbreg_util.obj
 0001:0006ec30       ___rep_cmp_bypage          0046fc30 f   libdb41s:rep_util.obj
 0001:0006eca0       ___rep_cmp_bylsn           0046fca0 f   libdb41s:rep_util.obj
 0001:0006d490       ___rep_apply               0046e490 f   libdb41s:rep_record.obj
 0001:0006e220       ___rep_collect_txn         0046f220 f   libdb41s:rep_record.obj
 0001:0006e390       ___rep_lsn_cmp             0046f390 f   libdb41s:rep_record.obj
 0001:0006e3b0       ___rep_newfile             0046f3b0 f   libdb41s:rep_record.obj
 0001:0006a350       ___txn_begin_int           0046b350 f   libdb41s:txn.obj
 0001:0006ae40       ___txn_set_timeout         0046be40 f   libdb41s:txn.obj
 0001:0006ae90       ___txn_isvalid             0046be90 f   libdb41s:txn.obj
 0001:0006afc0       ___txn_end                 0046bfc0 f   libdb41s:txn.obj
 0001:0006b1f0       ___txn_undo                0046c1f0 f   libdb41s:txn.obj
 0001:00069600       ___db_join_put             0046a600 f   libdb41s:db_join.obj
 0001:00069640       ___db_join_del             0046a640 f   libdb41s:db_join.obj
 0001:00069680       ___db_join_get             0046a680 f   libdb41s:db_join.obj
 0001:00069b10       ___db_join_close           0046ab10 f   libdb41s:db_join.obj
 0001:00069c50       ___db_join_getnext         0046ac50 f   libdb41s:db_join.obj
 0001:00069d50       ___db_join_cmp             0046ad50 f   libdb41s:db_join.obj
 0001:00069db0       ___db_join_primget         0046adb0 f   libdb41s:db_join.obj
 0001:00069070       ___db_openchk              0046a070 f   libdb41s:db_open.obj
 0001:000686e0       ___db_disassociate         004696e0 f   libdb41s:db.obj
 0001:000671b0       ___db_secondary_get        004681b0 f   libdb41s:db_am.obj
 0001:000671e0       ___db_secondary_close      004681e0 f   libdb41s:db_am.obj
 0001:00067280       ___db_append_primary       00468280 f   libdb41s:db_am.obj
 0001:00065bb0       ___db_page_pass            00466bb0 f   libdb41s:db_upg.obj
 0001:00063020       ___db_vrfy_pagezero        00464020 f   libdb41s:db_vrfy.obj
 0001:00063420       ___db_vrfy_walkpages       00464420 f   libdb41s:db_vrfy.obj
 0001:00063710       ___db_vrfy_structure       00464710 f   libdb41s:db_vrfy.obj
 0001:000639e0       ___db_is_valid_magicno     004649e0 f   libdb41s:db_vrfy.obj
 0001:00063a40       ___db_vrfy_common          00464a40 f   libdb41s:db_vrfy.obj
 0001:00063b80       ___db_is_valid_pagetype    00464b80 f   libdb41s:db_vrfy.obj
 0001:00063ba0       ___db_vrfy_invalid         00464ba0 f   libdb41s:db_vrfy.obj
 0001:00064030       ___db_vrfy_freelist        00465030 f   libdb41s:db_vrfy.obj
 0001:00064170       ___db_vrfy_subdbs          00465170 f   libdb41s:db_vrfy.obj
 0001:00064440       ___db_vrfy_orderchkonly    00465440 f   libdb41s:db_vrfy.obj
 0001:000648b0       ___db_salvage              004658b0 f   libdb41s:db_vrfy.obj
 0001:00064990       ___db_salvage_unknowns     00465990 f   libdb41s:db_vrfy.obj
 0001:00064fc0       ___db_salvage_subdbs       00465fc0 f   libdb41s:db_vrfy.obj
 0001:00065230       ___db_salvage_subdbpg      00466230 f   libdb41s:db_vrfy.obj
 0001:00065690       ___db_meta2pgset           00466690 f   libdb41s:db_vrfy.obj
 0001:00065720       ___db_guesspgsize          00466720 f   libdb41s:db_vrfy.obj
 0001:00062690       ___bam_set_bt_compare      00463690 f   libdb41s:bt_method.obj
 0001:000626f0       ___bam_set_bt_maxkey       004636f0 f   libdb41s:bt_method.obj
 0001:00062750       ___bam_set_bt_minkey       00463750 f   libdb41s:bt_method.obj
 0001:000627b0       ___bam_set_bt_prefix       004637b0 f   libdb41s:bt_method.obj
 0001:00062880       ___ram_set_re_delim        00463880 f   libdb41s:bt_method.obj
 0001:000628e0       ___ram_set_re_len          004638e0 f   libdb41s:bt_method.obj
 0001:00062940       ___ram_set_re_pad          00463940 f   libdb41s:bt_method.obj
 0001:000629a0       ___ram_set_re_source       004639a0 f   libdb41s:bt_method.obj
 0001:00062380       ___ham_set_h_ffactor       00463380 f   libdb41s:hash_method.obj
 0001:000623d0       ___ham_set_h_hash          004633d0 f   libdb41s:hash_method.obj
 0001:00062420       ___ham_set_h_nelem         00463420 f   libdb41s:hash_method.obj
 0001:00061c80       ___qam_set_extentsize      00462c80 f   libdb41s:qam_method.obj
 0001:000619b0       ___xa_open                 004629b0 f   libdb41s:xa_db.obj
 0001:00061a40       ___xa_cursor               00462a40 f   libdb41s:xa_db.obj
 0001:00061a80       ___xa_del                  00462a80 f   libdb41s:xa_db.obj
 0001:00061ac0       ___xa_close                00462ac0 f   libdb41s:xa_db.obj
 0001:00061af0       ___xa_get                  00462af0 f   libdb41s:xa_db.obj
 0001:00061b30       ___xa_put                  00462b30 f   libdb41s:xa_db.obj
 0001:00061110       ___db_subdb_remove         00462110 f   libdb41s:db_remove.obj
 0001:00061240       ___db_dbtxn_remove         00462240 f   libdb41s:db_remove.obj
 0001:00060cc0       ___db_subdb_rename         00461cc0 f   libdb41s:db_rename.obj
 0001:0005f390       ___dbenv_iremove           00460390 f   libdb41s:env_open.obj
 0001:0005f3f0       ___dbenv_config            004603f0 f   libdb41s:env_open.obj
 0001:0005f700       ___dbenv_refresh           00460700 f   libdb41s:env_open.obj
 0001:0005fbe0       ___db_parse                00460be0 f   libdb41s:env_open.obj
 0001:000607a0       ___db_tmp_open             004617a0 f   libdb41s:env_open.obj
 0001:0005ed20       ___log_set_lg_bsize        0045fd20 f   libdb41s:log_method.obj
 0001:0005ed80       ___log_set_lg_max          0045fd80 f   libdb41s:log_method.obj
 0001:0005ee00       ___log_set_lg_regionmax    0045fe00 f   libdb41s:log_method.obj
 0001:0005ee50       ___log_set_lg_dir          0045fe50 f   libdb41s:log_method.obj
 0001:0005ea90       ___lock_set_lk_conflicts   0045fa90 f   libdb41s:lock_method.obj
 0001:0005eb10       ___lock_set_lk_detect      0045fb10 f   libdb41s:lock_method.obj
 0001:0005eb60       ___lock_set_lk_max         0045fb60 f   libdb41s:lock_method.obj
 0001:0005eb90       ___lock_set_lk_max_locks   0045fb90 f   libdb41s:lock_method.obj
 0001:0005ebc0       ___lock_set_lk_max_lockers 0045fbc0 f   libdb41s:lock_method.obj
 0001:0005ebf0       ___lock_set_lk_max_objects 0045fbf0 f   libdb41s:lock_method.obj
 0001:0005ec20       ___lock_set_env_timeout    0045fc20 f   libdb41s:lock_method.obj
 0001:0005e8d0       ___memp_set_cachesize      0045f8d0 f   libdb41s:mp_method.obj
 0001:0005e9a0       ___memp_set_mp_mmapsize    0045f9a0 f   libdb41s:mp_method.obj
 0001:0005d380       ___rep_start               0045e380 f   libdb41s:rep_method.obj
 0001:0005d6e0       ___rep_client_dbinit       0045e6e0 f   libdb41s:rep_method.obj
 0001:0005d850       ___rep_bt_cmp              0045e850 f   libdb41s:rep_method.obj
 0001:0005d8c0       ___rep_abort_prepared      0045e8c0 f   libdb41s:rep_method.obj
 0001:0005d9a0       ___rep_restore_prepared    0045e9a0 f   libdb41s:rep_method.obj
 0001:0005dd60       ___rep_set_limit           0045ed60 f   libdb41s:rep_method.obj
 0001:0005de10       ___rep_set_request         0045ee10 f   libdb41s:rep_method.obj
 0001:0005def0       ___rep_set_rep_transport   0045eef0 f   libdb41s:rep_method.obj
 0001:0005df90       ___rep_elect               0045ef90 f   libdb41s:rep_method.obj
 0001:0005e280       ___rep_elect_init          0045f280 f   libdb41s:rep_method.obj
 0001:0005e3d0       ___rep_wait                0045f3d0 f   libdb41s:rep_method.obj
 0001:0005e4a0       ___rep_flush               0045f4a0 f   libdb41s:rep_method.obj
 0001:0005e580       ___rep_stat                0045f580 f   libdb41s:rep_method.obj
 0001:0005d2a0       ___txn_set_tx_max          0045e2a0 f   libdb41s:txn_method.obj
 0001:0005d2d0       ___txn_set_tx_timestamp    0045e2d0 f   libdb41s:txn_method.obj
 0001:0005c5b0       ___db_init                 0045d5b0 f   libdb41s:db_method.obj
 0001:0005c830       ___dbh_err                 0045d830 f   libdb41s:db_method.obj
 0001:0005c8b0       ___dbh_errx                0045d8b0 f   libdb41s:db_method.obj
 0001:0005c930       ___db_get_byteswapped      0045d930 f   libdb41s:db_method.obj
 0001:0005c970       ___db_get_type             0045d970 f   libdb41s:db_method.obj
 0001:0005c9a0       ___db_key_range            0045d9a0 f   libdb41s:db_method.obj
 0001:0005c9e0       ___db_set_append_recno     0045d9e0 f   libdb41s:db_method.obj
 0001:0005ca20       ___db_set_cachesize        0045da20 f   libdb41s:db_method.obj
 0001:0005ca80       ___db_set_cache_priority   0045da80 f   libdb41s:db_method.obj
 0001:0005cab0       ___db_set_dup_compare      0045dab0 f   libdb41s:db_method.obj
 0001:0005cb00       ___db_set_encrypt          0045db00 f   libdb41s:db_method.obj
 0001:0005cb80       ___db_set_errcall          0045db80 f   libdb41s:db_method.obj
 0001:0005cba0       ___db_set_errfile          0045dba0 f   libdb41s:db_method.obj
 0001:0005cbc0       ___db_set_errpfx           0045dbc0 f   libdb41s:db_method.obj
 0001:0005cbe0       ___db_set_feedback         0045dbe0 f   libdb41s:db_method.obj
 0001:0005cbf0       ___db_set_flags            0045dbf0 f   libdb41s:db_method.obj
 0001:0005cd10       ___db_set_alloc            0045dd10 f   libdb41s:db_method.obj
 0001:0005cd70       ___db_set_pagesize         0045dd70 f   libdb41s:db_method.obj
 0001:0005ce00       ___db_set_paniccall        0045de00 f   libdb41s:db_method.obj
 0001:0005ce20       ___db_stat_fail            0045de20 f   libdb41s:db_method.obj
 0001:0005bd50       ___dbenv_init              0045cd50 f   libdb41s:env_method.obj
 0001:0005be70       ___dbenv_err               0045ce70 f   libdb41s:env_method.obj
 0001:0005bee0       ___dbenv_errx              0045cee0 f   libdb41s:env_method.obj
 0001:0005bf50       ___dbenv_set_alloc         0045cf50 f   libdb41s:env_method.obj
 0001:0005bf90       ___dbenv_set_app_dispatch  0045cf90 f   libdb41s:env_method.obj
 0001:0005bfc0       ___dbenv_set_encrypt       0045cfc0 f   libdb41s:env_method.obj
 0001:0005bfd0       ___dbenv_set_flags         0045cfd0 f   libdb41s:env_method.obj
 0001:0005c210       ___dbenv_set_data_dir      0045d210 f   libdb41s:env_method.obj
 0001:0005c2a0       ___dbenv_set_errcall       0045d2a0 f   libdb41s:env_method.obj
 0001:0005c2b0       ___dbenv_set_errfile       0045d2b0 f   libdb41s:env_method.obj
 0001:0005c2c0       ___dbenv_set_errpfx        0045d2c0 f   libdb41s:env_method.obj
 0001:0005c2d0       ___dbenv_set_feedback      0045d2d0 f   libdb41s:env_method.obj
 0001:0005c2e0       ___dbenv_set_paniccall     0045d2e0 f   libdb41s:env_method.obj
 0001:0005c2f0       ___dbenv_set_shm_key       0045d2f0 f   libdb41s:env_method.obj
 0001:0005c320       ___dbenv_set_tas_spins     0045d320 f   libdb41s:env_method.obj
 0001:0005c340       ___dbenv_set_tmp_dir       0045d340 f   libdb41s:env_method.obj
 0001:0005c380       ___dbenv_set_verbose       0045d380 f   libdb41s:env_method.obj
 0001:0005c4a0       ___dbenv_set_rpc_server_noclnt 0045d4a0 f   libdb41s:env_method.obj
 0001:000c8625       _$E24                      004c9625 f   libcpmt:string.obj
 0001:000c864f       _$E20                      004c964f f   libcpmt:string.obj
 0001:000c865b       _$E23                      004c965b f   libcpmt:string.obj
 0001:000c82de       ?_CleanUp@std@@YAXXZ       004c92de f   libcpmt:xlock.obj
 0001:000c8ce4       _$E4                       004c9ce4 f   comsupp:comutil.obj
 0001:000c8cee       _$E1                       004c9cee f   comsupp:comutil.obj
 0001:000c8d00       _$E3                       004c9d00 f   comsupp:comutil.obj
 0001:000c8d0c       _$E2                       004c9d0c f   comsupp:comutil.obj
 0001:000c8713       ?_com_invoke_helper@@YAJPAUIDispatch@@JGGPAXPBGPADPAPAUIErrorInfo@@@Z 004c9713 f   comsupp:comsupp.obj
